Archive member included because of file (symbol)

/Applications/Marmalade.app/Contents/s3e/edk/lib/android/libedk.a(edk_helpers.o)
                              release/s3ePushWoosh_platform.os (s3eEdkThreadRunOnOS)
/Users/Max/android-ndk-r8e/sources/cxx-stl/gnu-libstdc++/4.4.3/libs/armeabi/libgnustl_static.a(string-inst.o)
                              release/s3ePushWoosh_platform.os (_ZNSs4_Rep20_S_empty_rep_storageE)
/Users/Max/android-ndk-r8e/sources/cxx-stl/gnu-libstdc++/4.4.3/libs/armeabi/libgnustl_static.a(atomicity.o)
                              release/s3ePushWoosh_platform.os (_ZN9__gnu_cxx18__exchange_and_addEPVii)
/Users/Max/android-ndk-r8e/sources/cxx-stl/gnu-libstdc++/4.4.3/libs/armeabi/libgnustl_static.a(atexit_arm.o)
                              release/s3ePushWoosh_platform.os (__aeabi_atexit)
/Users/Max/android-ndk-r8e/sources/cxx-stl/gnu-libstdc++/4.4.3/libs/armeabi/libgnustl_static.a(del_op.o)
                              /Users/Max/android-ndk-r8e/sources/cxx-stl/gnu-libstdc++/4.4.3/libs/armeabi/libgnustl_static.a(string-inst.o) (_ZdlPv)
/Users/Max/android-ndk-r8e/sources/cxx-stl/gnu-libstdc++/4.4.3/libs/armeabi/libgnustl_static.a(eh_alloc.o)
                              /Users/Max/android-ndk-r8e/sources/cxx-stl/gnu-libstdc++/4.4.3/libs/armeabi/libgnustl_static.a(atomicity.o) (__cxa_allocate_exception)
/Users/Max/android-ndk-r8e/sources/cxx-stl/gnu-libstdc++/4.4.3/libs/armeabi/libgnustl_static.a(eh_arm.o)
                              /Users/Max/android-ndk-r8e/sources/cxx-stl/gnu-libstdc++/4.4.3/libs/armeabi/libgnustl_static.a(string-inst.o) (__cxa_end_cleanup)
/Users/Max/android-ndk-r8e/sources/cxx-stl/gnu-libstdc++/4.4.3/libs/armeabi/libgnustl_static.a(eh_aux_runtime.o)
                              /Users/Max/android-ndk-r8e/sources/cxx-stl/gnu-libstdc++/4.4.3/libs/armeabi/libgnustl_static.a(eh_arm.o) (__cxa_bad_typeid)
/Users/Max/android-ndk-r8e/sources/cxx-stl/gnu-libstdc++/4.4.3/libs/armeabi/libgnustl_static.a(eh_call.o)
                              /Users/Max/android-ndk-r8e/sources/cxx-stl/gnu-libstdc++/4.4.3/libs/armeabi/libgnustl_static.a(string-inst.o) (__cxa_call_unexpected)
/Users/Max/android-ndk-r8e/sources/cxx-stl/gnu-libstdc++/4.4.3/libs/armeabi/libgnustl_static.a(eh_catch.o)
                              /Users/Max/android-ndk-r8e/sources/cxx-stl/gnu-libstdc++/4.4.3/libs/armeabi/libgnustl_static.a(eh_call.o) (__cxa_end_catch)
/Users/Max/android-ndk-r8e/sources/cxx-stl/gnu-libstdc++/4.4.3/libs/armeabi/libgnustl_static.a(eh_exception.o)
                              /Users/Max/android-ndk-r8e/sources/cxx-stl/gnu-libstdc++/4.4.3/libs/armeabi/libgnustl_static.a(atomicity.o) (_ZNSt9exceptionD2Ev)
/Users/Max/android-ndk-r8e/sources/cxx-stl/gnu-libstdc++/4.4.3/libs/armeabi/libgnustl_static.a(eh_globals.o)
                              /Users/Max/android-ndk-r8e/sources/cxx-stl/gnu-libstdc++/4.4.3/libs/armeabi/libgnustl_static.a(eh_call.o) (__cxa_get_globals_fast)
/Users/Max/android-ndk-r8e/sources/cxx-stl/gnu-libstdc++/4.4.3/libs/armeabi/libgnustl_static.a(eh_personality.o)
                              /Users/Max/android-ndk-r8e/sources/cxx-stl/gnu-libstdc++/4.4.3/libs/armeabi/libgnustl_static.a(string-inst.o) (__gxx_personality_v0)
/Users/Max/android-ndk-r8e/sources/cxx-stl/gnu-libstdc++/4.4.3/libs/armeabi/libgnustl_static.a(eh_terminate.o)
                              /Users/Max/android-ndk-r8e/sources/cxx-stl/gnu-libstdc++/4.4.3/libs/armeabi/libgnustl_static.a(eh_call.o) (_ZN10__cxxabiv111__terminateEPFvvE)
/Users/Max/android-ndk-r8e/sources/cxx-stl/gnu-libstdc++/4.4.3/libs/armeabi/libgnustl_static.a(eh_throw.o)
                              /Users/Max/android-ndk-r8e/sources/cxx-stl/gnu-libstdc++/4.4.3/libs/armeabi/libgnustl_static.a(eh_call.o) (__cxa_rethrow)
/Users/Max/android-ndk-r8e/sources/cxx-stl/gnu-libstdc++/4.4.3/libs/armeabi/libgnustl_static.a(eh_unex_handler.o)
                              /Users/Max/android-ndk-r8e/sources/cxx-stl/gnu-libstdc++/4.4.3/libs/armeabi/libgnustl_static.a(eh_terminate.o) (_ZN10__cxxabiv120__unexpected_handlerE)
/Users/Max/android-ndk-r8e/sources/cxx-stl/gnu-libstdc++/4.4.3/libs/armeabi/libgnustl_static.a(fundamental_type_info.o)
                              /Users/Max/android-ndk-r8e/sources/cxx-stl/gnu-libstdc++/4.4.3/libs/armeabi/libgnustl_static.a(eh_arm.o) (_ZTIv)
/Users/Max/android-ndk-r8e/sources/cxx-stl/gnu-libstdc++/4.4.3/libs/armeabi/libgnustl_static.a(guard.o)
                              /Users/Max/android-ndk-r8e/sources/cxx-stl/gnu-libstdc++/4.4.3/libs/armeabi/libgnustl_static.a(atomicity.o) (__cxa_guard_release)
/Users/Max/android-ndk-r8e/sources/cxx-stl/gnu-libstdc++/4.4.3/libs/armeabi/libgnustl_static.a(new_op.o)
                              /Users/Max/android-ndk-r8e/sources/cxx-stl/gnu-libstdc++/4.4.3/libs/armeabi/libgnustl_static.a(string-inst.o) (_Znwj)
/Users/Max/android-ndk-r8e/sources/cxx-stl/gnu-libstdc++/4.4.3/libs/armeabi/libgnustl_static.a(pointer_type_info.o)
                              /Users/Max/android-ndk-r8e/sources/cxx-stl/gnu-libstdc++/4.4.3/libs/armeabi/libgnustl_static.a(fundamental_type_info.o) (_ZTVN10__cxxabiv119__pointer_type_infoE)
/Users/Max/android-ndk-r8e/sources/cxx-stl/gnu-libstdc++/4.4.3/libs/armeabi/libgnustl_static.a(pure.o)
                              /Users/Max/android-ndk-r8e/sources/cxx-stl/gnu-libstdc++/4.4.3/libs/armeabi/libgnustl_static.a(eh_exception.o) (__cxa_pure_virtual)
/Users/Max/android-ndk-r8e/sources/cxx-stl/gnu-libstdc++/4.4.3/libs/armeabi/libgnustl_static.a(si_class_type_info.o)
                              /Users/Max/android-ndk-r8e/sources/cxx-stl/gnu-libstdc++/4.4.3/libs/armeabi/libgnustl_static.a(atomicity.o) (_ZTVN10__cxxabiv120__si_class_type_infoE)
/Users/Max/android-ndk-r8e/sources/cxx-stl/gnu-libstdc++/4.4.3/libs/armeabi/libgnustl_static.a(tinfo.o)
                              /Users/Max/android-ndk-r8e/sources/cxx-stl/gnu-libstdc++/4.4.3/libs/armeabi/libgnustl_static.a(fundamental_type_info.o) (_ZNSt9type_infoD2Ev)
/Users/Max/android-ndk-r8e/sources/cxx-stl/gnu-libstdc++/4.4.3/libs/armeabi/libgnustl_static.a(functexcept.o)
                              /Users/Max/android-ndk-r8e/sources/cxx-stl/gnu-libstdc++/4.4.3/libs/armeabi/libgnustl_static.a(string-inst.o) (_ZSt20__throw_length_errorPKc)
/Users/Max/android-ndk-r8e/sources/cxx-stl/gnu-libstdc++/4.4.3/libs/armeabi/libgnustl_static.a(ios_failure.o)
                              /Users/Max/android-ndk-r8e/sources/cxx-stl/gnu-libstdc++/4.4.3/libs/armeabi/libgnustl_static.a(functexcept.o) (_ZNSt8ios_base7failureD1Ev)
/Users/Max/android-ndk-r8e/sources/cxx-stl/gnu-libstdc++/4.4.3/libs/armeabi/libgnustl_static.a(stdexcept.o)
                              /Users/Max/android-ndk-r8e/sources/cxx-stl/gnu-libstdc++/4.4.3/libs/armeabi/libgnustl_static.a(functexcept.o) (_ZNKSt11logic_error4whatEv)
/Users/Max/android-ndk-r8e/sources/cxx-stl/gnu-libstdc++/4.4.3/libs/armeabi/libgnustl_static.a(system_error.o)
                              /Users/Max/android-ndk-r8e/sources/cxx-stl/gnu-libstdc++/4.4.3/libs/armeabi/libgnustl_static.a(functexcept.o) (_ZSt16generic_categoryv)
/Users/Max/android-ndk-r8e/sources/cxx-stl/gnu-libstdc++/4.4.3/libs/armeabi/libgnustl_static.a(bad_cast.o)
                              /Users/Max/android-ndk-r8e/sources/cxx-stl/gnu-libstdc++/4.4.3/libs/armeabi/libgnustl_static.a(eh_aux_runtime.o) (_ZNSt8bad_castD1Ev)
/Users/Max/android-ndk-r8e/sources/cxx-stl/gnu-libstdc++/4.4.3/libs/armeabi/libgnustl_static.a(bad_typeid.o)
                              /Users/Max/android-ndk-r8e/sources/cxx-stl/gnu-libstdc++/4.4.3/libs/armeabi/libgnustl_static.a(eh_aux_runtime.o) (_ZNSt10bad_typeidD1Ev)
/Users/Max/android-ndk-r8e/sources/cxx-stl/gnu-libstdc++/4.4.3/libs/armeabi/libgnustl_static.a(class_type_info.o)
                              /Users/Max/android-ndk-r8e/sources/cxx-stl/gnu-libstdc++/4.4.3/libs/armeabi/libgnustl_static.a(si_class_type_info.o) (_ZNK10__cxxabiv117__class_type_info11__do_upcastEPKS0_PPv)
/Users/Max/android-ndk-r8e/sources/cxx-stl/gnu-libstdc++/4.4.3/libs/armeabi/libgnustl_static.a(eh_term_handler.o)
                              /Users/Max/android-ndk-r8e/sources/cxx-stl/gnu-libstdc++/4.4.3/libs/armeabi/libgnustl_static.a(eh_terminate.o) (_ZN10__cxxabiv119__terminate_handlerE)
/Users/Max/android-ndk-r8e/sources/cxx-stl/gnu-libstdc++/4.4.3/libs/armeabi/libgnustl_static.a(new_handler.o)
                              /Users/Max/android-ndk-r8e/sources/cxx-stl/gnu-libstdc++/4.4.3/libs/armeabi/libgnustl_static.a(new_op.o) (_ZNSt9bad_allocD1Ev)
/Users/Max/android-ndk-r8e/sources/cxx-stl/gnu-libstdc++/4.4.3/libs/armeabi/libgnustl_static.a(pbase_type_info.o)
                              /Users/Max/android-ndk-r8e/sources/cxx-stl/gnu-libstdc++/4.4.3/libs/armeabi/libgnustl_static.a(pointer_type_info.o) (_ZNK10__cxxabiv117__pbase_type_info10__do_catchEPKSt9type_infoPPvj)
/Users/Max/android-ndk-r8e/sources/cxx-stl/gnu-libstdc++/4.4.3/libs/armeabi/libgnustl_static.a(vterminate.o)
                              /Users/Max/android-ndk-r8e/sources/cxx-stl/gnu-libstdc++/4.4.3/libs/armeabi/libgnustl_static.a(eh_term_handler.o) (_ZN9__gnu_cxx27__verbose_terminate_handlerEv)
/Users/Max/android-ndk-r8e/sources/cxx-stl/gnu-libstdc++/4.4.3/libs/armeabi/libgnustl_static.a(cp-demangle.o)
                              /Users/Max/android-ndk-r8e/sources/cxx-stl/gnu-libstdc++/4.4.3/libs/armeabi/libgnustl_static.a(vterminate.o) (__cxa_demangle)
/Users/Max/android-ndk-r8e/sources/cxx-stl/gnu-libstdc++/4.4.3/libs/armeabi/libgnustl_static.a(eh_type.o)
                              /Users/Max/android-ndk-r8e/sources/cxx-stl/gnu-libstdc++/4.4.3/libs/armeabi/libgnustl_static.a(vterminate.o) (__cxa_current_exception_type)
/Users/Max/android-ndk-r8e/toolchains/arm-linux-androideabi-4.4.3/prebuilt/darwin-x86/bin/../lib/gcc/arm-linux-androideabi/4.4.3/libgcc.a(unwind-arm.o)
                              /Users/Max/android-ndk-r8e/sources/cxx-stl/gnu-libstdc++/4.4.3/libs/armeabi/libgnustl_static.a(eh_personality.o) (_Unwind_VRS_Get)
/Users/Max/android-ndk-r8e/toolchains/arm-linux-androideabi-4.4.3/prebuilt/darwin-x86/bin/../lib/gcc/arm-linux-androideabi/4.4.3/libgcc.a(libunwind.o)
                              /Users/Max/android-ndk-r8e/toolchains/arm-linux-androideabi-4.4.3/prebuilt/darwin-x86/bin/../lib/gcc/arm-linux-androideabi/4.4.3/libgcc.a(unwind-arm.o) (restore_core_regs)
/Users/Max/android-ndk-r8e/toolchains/arm-linux-androideabi-4.4.3/prebuilt/darwin-x86/bin/../lib/gcc/arm-linux-androideabi/4.4.3/libgcc.a(pr-support.o)
                              /Users/Max/android-ndk-r8e/sources/cxx-stl/gnu-libstdc++/4.4.3/libs/armeabi/libgnustl_static.a(eh_personality.o) (_Unwind_GetTextRelBase)

Discarded input sections

 .note.GNU-stack
                0x00000000        0x0 /Users/Max/android-ndk-r8e/platforms/android-9/arch-arm/usr/lib/crtbegin_so.o
 _ZN7_JNIEnv11GetMethodIDEP7_jclassPKcS3_
                0x00000000        0x0 release/s3ePushWoosh_platform.os
 _ZN7_JNIEnv13CallIntMethodEP8_jobjectP10_jmethodIDz
                0x00000000        0x0 release/s3ePushWoosh_platform.os
 _ZN7_JNIEnv16CallObjectMethodEP8_jobjectP10_jmethodIDz
                0x00000000        0x0 release/s3ePushWoosh_platform.os
 _ZN7_JNIEnv17CallBooleanMethodEP8_jobjectP10_jmethodIDz
                0x00000000        0x0 release/s3ePushWoosh_platform.os
 _ZN7_JNIEnv9NewObjectEP7_jclassP10_jmethodIDz
                0x00000000        0x0 release/s3ePushWoosh_platform.os
 _ZN7_JNIEnv14CallVoidMethodEP8_jobjectP10_jmethodIDz
                0x00000000        0x0 release/s3ePushWoosh_platform.os
 .note.GNU-stack
                0x00000000        0x0 release/s3ePushWoosh_platform.os
 .note.GNU-stack
                0x00000000        0x0 release/s3ePushWoosh.os
 .note.GNU-stack
                0x00000000        0x0 release/s3ePushWoosh_register.os
 .note.GNU-stack
                0x00000000        0x0 /Applications/Marmalade.app/Contents/s3e/edk/lib/android/libedk.a(edk_helpers.o)
 _ZNKSs7_M_dataEv
                0x00000000        0x0 /Users/Max/android-ndk-r8e/sources/cxx-stl/gnu-libstdc++/4.4.3/libs/armeabi/libgnustl_static.a(string-inst.o)
 _ZNSs7_M_dataEPc
                0x00000000        0x0 /Users/Max/android-ndk-r8e/sources/cxx-stl/gnu-libstdc++/4.4.3/libs/armeabi/libgnustl_static.a(string-inst.o)
 _ZNKSs6_M_repEv
                0x00000000        0x0 /Users/Max/android-ndk-r8e/sources/cxx-stl/gnu-libstdc++/4.4.3/libs/armeabi/libgnustl_static.a(string-inst.o)
 _ZNKSs9_M_ibeginEv
                0x00000000        0x0 /Users/Max/android-ndk-r8e/sources/cxx-stl/gnu-libstdc++/4.4.3/libs/armeabi/libgnustl_static.a(string-inst.o)
 _ZNKSs7_M_iendEv
                0x00000000        0x0 /Users/Max/android-ndk-r8e/sources/cxx-stl/gnu-libstdc++/4.4.3/libs/armeabi/libgnustl_static.a(string-inst.o)
 _ZNKSs8_M_limitEjj
                0x00000000        0x0 /Users/Max/android-ndk-r8e/sources/cxx-stl/gnu-libstdc++/4.4.3/libs/armeabi/libgnustl_static.a(string-inst.o)
 _ZNKSs11_M_disjunctEPKc
                0x00000000        0x0 /Users/Max/android-ndk-r8e/sources/cxx-stl/gnu-libstdc++/4.4.3/libs/armeabi/libgnustl_static.a(string-inst.o)
 _ZNSs10_S_compareEjj
                0x00000000        0x0 /Users/Max/android-ndk-r8e/sources/cxx-stl/gnu-libstdc++/4.4.3/libs/armeabi/libgnustl_static.a(string-inst.o)
 _ZNSs12_S_empty_repEv
                0x00000000        0x0 /Users/Max/android-ndk-r8e/sources/cxx-stl/gnu-libstdc++/4.4.3/libs/armeabi/libgnustl_static.a(string-inst.o)
 _ZNSsC2Ev      0x00000000        0x0 /Users/Max/android-ndk-r8e/sources/cxx-stl/gnu-libstdc++/4.4.3/libs/armeabi/libgnustl_static.a(string-inst.o)
 _ZNSsC1Ev      0x00000000        0x0 /Users/Max/android-ndk-r8e/sources/cxx-stl/gnu-libstdc++/4.4.3/libs/armeabi/libgnustl_static.a(string-inst.o)
 _ZNKSs5beginEv
                0x00000000        0x0 /Users/Max/android-ndk-r8e/sources/cxx-stl/gnu-libstdc++/4.4.3/libs/armeabi/libgnustl_static.a(string-inst.o)
 _ZNKSs3endEv   0x00000000        0x0 /Users/Max/android-ndk-r8e/sources/cxx-stl/gnu-libstdc++/4.4.3/libs/armeabi/libgnustl_static.a(string-inst.o)
 _ZNKSs6rbeginEv
                0x00000000        0x0 /Users/Max/android-ndk-r8e/sources/cxx-stl/gnu-libstdc++/4.4.3/libs/armeabi/libgnustl_static.a(string-inst.o)
 _ZNKSs4rendEv  0x00000000        0x0 /Users/Max/android-ndk-r8e/sources/cxx-stl/gnu-libstdc++/4.4.3/libs/armeabi/libgnustl_static.a(string-inst.o)
 _ZNKSs4sizeEv  0x00000000        0x0 /Users/Max/android-ndk-r8e/sources/cxx-stl/gnu-libstdc++/4.4.3/libs/armeabi/libgnustl_static.a(string-inst.o)
 _ZNKSs6lengthEv
                0x00000000        0x0 /Users/Max/android-ndk-r8e/sources/cxx-stl/gnu-libstdc++/4.4.3/libs/armeabi/libgnustl_static.a(string-inst.o)
 _ZNKSs8max_sizeEv
                0x00000000        0x0 /Users/Max/android-ndk-r8e/sources/cxx-stl/gnu-libstdc++/4.4.3/libs/armeabi/libgnustl_static.a(string-inst.o)
 _ZNKSs8capacityEv
                0x00000000        0x0 /Users/Max/android-ndk-r8e/sources/cxx-stl/gnu-libstdc++/4.4.3/libs/armeabi/libgnustl_static.a(string-inst.o)
 _ZNKSs5emptyEv
                0x00000000        0x0 /Users/Max/android-ndk-r8e/sources/cxx-stl/gnu-libstdc++/4.4.3/libs/armeabi/libgnustl_static.a(string-inst.o)
 _ZNKSsixEj     0x00000000        0x0 /Users/Max/android-ndk-r8e/sources/cxx-stl/gnu-libstdc++/4.4.3/libs/armeabi/libgnustl_static.a(string-inst.o)
 _ZNSs4swapERSs
                0x00000000        0x0 /Users/Max/android-ndk-r8e/sources/cxx-stl/gnu-libstdc++/4.4.3/libs/armeabi/libgnustl_static.a(string-inst.o)
 _ZNKSs5c_strEv
                0x00000000        0x0 /Users/Max/android-ndk-r8e/sources/cxx-stl/gnu-libstdc++/4.4.3/libs/armeabi/libgnustl_static.a(string-inst.o)
 _ZNKSs4dataEv  0x00000000        0x0 /Users/Max/android-ndk-r8e/sources/cxx-stl/gnu-libstdc++/4.4.3/libs/armeabi/libgnustl_static.a(string-inst.o)
 _ZNKSs13get_allocatorEv
                0x00000000        0x0 /Users/Max/android-ndk-r8e/sources/cxx-stl/gnu-libstdc++/4.4.3/libs/armeabi/libgnustl_static.a(string-inst.o)
 _ZNKSs5rfindEcj
                0x00000000        0x0 /Users/Max/android-ndk-r8e/sources/cxx-stl/gnu-libstdc++/4.4.3/libs/armeabi/libgnustl_static.a(string-inst.o)
 _ZNKSs12find_last_ofEcj
                0x00000000        0x0 /Users/Max/android-ndk-r8e/sources/cxx-stl/gnu-libstdc++/4.4.3/libs/armeabi/libgnustl_static.a(string-inst.o)
 _ZNKSs17find_first_not_ofEcj
                0x00000000        0x0 /Users/Max/android-ndk-r8e/sources/cxx-stl/gnu-libstdc++/4.4.3/libs/armeabi/libgnustl_static.a(string-inst.o)
 _ZNKSs16find_last_not_ofEcj
                0x00000000        0x0 /Users/Max/android-ndk-r8e/sources/cxx-stl/gnu-libstdc++/4.4.3/libs/armeabi/libgnustl_static.a(string-inst.o)
 _ZNSs12_Alloc_hiderC2EPcRKSaIcE
                0x00000000        0x0 /Users/Max/android-ndk-r8e/sources/cxx-stl/gnu-libstdc++/4.4.3/libs/armeabi/libgnustl_static.a(string-inst.o)
 _ZNSs12_Alloc_hiderC1EPcRKSaIcE
                0x00000000        0x0 /Users/Max/android-ndk-r8e/sources/cxx-stl/gnu-libstdc++/4.4.3/libs/armeabi/libgnustl_static.a(string-inst.o)
 _ZNSs4_Rep12_S_empty_repEv
                0x00000000        0x0 /Users/Max/android-ndk-r8e/sources/cxx-stl/gnu-libstdc++/4.4.3/libs/armeabi/libgnustl_static.a(string-inst.o)
 _ZNKSs4_Rep12_M_is_leakedEv
                0x00000000        0x0 /Users/Max/android-ndk-r8e/sources/cxx-stl/gnu-libstdc++/4.4.3/libs/armeabi/libgnustl_static.a(string-inst.o)
 _ZNKSs4_Rep12_M_is_sharedEv
                0x00000000        0x0 /Users/Max/android-ndk-r8e/sources/cxx-stl/gnu-libstdc++/4.4.3/libs/armeabi/libgnustl_static.a(string-inst.o)
 _ZNSs4_Rep13_M_set_leakedEv
                0x00000000        0x0 /Users/Max/android-ndk-r8e/sources/cxx-stl/gnu-libstdc++/4.4.3/libs/armeabi/libgnustl_static.a(string-inst.o)
 _ZNSs4_Rep15_M_set_sharableEv
                0x00000000        0x0 /Users/Max/android-ndk-r8e/sources/cxx-stl/gnu-libstdc++/4.4.3/libs/armeabi/libgnustl_static.a(string-inst.o)
 _ZNSs4_Rep26_M_set_length_and_sharableEj
                0x00000000        0x0 /Users/Max/android-ndk-r8e/sources/cxx-stl/gnu-libstdc++/4.4.3/libs/armeabi/libgnustl_static.a(string-inst.o)
 _ZNSs4_Rep10_M_refdataEv
                0x00000000        0x0 /Users/Max/android-ndk-r8e/sources/cxx-stl/gnu-libstdc++/4.4.3/libs/armeabi/libgnustl_static.a(string-inst.o)
 _ZN9__gnu_cxxeqIPcSsEEbRKNS_17__normal_iteratorIT_T0_EES7_
                0x00000000        0x0 /Users/Max/android-ndk-r8e/sources/cxx-stl/gnu-libstdc++/4.4.3/libs/armeabi/libgnustl_static.a(string-inst.o)
 _ZN9__gnu_cxxeqIPKcSsEEbRKNS_17__normal_iteratorIT_T0_EES8_
                0x00000000        0x0 /Users/Max/android-ndk-r8e/sources/cxx-stl/gnu-libstdc++/4.4.3/libs/armeabi/libgnustl_static.a(string-inst.o)
 _ZNSs4_Rep10_M_refcopyEv
                0x00000000        0x0 /Users/Max/android-ndk-r8e/sources/cxx-stl/gnu-libstdc++/4.4.3/libs/armeabi/libgnustl_static.a(string-inst.o)
 _ZNSs4_Rep10_M_destroyERKSaIcE
                0x00000000        0x0 /Users/Max/android-ndk-r8e/sources/cxx-stl/gnu-libstdc++/4.4.3/libs/armeabi/libgnustl_static.a(string-inst.o)
 _ZNSs4_Rep10_M_disposeERKSaIcE
                0x00000000        0x0 /Users/Max/android-ndk-r8e/sources/cxx-stl/gnu-libstdc++/4.4.3/libs/armeabi/libgnustl_static.a(string-inst.o)
 _ZNKSs15_M_check_lengthEjjPKc
                0x00000000        0x0 /Users/Max/android-ndk-r8e/sources/cxx-stl/gnu-libstdc++/4.4.3/libs/armeabi/libgnustl_static.a(string-inst.o)
 _ZNSs4_Rep9_S_createEjjRKSaIcE
                0x00000000        0x0 /Users/Max/android-ndk-r8e/sources/cxx-stl/gnu-libstdc++/4.4.3/libs/armeabi/libgnustl_static.a(string-inst.o)
 _ZNKSs16find_last_not_ofEPKcjj
                0x00000000        0x0 /Users/Max/android-ndk-r8e/sources/cxx-stl/gnu-libstdc++/4.4.3/libs/armeabi/libgnustl_static.a(string-inst.o)
 _ZNKSs16find_last_not_ofERKSsj
                0x00000000        0x0 /Users/Max/android-ndk-r8e/sources/cxx-stl/gnu-libstdc++/4.4.3/libs/armeabi/libgnustl_static.a(string-inst.o)
 _ZNKSs17find_first_not_ofEPKcjj
                0x00000000        0x0 /Users/Max/android-ndk-r8e/sources/cxx-stl/gnu-libstdc++/4.4.3/libs/armeabi/libgnustl_static.a(string-inst.o)
 _ZNKSs17find_first_not_ofERKSsj
                0x00000000        0x0 /Users/Max/android-ndk-r8e/sources/cxx-stl/gnu-libstdc++/4.4.3/libs/armeabi/libgnustl_static.a(string-inst.o)
 _ZNKSs12find_last_ofEPKcjj
                0x00000000        0x0 /Users/Max/android-ndk-r8e/sources/cxx-stl/gnu-libstdc++/4.4.3/libs/armeabi/libgnustl_static.a(string-inst.o)
 _ZNKSs12find_last_ofERKSsj
                0x00000000        0x0 /Users/Max/android-ndk-r8e/sources/cxx-stl/gnu-libstdc++/4.4.3/libs/armeabi/libgnustl_static.a(string-inst.o)
 _ZNKSs13find_first_ofEPKcjj
                0x00000000        0x0 /Users/Max/android-ndk-r8e/sources/cxx-stl/gnu-libstdc++/4.4.3/libs/armeabi/libgnustl_static.a(string-inst.o)
 _ZNKSs13find_first_ofERKSsj
                0x00000000        0x0 /Users/Max/android-ndk-r8e/sources/cxx-stl/gnu-libstdc++/4.4.3/libs/armeabi/libgnustl_static.a(string-inst.o)
 _ZNKSs4findEcj
                0x00000000        0x0 /Users/Max/android-ndk-r8e/sources/cxx-stl/gnu-libstdc++/4.4.3/libs/armeabi/libgnustl_static.a(string-inst.o)
 _ZNKSs13find_first_ofEcj
                0x00000000        0x0 /Users/Max/android-ndk-r8e/sources/cxx-stl/gnu-libstdc++/4.4.3/libs/armeabi/libgnustl_static.a(string-inst.o)
 _ZNKSs2atEj    0x00000000        0x0 /Users/Max/android-ndk-r8e/sources/cxx-stl/gnu-libstdc++/4.4.3/libs/armeabi/libgnustl_static.a(string-inst.o)
 _ZNKSs8_M_checkEjPKc
                0x00000000        0x0 /Users/Max/android-ndk-r8e/sources/cxx-stl/gnu-libstdc++/4.4.3/libs/armeabi/libgnustl_static.a(string-inst.o)
 _ZNKSs7compareEjjRKSsjj
                0x00000000        0x0 /Users/Max/android-ndk-r8e/sources/cxx-stl/gnu-libstdc++/4.4.3/libs/armeabi/libgnustl_static.a(string-inst.o)
 _ZNSs9_M_assignEPcjc
                0x00000000        0x0 /Users/Max/android-ndk-r8e/sources/cxx-stl/gnu-libstdc++/4.4.3/libs/armeabi/libgnustl_static.a(string-inst.o)
 _ZNSs7_M_moveEPcPKcj
                0x00000000        0x0 /Users/Max/android-ndk-r8e/sources/cxx-stl/gnu-libstdc++/4.4.3/libs/armeabi/libgnustl_static.a(string-inst.o)
 _ZNSs7_M_copyEPcPKcj
                0x00000000        0x0 /Users/Max/android-ndk-r8e/sources/cxx-stl/gnu-libstdc++/4.4.3/libs/armeabi/libgnustl_static.a(string-inst.o)
 _ZNKSs5rfindEPKcjj
                0x00000000        0x0 /Users/Max/android-ndk-r8e/sources/cxx-stl/gnu-libstdc++/4.4.3/libs/armeabi/libgnustl_static.a(string-inst.o)
 _ZNKSs5rfindERKSsj
                0x00000000        0x0 /Users/Max/android-ndk-r8e/sources/cxx-stl/gnu-libstdc++/4.4.3/libs/armeabi/libgnustl_static.a(string-inst.o)
 _ZNKSs7compareERKSs
                0x00000000        0x0 /Users/Max/android-ndk-r8e/sources/cxx-stl/gnu-libstdc++/4.4.3/libs/armeabi/libgnustl_static.a(string-inst.o)
 _ZNKSs7compareEjjPKcj
                0x00000000        0x0 /Users/Max/android-ndk-r8e/sources/cxx-stl/gnu-libstdc++/4.4.3/libs/armeabi/libgnustl_static.a(string-inst.o)
 _ZNKSs7compareEjjRKSs
                0x00000000        0x0 /Users/Max/android-ndk-r8e/sources/cxx-stl/gnu-libstdc++/4.4.3/libs/armeabi/libgnustl_static.a(string-inst.o)
 _ZNKSs4findEPKcjj
                0x00000000        0x0 /Users/Max/android-ndk-r8e/sources/cxx-stl/gnu-libstdc++/4.4.3/libs/armeabi/libgnustl_static.a(string-inst.o)
 _ZNKSs4findERKSsj
                0x00000000        0x0 /Users/Max/android-ndk-r8e/sources/cxx-stl/gnu-libstdc++/4.4.3/libs/armeabi/libgnustl_static.a(string-inst.o)
 _ZNKSs5rfindEPKcj
                0x00000000        0x0 /Users/Max/android-ndk-r8e/sources/cxx-stl/gnu-libstdc++/4.4.3/libs/armeabi/libgnustl_static.a(string-inst.o)
 _ZNKSs4findEPKcj
                0x00000000        0x0 /Users/Max/android-ndk-r8e/sources/cxx-stl/gnu-libstdc++/4.4.3/libs/armeabi/libgnustl_static.a(string-inst.o)
 _ZNKSs16find_last_not_ofEPKcj
                0x00000000        0x0 /Users/Max/android-ndk-r8e/sources/cxx-stl/gnu-libstdc++/4.4.3/libs/armeabi/libgnustl_static.a(string-inst.o)
 _ZNKSs17find_first_not_ofEPKcj
                0x00000000        0x0 /Users/Max/android-ndk-r8e/sources/cxx-stl/gnu-libstdc++/4.4.3/libs/armeabi/libgnustl_static.a(string-inst.o)
 _ZNKSs13find_first_ofEPKcj
                0x00000000        0x0 /Users/Max/android-ndk-r8e/sources/cxx-stl/gnu-libstdc++/4.4.3/libs/armeabi/libgnustl_static.a(string-inst.o)
 _ZNKSs12find_last_ofEPKcj
                0x00000000        0x0 /Users/Max/android-ndk-r8e/sources/cxx-stl/gnu-libstdc++/4.4.3/libs/armeabi/libgnustl_static.a(string-inst.o)
 _ZNKSs7compareEPKc
                0x00000000        0x0 /Users/Max/android-ndk-r8e/sources/cxx-stl/gnu-libstdc++/4.4.3/libs/armeabi/libgnustl_static.a(string-inst.o)
 _ZNKSs7compareEjjPKc
                0x00000000        0x0 /Users/Max/android-ndk-r8e/sources/cxx-stl/gnu-libstdc++/4.4.3/libs/armeabi/libgnustl_static.a(string-inst.o)
 _ZNSs13_S_copy_charsEPcPKcS1_
                0x00000000        0x0 /Users/Max/android-ndk-r8e/sources/cxx-stl/gnu-libstdc++/4.4.3/libs/armeabi/libgnustl_static.a(string-inst.o)
 _ZNSs13_S_copy_charsEPcN9__gnu_cxx17__normal_iteratorIPKcSsEES4_
                0x00000000        0x0 /Users/Max/android-ndk-r8e/sources/cxx-stl/gnu-libstdc++/4.4.3/libs/armeabi/libgnustl_static.a(string-inst.o)
 _ZNSs13_S_copy_charsEPcS_S_
                0x00000000        0x0 /Users/Max/android-ndk-r8e/sources/cxx-stl/gnu-libstdc++/4.4.3/libs/armeabi/libgnustl_static.a(string-inst.o)
 _ZNSs13_S_copy_charsEPcN9__gnu_cxx17__normal_iteratorIS_SsEES2_
                0x00000000        0x0 /Users/Max/android-ndk-r8e/sources/cxx-stl/gnu-libstdc++/4.4.3/libs/armeabi/libgnustl_static.a(string-inst.o)
 _ZNSs12_S_constructIPKcEEPcT_S3_RKSaIcESt20forward_iterator_tag
                0x00000000        0x0 /Users/Max/android-ndk-r8e/sources/cxx-stl/gnu-libstdc++/4.4.3/libs/armeabi/libgnustl_static.a(string-inst.o)
 _ZNSsC1IPKcEET_S2_RKSaIcE
                0x00000000        0x0 /Users/Max/android-ndk-r8e/sources/cxx-stl/gnu-libstdc++/4.4.3/libs/armeabi/libgnustl_static.a(string-inst.o)
 _ZNSsC2IPKcEET_S2_RKSaIcE
                0x00000000        0x0 /Users/Max/android-ndk-r8e/sources/cxx-stl/gnu-libstdc++/4.4.3/libs/armeabi/libgnustl_static.a(string-inst.o)
 _ZNSsC1ESt16initializer_listIcERKSaIcE
                0x00000000        0x0 /Users/Max/android-ndk-r8e/sources/cxx-stl/gnu-libstdc++/4.4.3/libs/armeabi/libgnustl_static.a(string-inst.o)
 _ZNSsC2ESt16initializer_listIcERKSaIcE
                0x00000000        0x0 /Users/Max/android-ndk-r8e/sources/cxx-stl/gnu-libstdc++/4.4.3/libs/armeabi/libgnustl_static.a(string-inst.o)
 _ZNSsC1EPKcRKSaIcE
                0x00000000        0x0 /Users/Max/android-ndk-r8e/sources/cxx-stl/gnu-libstdc++/4.4.3/libs/armeabi/libgnustl_static.a(string-inst.o)
 _ZNSsC2EPKcRKSaIcE
                0x00000000        0x0 /Users/Max/android-ndk-r8e/sources/cxx-stl/gnu-libstdc++/4.4.3/libs/armeabi/libgnustl_static.a(string-inst.o)
 _ZNSsC1EPKcjRKSaIcE
                0x00000000        0x0 /Users/Max/android-ndk-r8e/sources/cxx-stl/gnu-libstdc++/4.4.3/libs/armeabi/libgnustl_static.a(string-inst.o)
 _ZNSsC2EPKcjRKSaIcE
                0x00000000        0x0 /Users/Max/android-ndk-r8e/sources/cxx-stl/gnu-libstdc++/4.4.3/libs/armeabi/libgnustl_static.a(string-inst.o)
 _ZNSs12_S_constructIPcEES0_T_S1_RKSaIcESt20forward_iterator_tag
                0x00000000        0x0 /Users/Max/android-ndk-r8e/sources/cxx-stl/gnu-libstdc++/4.4.3/libs/armeabi/libgnustl_static.a(string-inst.o)
 _ZNSsC1IPcEET_S1_RKSaIcE
                0x00000000        0x0 /Users/Max/android-ndk-r8e/sources/cxx-stl/gnu-libstdc++/4.4.3/libs/armeabi/libgnustl_static.a(string-inst.o)
 _ZNSsC2IPcEET_S1_RKSaIcE
                0x00000000        0x0 /Users/Max/android-ndk-r8e/sources/cxx-stl/gnu-libstdc++/4.4.3/libs/armeabi/libgnustl_static.a(string-inst.o)
 _ZNSsC1ERKSsjjRKSaIcE
                0x00000000        0x0 /Users/Max/android-ndk-r8e/sources/cxx-stl/gnu-libstdc++/4.4.3/libs/armeabi/libgnustl_static.a(string-inst.o)
 _ZNSsC2ERKSsjjRKSaIcE
                0x00000000        0x0 /Users/Max/android-ndk-r8e/sources/cxx-stl/gnu-libstdc++/4.4.3/libs/armeabi/libgnustl_static.a(string-inst.o)
 _ZNSsC1ERKSsjj
                0x00000000        0x0 /Users/Max/android-ndk-r8e/sources/cxx-stl/gnu-libstdc++/4.4.3/libs/armeabi/libgnustl_static.a(string-inst.o)
 _ZNKSs6substrEjj
                0x00000000        0x0 /Users/Max/android-ndk-r8e/sources/cxx-stl/gnu-libstdc++/4.4.3/libs/armeabi/libgnustl_static.a(string-inst.o)
 _ZNSsC2ERKSsjj
                0x00000000        0x0 /Users/Max/android-ndk-r8e/sources/cxx-stl/gnu-libstdc++/4.4.3/libs/armeabi/libgnustl_static.a(string-inst.o)
 _ZNSsD1Ev      0x00000000        0x0 /Users/Max/android-ndk-r8e/sources/cxx-stl/gnu-libstdc++/4.4.3/libs/armeabi/libgnustl_static.a(string-inst.o)
 _ZNSsD2Ev      0x00000000        0x0 /Users/Max/android-ndk-r8e/sources/cxx-stl/gnu-libstdc++/4.4.3/libs/armeabi/libgnustl_static.a(string-inst.o)
 _ZNSs12_S_constructIN9__gnu_cxx17__normal_iteratorIPcSsEEEES2_T_S4_RKSaIcESt20forward_iterator_tag
                0x00000000        0x0 /Users/Max/android-ndk-r8e/sources/cxx-stl/gnu-libstdc++/4.4.3/libs/armeabi/libgnustl_static.a(string-inst.o)
 _ZNSsC1IN9__gnu_cxx17__normal_iteratorIPcSsEEEET_S4_RKSaIcE
                0x00000000        0x0 /Users/Max/android-ndk-r8e/sources/cxx-stl/gnu-libstdc++/4.4.3/libs/armeabi/libgnustl_static.a(string-inst.o)
 _ZNSsC2IN9__gnu_cxx17__normal_iteratorIPcSsEEEET_S4_RKSaIcE
                0x00000000        0x0 /Users/Max/android-ndk-r8e/sources/cxx-stl/gnu-libstdc++/4.4.3/libs/armeabi/libgnustl_static.a(string-inst.o)
 _ZNKSs4copyEPcjj
                0x00000000        0x0 /Users/Max/android-ndk-r8e/sources/cxx-stl/gnu-libstdc++/4.4.3/libs/armeabi/libgnustl_static.a(string-inst.o)
 _ZNSs4_Rep8_M_cloneERKSaIcEj
                0x00000000        0x0 /Users/Max/android-ndk-r8e/sources/cxx-stl/gnu-libstdc++/4.4.3/libs/armeabi/libgnustl_static.a(string-inst.o)
 _ZNSs7reserveEj
                0x00000000        0x0 /Users/Max/android-ndk-r8e/sources/cxx-stl/gnu-libstdc++/4.4.3/libs/armeabi/libgnustl_static.a(string-inst.o)
 _ZNSs9push_backEc
                0x00000000        0x0 /Users/Max/android-ndk-r8e/sources/cxx-stl/gnu-libstdc++/4.4.3/libs/armeabi/libgnustl_static.a(string-inst.o)
 _ZNSs6appendEjc
                0x00000000        0x0 /Users/Max/android-ndk-r8e/sources/cxx-stl/gnu-libstdc++/4.4.3/libs/armeabi/libgnustl_static.a(string-inst.o)
 _ZNSs6appendEPKcj
                0x00000000        0x0 /Users/Max/android-ndk-r8e/sources/cxx-stl/gnu-libstdc++/4.4.3/libs/armeabi/libgnustl_static.a(string-inst.o)
 _ZNSs6appendEPKc
                0x00000000        0x0 /Users/Max/android-ndk-r8e/sources/cxx-stl/gnu-libstdc++/4.4.3/libs/armeabi/libgnustl_static.a(string-inst.o)
 _ZNSspLEPKc    0x00000000        0x0 /Users/Max/android-ndk-r8e/sources/cxx-stl/gnu-libstdc++/4.4.3/libs/armeabi/libgnustl_static.a(string-inst.o)
 _ZNSs6appendERKSsjj
                0x00000000        0x0 /Users/Max/android-ndk-r8e/sources/cxx-stl/gnu-libstdc++/4.4.3/libs/armeabi/libgnustl_static.a(string-inst.o)
 _ZNSs6appendERKSs
                0x00000000        0x0 /Users/Max/android-ndk-r8e/sources/cxx-stl/gnu-libstdc++/4.4.3/libs/armeabi/libgnustl_static.a(string-inst.o)
 _ZNSspLERKSs   0x00000000        0x0 /Users/Max/android-ndk-r8e/sources/cxx-stl/gnu-libstdc++/4.4.3/libs/armeabi/libgnustl_static.a(string-inst.o)
 _ZStplIcSt11char_traitsIcESaIcEESbIT_T0_T1_ES3_RKS6_
                0x00000000        0x0 /Users/Max/android-ndk-r8e/sources/cxx-stl/gnu-libstdc++/4.4.3/libs/armeabi/libgnustl_static.a(string-inst.o)
 _ZStplIcSt11char_traitsIcESaIcEESbIT_T0_T1_EPKS3_RKS6_
                0x00000000        0x0 /Users/Max/android-ndk-r8e/sources/cxx-stl/gnu-libstdc++/4.4.3/libs/armeabi/libgnustl_static.a(string-inst.o)
 _ZNSspLEc      0x00000000        0x0 /Users/Max/android-ndk-r8e/sources/cxx-stl/gnu-libstdc++/4.4.3/libs/armeabi/libgnustl_static.a(string-inst.o)
 _ZNSsC2ERKSs   0x00000000        0x0 /Users/Max/android-ndk-r8e/sources/cxx-stl/gnu-libstdc++/4.4.3/libs/armeabi/libgnustl_static.a(string-inst.o)
 _ZNSs4_Rep7_M_grabERKSaIcES2_
                0x00000000        0x0 /Users/Max/android-ndk-r8e/sources/cxx-stl/gnu-libstdc++/4.4.3/libs/armeabi/libgnustl_static.a(string-inst.o)
 _ZNSsC1ERKSs   0x00000000        0x0 /Users/Max/android-ndk-r8e/sources/cxx-stl/gnu-libstdc++/4.4.3/libs/armeabi/libgnustl_static.a(string-inst.o)
 _ZStplIcSt11char_traitsIcESaIcEESbIT_T0_T1_ERKS6_S8_
                0x00000000        0x0 /Users/Max/android-ndk-r8e/sources/cxx-stl/gnu-libstdc++/4.4.3/libs/armeabi/libgnustl_static.a(string-inst.o)
 _ZNSs6assignERKSs
                0x00000000        0x0 /Users/Max/android-ndk-r8e/sources/cxx-stl/gnu-libstdc++/4.4.3/libs/armeabi/libgnustl_static.a(string-inst.o)
 _ZNSsaSERKSs   0x00000000        0x0 /Users/Max/android-ndk-r8e/sources/cxx-stl/gnu-libstdc++/4.4.3/libs/armeabi/libgnustl_static.a(string-inst.o)
 _ZNSs9_M_mutateEjjj
                0x00000000        0x0 /Users/Max/android-ndk-r8e/sources/cxx-stl/gnu-libstdc++/4.4.3/libs/armeabi/libgnustl_static.a(string-inst.o)
 _ZNSs14_M_replace_auxEjjjc
                0x00000000        0x0 /Users/Max/android-ndk-r8e/sources/cxx-stl/gnu-libstdc++/4.4.3/libs/armeabi/libgnustl_static.a(string-inst.o)
 _ZNSs7replaceEN9__gnu_cxx17__normal_iteratorIPcSsEES2_jc
                0x00000000        0x0 /Users/Max/android-ndk-r8e/sources/cxx-stl/gnu-libstdc++/4.4.3/libs/armeabi/libgnustl_static.a(string-inst.o)
 _ZNSs7replaceEjjjc
                0x00000000        0x0 /Users/Max/android-ndk-r8e/sources/cxx-stl/gnu-libstdc++/4.4.3/libs/armeabi/libgnustl_static.a(string-inst.o)
 _ZNSs6insertEN9__gnu_cxx17__normal_iteratorIPcSsEEc
                0x00000000        0x0 /Users/Max/android-ndk-r8e/sources/cxx-stl/gnu-libstdc++/4.4.3/libs/armeabi/libgnustl_static.a(string-inst.o)
 _ZNSs6insertEjjc
                0x00000000        0x0 /Users/Max/android-ndk-r8e/sources/cxx-stl/gnu-libstdc++/4.4.3/libs/armeabi/libgnustl_static.a(string-inst.o)
 _ZNSs6assignEjc
                0x00000000        0x0 /Users/Max/android-ndk-r8e/sources/cxx-stl/gnu-libstdc++/4.4.3/libs/armeabi/libgnustl_static.a(string-inst.o)
 _ZNSs6insertEN9__gnu_cxx17__normal_iteratorIPcSsEEjc
                0x00000000        0x0 /Users/Max/android-ndk-r8e/sources/cxx-stl/gnu-libstdc++/4.4.3/libs/armeabi/libgnustl_static.a(string-inst.o)
 _ZNSsaSEc      0x00000000        0x0 /Users/Max/android-ndk-r8e/sources/cxx-stl/gnu-libstdc++/4.4.3/libs/armeabi/libgnustl_static.a(string-inst.o)
 _ZNSs5eraseEN9__gnu_cxx17__normal_iteratorIPcSsEES2_
                0x00000000        0x0 /Users/Max/android-ndk-r8e/sources/cxx-stl/gnu-libstdc++/4.4.3/libs/armeabi/libgnustl_static.a(string-inst.o)
 _ZNSs5eraseEN9__gnu_cxx17__normal_iteratorIPcSsEE
                0x00000000        0x0 /Users/Max/android-ndk-r8e/sources/cxx-stl/gnu-libstdc++/4.4.3/libs/armeabi/libgnustl_static.a(string-inst.o)
 _ZNSs5eraseEjj
                0x00000000        0x0 /Users/Max/android-ndk-r8e/sources/cxx-stl/gnu-libstdc++/4.4.3/libs/armeabi/libgnustl_static.a(string-inst.o)
 _ZNSs5clearEv  0x00000000        0x0 /Users/Max/android-ndk-r8e/sources/cxx-stl/gnu-libstdc++/4.4.3/libs/armeabi/libgnustl_static.a(string-inst.o)
 _ZNSs12_M_leak_hardEv
                0x00000000        0x0 /Users/Max/android-ndk-r8e/sources/cxx-stl/gnu-libstdc++/4.4.3/libs/armeabi/libgnustl_static.a(string-inst.o)
 _ZNSs7_M_leakEv
                0x00000000        0x0 /Users/Max/android-ndk-r8e/sources/cxx-stl/gnu-libstdc++/4.4.3/libs/armeabi/libgnustl_static.a(string-inst.o)
 _ZNSsixEj      0x00000000        0x0 /Users/Max/android-ndk-r8e/sources/cxx-stl/gnu-libstdc++/4.4.3/libs/armeabi/libgnustl_static.a(string-inst.o)
 _ZNSs5beginEv  0x00000000        0x0 /Users/Max/android-ndk-r8e/sources/cxx-stl/gnu-libstdc++/4.4.3/libs/armeabi/libgnustl_static.a(string-inst.o)
 _ZNSs4rendEv   0x00000000        0x0 /Users/Max/android-ndk-r8e/sources/cxx-stl/gnu-libstdc++/4.4.3/libs/armeabi/libgnustl_static.a(string-inst.o)
 _ZNSs3endEv    0x00000000        0x0 /Users/Max/android-ndk-r8e/sources/cxx-stl/gnu-libstdc++/4.4.3/libs/armeabi/libgnustl_static.a(string-inst.o)
 _ZNSs2atEj     0x00000000        0x0 /Users/Max/android-ndk-r8e/sources/cxx-stl/gnu-libstdc++/4.4.3/libs/armeabi/libgnustl_static.a(string-inst.o)
 _ZNSs6rbeginEv
                0x00000000        0x0 /Users/Max/android-ndk-r8e/sources/cxx-stl/gnu-libstdc++/4.4.3/libs/armeabi/libgnustl_static.a(string-inst.o)
 _ZNSs15_M_replace_safeEjjPKcj
                0x00000000        0x0 /Users/Max/android-ndk-r8e/sources/cxx-stl/gnu-libstdc++/4.4.3/libs/armeabi/libgnustl_static.a(string-inst.o)
 _ZNSs6assignEPKcj
                0x00000000        0x0 /Users/Max/android-ndk-r8e/sources/cxx-stl/gnu-libstdc++/4.4.3/libs/armeabi/libgnustl_static.a(string-inst.o)
 _ZNSs6assignEPKc
                0x00000000        0x0 /Users/Max/android-ndk-r8e/sources/cxx-stl/gnu-libstdc++/4.4.3/libs/armeabi/libgnustl_static.a(string-inst.o)
 _ZNSs6assignERKSsjj
                0x00000000        0x0 /Users/Max/android-ndk-r8e/sources/cxx-stl/gnu-libstdc++/4.4.3/libs/armeabi/libgnustl_static.a(string-inst.o)
 _ZNSsaSEPKc    0x00000000        0x0 /Users/Max/android-ndk-r8e/sources/cxx-stl/gnu-libstdc++/4.4.3/libs/armeabi/libgnustl_static.a(string-inst.o)
 _ZNSs6insertEjPKcj
                0x00000000        0x0 /Users/Max/android-ndk-r8e/sources/cxx-stl/gnu-libstdc++/4.4.3/libs/armeabi/libgnustl_static.a(string-inst.o)
 _ZNSs6insertEjPKc
                0x00000000        0x0 /Users/Max/android-ndk-r8e/sources/cxx-stl/gnu-libstdc++/4.4.3/libs/armeabi/libgnustl_static.a(string-inst.o)
 _ZNSs6insertEjRKSsjj
                0x00000000        0x0 /Users/Max/android-ndk-r8e/sources/cxx-stl/gnu-libstdc++/4.4.3/libs/armeabi/libgnustl_static.a(string-inst.o)
 _ZNSs6insertEjRKSs
                0x00000000        0x0 /Users/Max/android-ndk-r8e/sources/cxx-stl/gnu-libstdc++/4.4.3/libs/armeabi/libgnustl_static.a(string-inst.o)
 _ZNSs6resizeEjc
                0x00000000        0x0 /Users/Max/android-ndk-r8e/sources/cxx-stl/gnu-libstdc++/4.4.3/libs/armeabi/libgnustl_static.a(string-inst.o)
 _ZNSs6resizeEj
                0x00000000        0x0 /Users/Max/android-ndk-r8e/sources/cxx-stl/gnu-libstdc++/4.4.3/libs/armeabi/libgnustl_static.a(string-inst.o)
 _ZNSs12_S_constructEjcRKSaIcE
                0x00000000        0x0 /Users/Max/android-ndk-r8e/sources/cxx-stl/gnu-libstdc++/4.4.3/libs/armeabi/libgnustl_static.a(string-inst.o)
 _ZNSsC1EjcRKSaIcE
                0x00000000        0x0 /Users/Max/android-ndk-r8e/sources/cxx-stl/gnu-libstdc++/4.4.3/libs/armeabi/libgnustl_static.a(string-inst.o)
 _ZNSsC2EjcRKSaIcE
                0x00000000        0x0 /Users/Max/android-ndk-r8e/sources/cxx-stl/gnu-libstdc++/4.4.3/libs/armeabi/libgnustl_static.a(string-inst.o)
 _ZNSsC1ERKSaIcE
                0x00000000        0x0 /Users/Max/android-ndk-r8e/sources/cxx-stl/gnu-libstdc++/4.4.3/libs/armeabi/libgnustl_static.a(string-inst.o)
 _ZNSsC2ERKSaIcE
                0x00000000        0x0 /Users/Max/android-ndk-r8e/sources/cxx-stl/gnu-libstdc++/4.4.3/libs/armeabi/libgnustl_static.a(string-inst.o)
 _ZNSs7replaceEjjPKcj
                0x00000000        0x0 /Users/Max/android-ndk-r8e/sources/cxx-stl/gnu-libstdc++/4.4.3/libs/armeabi/libgnustl_static.a(string-inst.o)
 _ZNSs7replaceEN9__gnu_cxx17__normal_iteratorIPcSsEES2_NS0_IPKcSsEES5_
                0x00000000        0x0 /Users/Max/android-ndk-r8e/sources/cxx-stl/gnu-libstdc++/4.4.3/libs/armeabi/libgnustl_static.a(string-inst.o)
 _ZNSs7replaceEN9__gnu_cxx17__normal_iteratorIPcSsEES2_S2_S2_
                0x00000000        0x0 /Users/Max/android-ndk-r8e/sources/cxx-stl/gnu-libstdc++/4.4.3/libs/armeabi/libgnustl_static.a(string-inst.o)
 _ZNSs7replaceEN9__gnu_cxx17__normal_iteratorIPcSsEES2_PKcS4_
                0x00000000        0x0 /Users/Max/android-ndk-r8e/sources/cxx-stl/gnu-libstdc++/4.4.3/libs/armeabi/libgnustl_static.a(string-inst.o)
 _ZNSs7replaceEN9__gnu_cxx17__normal_iteratorIPcSsEES2_S1_S1_
                0x00000000        0x0 /Users/Max/android-ndk-r8e/sources/cxx-stl/gnu-libstdc++/4.4.3/libs/armeabi/libgnustl_static.a(string-inst.o)
 _ZNSs7replaceEN9__gnu_cxx17__normal_iteratorIPcSsEES2_PKcj
                0x00000000        0x0 /Users/Max/android-ndk-r8e/sources/cxx-stl/gnu-libstdc++/4.4.3/libs/armeabi/libgnustl_static.a(string-inst.o)
 _ZNSs7replaceEjjPKc
                0x00000000        0x0 /Users/Max/android-ndk-r8e/sources/cxx-stl/gnu-libstdc++/4.4.3/libs/armeabi/libgnustl_static.a(string-inst.o)
 _ZNSs7replaceEjjRKSsjj
                0x00000000        0x0 /Users/Max/android-ndk-r8e/sources/cxx-stl/gnu-libstdc++/4.4.3/libs/armeabi/libgnustl_static.a(string-inst.o)
 _ZNSs7replaceEjjRKSs
                0x00000000        0x0 /Users/Max/android-ndk-r8e/sources/cxx-stl/gnu-libstdc++/4.4.3/libs/armeabi/libgnustl_static.a(string-inst.o)
 _ZNSs7replaceEN9__gnu_cxx17__normal_iteratorIPcSsEES2_RKSs
                0x00000000        0x0 /Users/Max/android-ndk-r8e/sources/cxx-stl/gnu-libstdc++/4.4.3/libs/armeabi/libgnustl_static.a(string-inst.o)
 _ZNSs7replaceEN9__gnu_cxx17__normal_iteratorIPcSsEES2_PKc
                0x00000000        0x0 /Users/Max/android-ndk-r8e/sources/cxx-stl/gnu-libstdc++/4.4.3/libs/armeabi/libgnustl_static.a(string-inst.o)
 _ZNSs7replaceEN9__gnu_cxx17__normal_iteratorIPcSsEES2_St16initializer_listIcE
                0x00000000        0x0 /Users/Max/android-ndk-r8e/sources/cxx-stl/gnu-libstdc++/4.4.3/libs/armeabi/libgnustl_static.a(string-inst.o)
 _ZNSs6insertEN9__gnu_cxx17__normal_iteratorIPcSsEESt16initializer_listIcE
                0x00000000        0x0 /Users/Max/android-ndk-r8e/sources/cxx-stl/gnu-libstdc++/4.4.3/libs/armeabi/libgnustl_static.a(string-inst.o)
 _ZNSs6assignESt16initializer_listIcE
                0x00000000        0x0 /Users/Max/android-ndk-r8e/sources/cxx-stl/gnu-libstdc++/4.4.3/libs/armeabi/libgnustl_static.a(string-inst.o)
 _ZNSsaSESt16initializer_listIcE
                0x00000000        0x0 /Users/Max/android-ndk-r8e/sources/cxx-stl/gnu-libstdc++/4.4.3/libs/armeabi/libgnustl_static.a(string-inst.o)
 _ZNSs6appendESt16initializer_listIcE
                0x00000000        0x0 /Users/Max/android-ndk-r8e/sources/cxx-stl/gnu-libstdc++/4.4.3/libs/armeabi/libgnustl_static.a(string-inst.o)
 _ZNSspLESt16initializer_listIcE
                0x00000000        0x0 /Users/Max/android-ndk-r8e/sources/cxx-stl/gnu-libstdc++/4.4.3/libs/armeabi/libgnustl_static.a(string-inst.o)
 _ZNSs4nposE    0x00000000        0x0 /Users/Max/android-ndk-r8e/sources/cxx-stl/gnu-libstdc++/4.4.3/libs/armeabi/libgnustl_static.a(string-inst.o)
 _ZNSs4_Rep11_S_max_sizeE
                0x00000000        0x0 /Users/Max/android-ndk-r8e/sources/cxx-stl/gnu-libstdc++/4.4.3/libs/armeabi/libgnustl_static.a(string-inst.o)
 _ZNSs4_Rep11_S_terminalE
                0x00000000        0x0 /Users/Max/android-ndk-r8e/sources/cxx-stl/gnu-libstdc++/4.4.3/libs/armeabi/libgnustl_static.a(string-inst.o)
 _ZNSs4_Rep20_S_empty_rep_storageE
                0x00000000        0x0 /Users/Max/android-ndk-r8e/sources/cxx-stl/gnu-libstdc++/4.4.3/libs/armeabi/libgnustl_static.a(string-inst.o)
 .note.GNU-stack
                0x00000000        0x0 /Users/Max/android-ndk-r8e/sources/cxx-stl/gnu-libstdc++/4.4.3/libs/armeabi/libgnustl_static.a(string-inst.o)
 _ZNK9__gnu_cxx24__concurrence_lock_error4whatEv
                0x00000000        0x0 /Users/Max/android-ndk-r8e/sources/cxx-stl/gnu-libstdc++/4.4.3/libs/armeabi/libgnustl_static.a(atomicity.o)
 _ZNK9__gnu_cxx26__concurrence_unlock_error4whatEv
                0x00000000        0x0 /Users/Max/android-ndk-r8e/sources/cxx-stl/gnu-libstdc++/4.4.3/libs/armeabi/libgnustl_static.a(atomicity.o)
 _ZN9__gnu_cxx24__concurrence_lock_errorD1Ev
                0x00000000        0x0 /Users/Max/android-ndk-r8e/sources/cxx-stl/gnu-libstdc++/4.4.3/libs/armeabi/libgnustl_static.a(atomicity.o)
 _ZN9__gnu_cxx26__concurrence_unlock_errorD1Ev
                0x00000000        0x0 /Users/Max/android-ndk-r8e/sources/cxx-stl/gnu-libstdc++/4.4.3/libs/armeabi/libgnustl_static.a(atomicity.o)
 _ZN9__gnu_cxx26__concurrence_unlock_errorD0Ev
                0x00000000        0x0 /Users/Max/android-ndk-r8e/sources/cxx-stl/gnu-libstdc++/4.4.3/libs/armeabi/libgnustl_static.a(atomicity.o)
 _ZN9__gnu_cxx24__concurrence_lock_errorD0Ev
                0x00000000        0x0 /Users/Max/android-ndk-r8e/sources/cxx-stl/gnu-libstdc++/4.4.3/libs/armeabi/libgnustl_static.a(atomicity.o)
 _ZTIN9__gnu_cxx24__concurrence_lock_errorE
                0x00000000        0x0 /Users/Max/android-ndk-r8e/sources/cxx-stl/gnu-libstdc++/4.4.3/libs/armeabi/libgnustl_static.a(atomicity.o)
 _ZTSN9__gnu_cxx24__concurrence_lock_errorE
                0x00000000        0x0 /Users/Max/android-ndk-r8e/sources/cxx-stl/gnu-libstdc++/4.4.3/libs/armeabi/libgnustl_static.a(atomicity.o)
 _ZTVN9__gnu_cxx24__concurrence_lock_errorE
                0x00000000        0x0 /Users/Max/android-ndk-r8e/sources/cxx-stl/gnu-libstdc++/4.4.3/libs/armeabi/libgnustl_static.a(atomicity.o)
 _ZTIN9__gnu_cxx26__concurrence_unlock_errorE
                0x00000000        0x0 /Users/Max/android-ndk-r8e/sources/cxx-stl/gnu-libstdc++/4.4.3/libs/armeabi/libgnustl_static.a(atomicity.o)
 _ZTSN9__gnu_cxx26__concurrence_unlock_errorE
                0x00000000        0x0 /Users/Max/android-ndk-r8e/sources/cxx-stl/gnu-libstdc++/4.4.3/libs/armeabi/libgnustl_static.a(atomicity.o)
 _ZTVN9__gnu_cxx26__concurrence_unlock_errorE
                0x00000000        0x0 /Users/Max/android-ndk-r8e/sources/cxx-stl/gnu-libstdc++/4.4.3/libs/armeabi/libgnustl_static.a(atomicity.o)
 .note.GNU-stack
                0x00000000        0x0 /Users/Max/android-ndk-r8e/sources/cxx-stl/gnu-libstdc++/4.4.3/libs/armeabi/libgnustl_static.a(atomicity.o)
 .note.GNU-stack
                0x00000000        0x0 /Users/Max/android-ndk-r8e/sources/cxx-stl/gnu-libstdc++/4.4.3/libs/armeabi/libgnustl_static.a(atexit_arm.o)
 .note.GNU-stack
                0x00000000        0x0 /Users/Max/android-ndk-r8e/sources/cxx-stl/gnu-libstdc++/4.4.3/libs/armeabi/libgnustl_static.a(del_op.o)
 _ZNK9__gnu_cxx24__concurrence_lock_error4whatEv
                0x00000000        0x0 /Users/Max/android-ndk-r8e/sources/cxx-stl/gnu-libstdc++/4.4.3/libs/armeabi/libgnustl_static.a(eh_alloc.o)
 _ZNK9__gnu_cxx26__concurrence_unlock_error4whatEv
                0x00000000        0x0 /Users/Max/android-ndk-r8e/sources/cxx-stl/gnu-libstdc++/4.4.3/libs/armeabi/libgnustl_static.a(eh_alloc.o)
 _ZN9__gnu_cxx24__concurrence_lock_errorD1Ev
                0x00000000        0x0 /Users/Max/android-ndk-r8e/sources/cxx-stl/gnu-libstdc++/4.4.3/libs/armeabi/libgnustl_static.a(eh_alloc.o)
 _ZN9__gnu_cxx26__concurrence_unlock_errorD1Ev
                0x00000000        0x0 /Users/Max/android-ndk-r8e/sources/cxx-stl/gnu-libstdc++/4.4.3/libs/armeabi/libgnustl_static.a(eh_alloc.o)
 _ZN9__gnu_cxx13__scoped_lockD1Ev
                0x00000000        0x0 /Users/Max/android-ndk-r8e/sources/cxx-stl/gnu-libstdc++/4.4.3/libs/armeabi/libgnustl_static.a(eh_alloc.o)
 _ZN9__gnu_cxx26__concurrence_unlock_errorD0Ev
                0x00000000        0x0 /Users/Max/android-ndk-r8e/sources/cxx-stl/gnu-libstdc++/4.4.3/libs/armeabi/libgnustl_static.a(eh_alloc.o)
 _ZN9__gnu_cxx24__concurrence_lock_errorD0Ev
                0x00000000        0x0 /Users/Max/android-ndk-r8e/sources/cxx-stl/gnu-libstdc++/4.4.3/libs/armeabi/libgnustl_static.a(eh_alloc.o)
 _ZTIN9__gnu_cxx24__concurrence_lock_errorE
                0x00000000        0x0 /Users/Max/android-ndk-r8e/sources/cxx-stl/gnu-libstdc++/4.4.3/libs/armeabi/libgnustl_static.a(eh_alloc.o)
 _ZTSN9__gnu_cxx24__concurrence_lock_errorE
                0x00000000        0x0 /Users/Max/android-ndk-r8e/sources/cxx-stl/gnu-libstdc++/4.4.3/libs/armeabi/libgnustl_static.a(eh_alloc.o)
 _ZTVN9__gnu_cxx24__concurrence_lock_errorE
                0x00000000        0x0 /Users/Max/android-ndk-r8e/sources/cxx-stl/gnu-libstdc++/4.4.3/libs/armeabi/libgnustl_static.a(eh_alloc.o)
 _ZTIN9__gnu_cxx26__concurrence_unlock_errorE
                0x00000000        0x0 /Users/Max/android-ndk-r8e/sources/cxx-stl/gnu-libstdc++/4.4.3/libs/armeabi/libgnustl_static.a(eh_alloc.o)
 _ZTSN9__gnu_cxx26__concurrence_unlock_errorE
                0x00000000        0x0 /Users/Max/android-ndk-r8e/sources/cxx-stl/gnu-libstdc++/4.4.3/libs/armeabi/libgnustl_static.a(eh_alloc.o)
 _ZTVN9__gnu_cxx26__concurrence_unlock_errorE
                0x00000000        0x0 /Users/Max/android-ndk-r8e/sources/cxx-stl/gnu-libstdc++/4.4.3/libs/armeabi/libgnustl_static.a(eh_alloc.o)
 .text._ZNK9__gnu_cxx24__concurrence_lock_error4whatEv
                0x00000000        0x0 /Users/Max/android-ndk-r8e/sources/cxx-stl/gnu-libstdc++/4.4.3/libs/armeabi/libgnustl_static.a(eh_alloc.o)
 .ARM.extab.text._ZNK9__gnu_cxx24__concurrence_lock_error4whatEv
                0x00000000        0x0 /Users/Max/android-ndk-r8e/sources/cxx-stl/gnu-libstdc++/4.4.3/libs/armeabi/libgnustl_static.a(eh_alloc.o)
 .ARM.exidx.text._ZNK9__gnu_cxx24__concurrence_lock_error4whatEv
                0x00000000        0x0 /Users/Max/android-ndk-r8e/sources/cxx-stl/gnu-libstdc++/4.4.3/libs/armeabi/libgnustl_static.a(eh_alloc.o)
 .text._ZNK9__gnu_cxx26__concurrence_unlock_error4whatEv
                0x00000000        0x0 /Users/Max/android-ndk-r8e/sources/cxx-stl/gnu-libstdc++/4.4.3/libs/armeabi/libgnustl_static.a(eh_alloc.o)
 .ARM.extab.text._ZNK9__gnu_cxx26__concurrence_unlock_error4whatEv
                0x00000000        0x0 /Users/Max/android-ndk-r8e/sources/cxx-stl/gnu-libstdc++/4.4.3/libs/armeabi/libgnustl_static.a(eh_alloc.o)
 .ARM.exidx.text._ZNK9__gnu_cxx26__concurrence_unlock_error4whatEv
                0x00000000        0x0 /Users/Max/android-ndk-r8e/sources/cxx-stl/gnu-libstdc++/4.4.3/libs/armeabi/libgnustl_static.a(eh_alloc.o)
 .text._ZN9__gnu_cxx24__concurrence_lock_errorD1Ev
                0x00000000        0x0 /Users/Max/android-ndk-r8e/sources/cxx-stl/gnu-libstdc++/4.4.3/libs/armeabi/libgnustl_static.a(eh_alloc.o)
 .ARM.extab.text._ZN9__gnu_cxx24__concurrence_lock_errorD1Ev
                0x00000000        0x0 /Users/Max/android-ndk-r8e/sources/cxx-stl/gnu-libstdc++/4.4.3/libs/armeabi/libgnustl_static.a(eh_alloc.o)
 .ARM.exidx.text._ZN9__gnu_cxx24__concurrence_lock_errorD1Ev
                0x00000000        0x0 /Users/Max/android-ndk-r8e/sources/cxx-stl/gnu-libstdc++/4.4.3/libs/armeabi/libgnustl_static.a(eh_alloc.o)
 .text._ZN9__gnu_cxx26__concurrence_unlock_errorD1Ev
                0x00000000        0x0 /Users/Max/android-ndk-r8e/sources/cxx-stl/gnu-libstdc++/4.4.3/libs/armeabi/libgnustl_static.a(eh_alloc.o)
 .ARM.extab.text._ZN9__gnu_cxx26__concurrence_unlock_errorD1Ev
                0x00000000        0x0 /Users/Max/android-ndk-r8e/sources/cxx-stl/gnu-libstdc++/4.4.3/libs/armeabi/libgnustl_static.a(eh_alloc.o)
 .ARM.exidx.text._ZN9__gnu_cxx26__concurrence_unlock_errorD1Ev
                0x00000000        0x0 /Users/Max/android-ndk-r8e/sources/cxx-stl/gnu-libstdc++/4.4.3/libs/armeabi/libgnustl_static.a(eh_alloc.o)
 .text._ZN9__gnu_cxx26__concurrence_unlock_errorD0Ev
                0x00000000        0x0 /Users/Max/android-ndk-r8e/sources/cxx-stl/gnu-libstdc++/4.4.3/libs/armeabi/libgnustl_static.a(eh_alloc.o)
 .ARM.extab.text._ZN9__gnu_cxx26__concurrence_unlock_errorD0Ev
                0x00000000        0x0 /Users/Max/android-ndk-r8e/sources/cxx-stl/gnu-libstdc++/4.4.3/libs/armeabi/libgnustl_static.a(eh_alloc.o)
 .ARM.exidx.text._ZN9__gnu_cxx26__concurrence_unlock_errorD0Ev
                0x00000000        0x0 /Users/Max/android-ndk-r8e/sources/cxx-stl/gnu-libstdc++/4.4.3/libs/armeabi/libgnustl_static.a(eh_alloc.o)
 .text._ZN9__gnu_cxx24__concurrence_lock_errorD0Ev
                0x00000000        0x0 /Users/Max/android-ndk-r8e/sources/cxx-stl/gnu-libstdc++/4.4.3/libs/armeabi/libgnustl_static.a(eh_alloc.o)
 .ARM.extab.text._ZN9__gnu_cxx24__concurrence_lock_errorD0Ev
                0x00000000        0x0 /Users/Max/android-ndk-r8e/sources/cxx-stl/gnu-libstdc++/4.4.3/libs/armeabi/libgnustl_static.a(eh_alloc.o)
 .ARM.exidx.text._ZN9__gnu_cxx24__concurrence_lock_errorD0Ev
                0x00000000        0x0 /Users/Max/android-ndk-r8e/sources/cxx-stl/gnu-libstdc++/4.4.3/libs/armeabi/libgnustl_static.a(eh_alloc.o)
 .data.rel.ro._ZTIN9__gnu_cxx24__concurrence_lock_errorE
                0x00000000        0x0 /Users/Max/android-ndk-r8e/sources/cxx-stl/gnu-libstdc++/4.4.3/libs/armeabi/libgnustl_static.a(eh_alloc.o)
 .rodata._ZTSN9__gnu_cxx24__concurrence_lock_errorE
                0x00000000        0x0 /Users/Max/android-ndk-r8e/sources/cxx-stl/gnu-libstdc++/4.4.3/libs/armeabi/libgnustl_static.a(eh_alloc.o)
 .data.rel.ro._ZTVN9__gnu_cxx24__concurrence_lock_errorE
                0x00000000        0x0 /Users/Max/android-ndk-r8e/sources/cxx-stl/gnu-libstdc++/4.4.3/libs/armeabi/libgnustl_static.a(eh_alloc.o)
 .data.rel.ro._ZTIN9__gnu_cxx26__concurrence_unlock_errorE
                0x00000000        0x0 /Users/Max/android-ndk-r8e/sources/cxx-stl/gnu-libstdc++/4.4.3/libs/armeabi/libgnustl_static.a(eh_alloc.o)
 .rodata._ZTSN9__gnu_cxx26__concurrence_unlock_errorE
                0x00000000        0x0 /Users/Max/android-ndk-r8e/sources/cxx-stl/gnu-libstdc++/4.4.3/libs/armeabi/libgnustl_static.a(eh_alloc.o)
 .data.rel.ro._ZTVN9__gnu_cxx26__concurrence_unlock_errorE
                0x00000000        0x0 /Users/Max/android-ndk-r8e/sources/cxx-stl/gnu-libstdc++/4.4.3/libs/armeabi/libgnustl_static.a(eh_alloc.o)
 .note.GNU-stack
                0x00000000        0x0 /Users/Max/android-ndk-r8e/sources/cxx-stl/gnu-libstdc++/4.4.3/libs/armeabi/libgnustl_static.a(eh_alloc.o)
 .note.GNU-stack
                0x00000000        0x0 /Users/Max/android-ndk-r8e/sources/cxx-stl/gnu-libstdc++/4.4.3/libs/armeabi/libgnustl_static.a(eh_arm.o)
 .note.GNU-stack
                0x00000000        0x0 /Users/Max/android-ndk-r8e/sources/cxx-stl/gnu-libstdc++/4.4.3/libs/armeabi/libgnustl_static.a(eh_aux_runtime.o)
 .note.GNU-stack
                0x00000000        0x0 /Users/Max/android-ndk-r8e/sources/cxx-stl/gnu-libstdc++/4.4.3/libs/armeabi/libgnustl_static.a(eh_call.o)
 .note.GNU-stack
                0x00000000        0x0 /Users/Max/android-ndk-r8e/sources/cxx-stl/gnu-libstdc++/4.4.3/libs/armeabi/libgnustl_static.a(eh_catch.o)
 .note.GNU-stack
                0x00000000        0x0 /Users/Max/android-ndk-r8e/sources/cxx-stl/gnu-libstdc++/4.4.3/libs/armeabi/libgnustl_static.a(eh_exception.o)
 _ZN17__eh_globals_initD1Ev
                0x00000000        0x0 /Users/Max/android-ndk-r8e/sources/cxx-stl/gnu-libstdc++/4.4.3/libs/armeabi/libgnustl_static.a(eh_globals.o)
 .note.GNU-stack
                0x00000000        0x0 /Users/Max/android-ndk-r8e/sources/cxx-stl/gnu-libstdc++/4.4.3/libs/armeabi/libgnustl_static.a(eh_globals.o)
 .note.GNU-stack
                0x00000000        0x0 /Users/Max/android-ndk-r8e/sources/cxx-stl/gnu-libstdc++/4.4.3/libs/armeabi/libgnustl_static.a(eh_personality.o)
 .note.GNU-stack
                0x00000000        0x0 /Users/Max/android-ndk-r8e/sources/cxx-stl/gnu-libstdc++/4.4.3/libs/armeabi/libgnustl_static.a(eh_terminate.o)
 .note.GNU-stack
                0x00000000        0x0 /Users/Max/android-ndk-r8e/sources/cxx-stl/gnu-libstdc++/4.4.3/libs/armeabi/libgnustl_static.a(eh_throw.o)
 .note.GNU-stack
                0x00000000        0x0 /Users/Max/android-ndk-r8e/sources/cxx-stl/gnu-libstdc++/4.4.3/libs/armeabi/libgnustl_static.a(eh_unex_handler.o)
 _ZTIPKe        0x00000000        0x0 /Users/Max/android-ndk-r8e/sources/cxx-stl/gnu-libstdc++/4.4.3/libs/armeabi/libgnustl_static.a(fundamental_type_info.o)
 _ZTIPe         0x00000000        0x0 /Users/Max/android-ndk-r8e/sources/cxx-stl/gnu-libstdc++/4.4.3/libs/armeabi/libgnustl_static.a(fundamental_type_info.o)
 _ZTIe          0x00000000        0x0 /Users/Max/android-ndk-r8e/sources/cxx-stl/gnu-libstdc++/4.4.3/libs/armeabi/libgnustl_static.a(fundamental_type_info.o)
 _ZTIPKd        0x00000000        0x0 /Users/Max/android-ndk-r8e/sources/cxx-stl/gnu-libstdc++/4.4.3/libs/armeabi/libgnustl_static.a(fundamental_type_info.o)
 _ZTIPd         0x00000000        0x0 /Users/Max/android-ndk-r8e/sources/cxx-stl/gnu-libstdc++/4.4.3/libs/armeabi/libgnustl_static.a(fundamental_type_info.o)
 _ZTId          0x00000000        0x0 /Users/Max/android-ndk-r8e/sources/cxx-stl/gnu-libstdc++/4.4.3/libs/armeabi/libgnustl_static.a(fundamental_type_info.o)
 _ZTIPKf        0x00000000        0x0 /Users/Max/android-ndk-r8e/sources/cxx-stl/gnu-libstdc++/4.4.3/libs/armeabi/libgnustl_static.a(fundamental_type_info.o)
 _ZTIPf         0x00000000        0x0 /Users/Max/android-ndk-r8e/sources/cxx-stl/gnu-libstdc++/4.4.3/libs/armeabi/libgnustl_static.a(fundamental_type_info.o)
 _ZTIf          0x00000000        0x0 /Users/Max/android-ndk-r8e/sources/cxx-stl/gnu-libstdc++/4.4.3/libs/armeabi/libgnustl_static.a(fundamental_type_info.o)
 _ZTIPKy        0x00000000        0x0 /Users/Max/android-ndk-r8e/sources/cxx-stl/gnu-libstdc++/4.4.3/libs/armeabi/libgnustl_static.a(fundamental_type_info.o)
 _ZTIPy         0x00000000        0x0 /Users/Max/android-ndk-r8e/sources/cxx-stl/gnu-libstdc++/4.4.3/libs/armeabi/libgnustl_static.a(fundamental_type_info.o)
 _ZTIy          0x00000000        0x0 /Users/Max/android-ndk-r8e/sources/cxx-stl/gnu-libstdc++/4.4.3/libs/armeabi/libgnustl_static.a(fundamental_type_info.o)
 _ZTIPKx        0x00000000        0x0 /Users/Max/android-ndk-r8e/sources/cxx-stl/gnu-libstdc++/4.4.3/libs/armeabi/libgnustl_static.a(fundamental_type_info.o)
 _ZTIPx         0x00000000        0x0 /Users/Max/android-ndk-r8e/sources/cxx-stl/gnu-libstdc++/4.4.3/libs/armeabi/libgnustl_static.a(fundamental_type_info.o)
 _ZTIx          0x00000000        0x0 /Users/Max/android-ndk-r8e/sources/cxx-stl/gnu-libstdc++/4.4.3/libs/armeabi/libgnustl_static.a(fundamental_type_info.o)
 _ZTIPKm        0x00000000        0x0 /Users/Max/android-ndk-r8e/sources/cxx-stl/gnu-libstdc++/4.4.3/libs/armeabi/libgnustl_static.a(fundamental_type_info.o)
 _ZTIPm         0x00000000        0x0 /Users/Max/android-ndk-r8e/sources/cxx-stl/gnu-libstdc++/4.4.3/libs/armeabi/libgnustl_static.a(fundamental_type_info.o)
 _ZTIm          0x00000000        0x0 /Users/Max/android-ndk-r8e/sources/cxx-stl/gnu-libstdc++/4.4.3/libs/armeabi/libgnustl_static.a(fundamental_type_info.o)
 _ZTIPKl        0x00000000        0x0 /Users/Max/android-ndk-r8e/sources/cxx-stl/gnu-libstdc++/4.4.3/libs/armeabi/libgnustl_static.a(fundamental_type_info.o)
 _ZTIPl         0x00000000        0x0 /Users/Max/android-ndk-r8e/sources/cxx-stl/gnu-libstdc++/4.4.3/libs/armeabi/libgnustl_static.a(fundamental_type_info.o)
 _ZTIl          0x00000000        0x0 /Users/Max/android-ndk-r8e/sources/cxx-stl/gnu-libstdc++/4.4.3/libs/armeabi/libgnustl_static.a(fundamental_type_info.o)
 _ZTIPKj        0x00000000        0x0 /Users/Max/android-ndk-r8e/sources/cxx-stl/gnu-libstdc++/4.4.3/libs/armeabi/libgnustl_static.a(fundamental_type_info.o)
 _ZTIPj         0x00000000        0x0 /Users/Max/android-ndk-r8e/sources/cxx-stl/gnu-libstdc++/4.4.3/libs/armeabi/libgnustl_static.a(fundamental_type_info.o)
 _ZTIj          0x00000000        0x0 /Users/Max/android-ndk-r8e/sources/cxx-stl/gnu-libstdc++/4.4.3/libs/armeabi/libgnustl_static.a(fundamental_type_info.o)
 _ZTIPKi        0x00000000        0x0 /Users/Max/android-ndk-r8e/sources/cxx-stl/gnu-libstdc++/4.4.3/libs/armeabi/libgnustl_static.a(fundamental_type_info.o)
 _ZTIPi         0x00000000        0x0 /Users/Max/android-ndk-r8e/sources/cxx-stl/gnu-libstdc++/4.4.3/libs/armeabi/libgnustl_static.a(fundamental_type_info.o)
 _ZTIi          0x00000000        0x0 /Users/Max/android-ndk-r8e/sources/cxx-stl/gnu-libstdc++/4.4.3/libs/armeabi/libgnustl_static.a(fundamental_type_info.o)
 _ZTIPKt        0x00000000        0x0 /Users/Max/android-ndk-r8e/sources/cxx-stl/gnu-libstdc++/4.4.3/libs/armeabi/libgnustl_static.a(fundamental_type_info.o)
 _ZTIPt         0x00000000        0x0 /Users/Max/android-ndk-r8e/sources/cxx-stl/gnu-libstdc++/4.4.3/libs/armeabi/libgnustl_static.a(fundamental_type_info.o)
 _ZTIt          0x00000000        0x0 /Users/Max/android-ndk-r8e/sources/cxx-stl/gnu-libstdc++/4.4.3/libs/armeabi/libgnustl_static.a(fundamental_type_info.o)
 _ZTIPKs        0x00000000        0x0 /Users/Max/android-ndk-r8e/sources/cxx-stl/gnu-libstdc++/4.4.3/libs/armeabi/libgnustl_static.a(fundamental_type_info.o)
 _ZTIPs         0x00000000        0x0 /Users/Max/android-ndk-r8e/sources/cxx-stl/gnu-libstdc++/4.4.3/libs/armeabi/libgnustl_static.a(fundamental_type_info.o)
 _ZTIs          0x00000000        0x0 /Users/Max/android-ndk-r8e/sources/cxx-stl/gnu-libstdc++/4.4.3/libs/armeabi/libgnustl_static.a(fundamental_type_info.o)
 _ZTIPKh        0x00000000        0x0 /Users/Max/android-ndk-r8e/sources/cxx-stl/gnu-libstdc++/4.4.3/libs/armeabi/libgnustl_static.a(fundamental_type_info.o)
 _ZTIPh         0x00000000        0x0 /Users/Max/android-ndk-r8e/sources/cxx-stl/gnu-libstdc++/4.4.3/libs/armeabi/libgnustl_static.a(fundamental_type_info.o)
 _ZTIh          0x00000000        0x0 /Users/Max/android-ndk-r8e/sources/cxx-stl/gnu-libstdc++/4.4.3/libs/armeabi/libgnustl_static.a(fundamental_type_info.o)
 _ZTIPKa        0x00000000        0x0 /Users/Max/android-ndk-r8e/sources/cxx-stl/gnu-libstdc++/4.4.3/libs/armeabi/libgnustl_static.a(fundamental_type_info.o)
 _ZTIPa         0x00000000        0x0 /Users/Max/android-ndk-r8e/sources/cxx-stl/gnu-libstdc++/4.4.3/libs/armeabi/libgnustl_static.a(fundamental_type_info.o)
 _ZTIa          0x00000000        0x0 /Users/Max/android-ndk-r8e/sources/cxx-stl/gnu-libstdc++/4.4.3/libs/armeabi/libgnustl_static.a(fundamental_type_info.o)
 _ZTIPKc        0x00000000        0x0 /Users/Max/android-ndk-r8e/sources/cxx-stl/gnu-libstdc++/4.4.3/libs/armeabi/libgnustl_static.a(fundamental_type_info.o)
 _ZTIPc         0x00000000        0x0 /Users/Max/android-ndk-r8e/sources/cxx-stl/gnu-libstdc++/4.4.3/libs/armeabi/libgnustl_static.a(fundamental_type_info.o)
 _ZTIc          0x00000000        0x0 /Users/Max/android-ndk-r8e/sources/cxx-stl/gnu-libstdc++/4.4.3/libs/armeabi/libgnustl_static.a(fundamental_type_info.o)
 _ZTIPKDi       0x00000000        0x0 /Users/Max/android-ndk-r8e/sources/cxx-stl/gnu-libstdc++/4.4.3/libs/armeabi/libgnustl_static.a(fundamental_type_info.o)
 _ZTIPDi        0x00000000        0x0 /Users/Max/android-ndk-r8e/sources/cxx-stl/gnu-libstdc++/4.4.3/libs/armeabi/libgnustl_static.a(fundamental_type_info.o)
 _ZTIDi         0x00000000        0x0 /Users/Max/android-ndk-r8e/sources/cxx-stl/gnu-libstdc++/4.4.3/libs/armeabi/libgnustl_static.a(fundamental_type_info.o)
 _ZTIPKDs       0x00000000        0x0 /Users/Max/android-ndk-r8e/sources/cxx-stl/gnu-libstdc++/4.4.3/libs/armeabi/libgnustl_static.a(fundamental_type_info.o)
 _ZTIPDs        0x00000000        0x0 /Users/Max/android-ndk-r8e/sources/cxx-stl/gnu-libstdc++/4.4.3/libs/armeabi/libgnustl_static.a(fundamental_type_info.o)
 _ZTIDs         0x00000000        0x0 /Users/Max/android-ndk-r8e/sources/cxx-stl/gnu-libstdc++/4.4.3/libs/armeabi/libgnustl_static.a(fundamental_type_info.o)
 _ZTIPKw        0x00000000        0x0 /Users/Max/android-ndk-r8e/sources/cxx-stl/gnu-libstdc++/4.4.3/libs/armeabi/libgnustl_static.a(fundamental_type_info.o)
 _ZTIPw         0x00000000        0x0 /Users/Max/android-ndk-r8e/sources/cxx-stl/gnu-libstdc++/4.4.3/libs/armeabi/libgnustl_static.a(fundamental_type_info.o)
 _ZTIw          0x00000000        0x0 /Users/Max/android-ndk-r8e/sources/cxx-stl/gnu-libstdc++/4.4.3/libs/armeabi/libgnustl_static.a(fundamental_type_info.o)
 _ZTIPKb        0x00000000        0x0 /Users/Max/android-ndk-r8e/sources/cxx-stl/gnu-libstdc++/4.4.3/libs/armeabi/libgnustl_static.a(fundamental_type_info.o)
 _ZTIPb         0x00000000        0x0 /Users/Max/android-ndk-r8e/sources/cxx-stl/gnu-libstdc++/4.4.3/libs/armeabi/libgnustl_static.a(fundamental_type_info.o)
 _ZTIb          0x00000000        0x0 /Users/Max/android-ndk-r8e/sources/cxx-stl/gnu-libstdc++/4.4.3/libs/armeabi/libgnustl_static.a(fundamental_type_info.o)
 _ZTIPKv        0x00000000        0x0 /Users/Max/android-ndk-r8e/sources/cxx-stl/gnu-libstdc++/4.4.3/libs/armeabi/libgnustl_static.a(fundamental_type_info.o)
 _ZTIPv         0x00000000        0x0 /Users/Max/android-ndk-r8e/sources/cxx-stl/gnu-libstdc++/4.4.3/libs/armeabi/libgnustl_static.a(fundamental_type_info.o)
 _ZTIv          0x00000000        0x0 /Users/Max/android-ndk-r8e/sources/cxx-stl/gnu-libstdc++/4.4.3/libs/armeabi/libgnustl_static.a(fundamental_type_info.o)
 _ZTSPKe        0x00000000        0x0 /Users/Max/android-ndk-r8e/sources/cxx-stl/gnu-libstdc++/4.4.3/libs/armeabi/libgnustl_static.a(fundamental_type_info.o)
 _ZTSPe         0x00000000        0x0 /Users/Max/android-ndk-r8e/sources/cxx-stl/gnu-libstdc++/4.4.3/libs/armeabi/libgnustl_static.a(fundamental_type_info.o)
 _ZTSe          0x00000000        0x0 /Users/Max/android-ndk-r8e/sources/cxx-stl/gnu-libstdc++/4.4.3/libs/armeabi/libgnustl_static.a(fundamental_type_info.o)
 _ZTSPKd        0x00000000        0x0 /Users/Max/android-ndk-r8e/sources/cxx-stl/gnu-libstdc++/4.4.3/libs/armeabi/libgnustl_static.a(fundamental_type_info.o)
 _ZTSPd         0x00000000        0x0 /Users/Max/android-ndk-r8e/sources/cxx-stl/gnu-libstdc++/4.4.3/libs/armeabi/libgnustl_static.a(fundamental_type_info.o)
 _ZTSd          0x00000000        0x0 /Users/Max/android-ndk-r8e/sources/cxx-stl/gnu-libstdc++/4.4.3/libs/armeabi/libgnustl_static.a(fundamental_type_info.o)
 _ZTSPKf        0x00000000        0x0 /Users/Max/android-ndk-r8e/sources/cxx-stl/gnu-libstdc++/4.4.3/libs/armeabi/libgnustl_static.a(fundamental_type_info.o)
 _ZTSPf         0x00000000        0x0 /Users/Max/android-ndk-r8e/sources/cxx-stl/gnu-libstdc++/4.4.3/libs/armeabi/libgnustl_static.a(fundamental_type_info.o)
 _ZTSf          0x00000000        0x0 /Users/Max/android-ndk-r8e/sources/cxx-stl/gnu-libstdc++/4.4.3/libs/armeabi/libgnustl_static.a(fundamental_type_info.o)
 _ZTSPKy        0x00000000        0x0 /Users/Max/android-ndk-r8e/sources/cxx-stl/gnu-libstdc++/4.4.3/libs/armeabi/libgnustl_static.a(fundamental_type_info.o)
 _ZTSPy         0x00000000        0x0 /Users/Max/android-ndk-r8e/sources/cxx-stl/gnu-libstdc++/4.4.3/libs/armeabi/libgnustl_static.a(fundamental_type_info.o)
 _ZTSy          0x00000000        0x0 /Users/Max/android-ndk-r8e/sources/cxx-stl/gnu-libstdc++/4.4.3/libs/armeabi/libgnustl_static.a(fundamental_type_info.o)
 _ZTSPKx        0x00000000        0x0 /Users/Max/android-ndk-r8e/sources/cxx-stl/gnu-libstdc++/4.4.3/libs/armeabi/libgnustl_static.a(fundamental_type_info.o)
 _ZTSPx         0x00000000        0x0 /Users/Max/android-ndk-r8e/sources/cxx-stl/gnu-libstdc++/4.4.3/libs/armeabi/libgnustl_static.a(fundamental_type_info.o)
 _ZTSx          0x00000000        0x0 /Users/Max/android-ndk-r8e/sources/cxx-stl/gnu-libstdc++/4.4.3/libs/armeabi/libgnustl_static.a(fundamental_type_info.o)
 _ZTSPKm        0x00000000        0x0 /Users/Max/android-ndk-r8e/sources/cxx-stl/gnu-libstdc++/4.4.3/libs/armeabi/libgnustl_static.a(fundamental_type_info.o)
 _ZTSPm         0x00000000        0x0 /Users/Max/android-ndk-r8e/sources/cxx-stl/gnu-libstdc++/4.4.3/libs/armeabi/libgnustl_static.a(fundamental_type_info.o)
 _ZTSm          0x00000000        0x0 /Users/Max/android-ndk-r8e/sources/cxx-stl/gnu-libstdc++/4.4.3/libs/armeabi/libgnustl_static.a(fundamental_type_info.o)
 _ZTSPKl        0x00000000        0x0 /Users/Max/android-ndk-r8e/sources/cxx-stl/gnu-libstdc++/4.4.3/libs/armeabi/libgnustl_static.a(fundamental_type_info.o)
 _ZTSPl         0x00000000        0x0 /Users/Max/android-ndk-r8e/sources/cxx-stl/gnu-libstdc++/4.4.3/libs/armeabi/libgnustl_static.a(fundamental_type_info.o)
 _ZTSl          0x00000000        0x0 /Users/Max/android-ndk-r8e/sources/cxx-stl/gnu-libstdc++/4.4.3/libs/armeabi/libgnustl_static.a(fundamental_type_info.o)
 _ZTSPKj        0x00000000        0x0 /Users/Max/android-ndk-r8e/sources/cxx-stl/gnu-libstdc++/4.4.3/libs/armeabi/libgnustl_static.a(fundamental_type_info.o)
 _ZTSPj         0x00000000        0x0 /Users/Max/android-ndk-r8e/sources/cxx-stl/gnu-libstdc++/4.4.3/libs/armeabi/libgnustl_static.a(fundamental_type_info.o)
 _ZTSj          0x00000000        0x0 /Users/Max/android-ndk-r8e/sources/cxx-stl/gnu-libstdc++/4.4.3/libs/armeabi/libgnustl_static.a(fundamental_type_info.o)
 _ZTSPKi        0x00000000        0x0 /Users/Max/android-ndk-r8e/sources/cxx-stl/gnu-libstdc++/4.4.3/libs/armeabi/libgnustl_static.a(fundamental_type_info.o)
 _ZTSPi         0x00000000        0x0 /Users/Max/android-ndk-r8e/sources/cxx-stl/gnu-libstdc++/4.4.3/libs/armeabi/libgnustl_static.a(fundamental_type_info.o)
 _ZTSi          0x00000000        0x0 /Users/Max/android-ndk-r8e/sources/cxx-stl/gnu-libstdc++/4.4.3/libs/armeabi/libgnustl_static.a(fundamental_type_info.o)
 _ZTSPKt        0x00000000        0x0 /Users/Max/android-ndk-r8e/sources/cxx-stl/gnu-libstdc++/4.4.3/libs/armeabi/libgnustl_static.a(fundamental_type_info.o)
 _ZTSPt         0x00000000        0x0 /Users/Max/android-ndk-r8e/sources/cxx-stl/gnu-libstdc++/4.4.3/libs/armeabi/libgnustl_static.a(fundamental_type_info.o)
 _ZTSt          0x00000000        0x0 /Users/Max/android-ndk-r8e/sources/cxx-stl/gnu-libstdc++/4.4.3/libs/armeabi/libgnustl_static.a(fundamental_type_info.o)
 _ZTSPKs        0x00000000        0x0 /Users/Max/android-ndk-r8e/sources/cxx-stl/gnu-libstdc++/4.4.3/libs/armeabi/libgnustl_static.a(fundamental_type_info.o)
 _ZTSPs         0x00000000        0x0 /Users/Max/android-ndk-r8e/sources/cxx-stl/gnu-libstdc++/4.4.3/libs/armeabi/libgnustl_static.a(fundamental_type_info.o)
 _ZTSs          0x00000000        0x0 /Users/Max/android-ndk-r8e/sources/cxx-stl/gnu-libstdc++/4.4.3/libs/armeabi/libgnustl_static.a(fundamental_type_info.o)
 _ZTSPKh        0x00000000        0x0 /Users/Max/android-ndk-r8e/sources/cxx-stl/gnu-libstdc++/4.4.3/libs/armeabi/libgnustl_static.a(fundamental_type_info.o)
 _ZTSPh         0x00000000        0x0 /Users/Max/android-ndk-r8e/sources/cxx-stl/gnu-libstdc++/4.4.3/libs/armeabi/libgnustl_static.a(fundamental_type_info.o)
 _ZTSh          0x00000000        0x0 /Users/Max/android-ndk-r8e/sources/cxx-stl/gnu-libstdc++/4.4.3/libs/armeabi/libgnustl_static.a(fundamental_type_info.o)
 _ZTSPKa        0x00000000        0x0 /Users/Max/android-ndk-r8e/sources/cxx-stl/gnu-libstdc++/4.4.3/libs/armeabi/libgnustl_static.a(fundamental_type_info.o)
 _ZTSPa         0x00000000        0x0 /Users/Max/android-ndk-r8e/sources/cxx-stl/gnu-libstdc++/4.4.3/libs/armeabi/libgnustl_static.a(fundamental_type_info.o)
 _ZTSa          0x00000000        0x0 /Users/Max/android-ndk-r8e/sources/cxx-stl/gnu-libstdc++/4.4.3/libs/armeabi/libgnustl_static.a(fundamental_type_info.o)
 _ZTSPKc        0x00000000        0x0 /Users/Max/android-ndk-r8e/sources/cxx-stl/gnu-libstdc++/4.4.3/libs/armeabi/libgnustl_static.a(fundamental_type_info.o)
 _ZTSPc         0x00000000        0x0 /Users/Max/android-ndk-r8e/sources/cxx-stl/gnu-libstdc++/4.4.3/libs/armeabi/libgnustl_static.a(fundamental_type_info.o)
 _ZTSc          0x00000000        0x0 /Users/Max/android-ndk-r8e/sources/cxx-stl/gnu-libstdc++/4.4.3/libs/armeabi/libgnustl_static.a(fundamental_type_info.o)
 _ZTSPKDi       0x00000000        0x0 /Users/Max/android-ndk-r8e/sources/cxx-stl/gnu-libstdc++/4.4.3/libs/armeabi/libgnustl_static.a(fundamental_type_info.o)
 _ZTSPDi        0x00000000        0x0 /Users/Max/android-ndk-r8e/sources/cxx-stl/gnu-libstdc++/4.4.3/libs/armeabi/libgnustl_static.a(fundamental_type_info.o)
 _ZTSDi         0x00000000        0x0 /Users/Max/android-ndk-r8e/sources/cxx-stl/gnu-libstdc++/4.4.3/libs/armeabi/libgnustl_static.a(fundamental_type_info.o)
 _ZTSPKDs       0x00000000        0x0 /Users/Max/android-ndk-r8e/sources/cxx-stl/gnu-libstdc++/4.4.3/libs/armeabi/libgnustl_static.a(fundamental_type_info.o)
 _ZTSPDs        0x00000000        0x0 /Users/Max/android-ndk-r8e/sources/cxx-stl/gnu-libstdc++/4.4.3/libs/armeabi/libgnustl_static.a(fundamental_type_info.o)
 _ZTSDs         0x00000000        0x0 /Users/Max/android-ndk-r8e/sources/cxx-stl/gnu-libstdc++/4.4.3/libs/armeabi/libgnustl_static.a(fundamental_type_info.o)
 _ZTSPKw        0x00000000        0x0 /Users/Max/android-ndk-r8e/sources/cxx-stl/gnu-libstdc++/4.4.3/libs/armeabi/libgnustl_static.a(fundamental_type_info.o)
 _ZTSPw         0x00000000        0x0 /Users/Max/android-ndk-r8e/sources/cxx-stl/gnu-libstdc++/4.4.3/libs/armeabi/libgnustl_static.a(fundamental_type_info.o)
 _ZTSw          0x00000000        0x0 /Users/Max/android-ndk-r8e/sources/cxx-stl/gnu-libstdc++/4.4.3/libs/armeabi/libgnustl_static.a(fundamental_type_info.o)
 _ZTSPKb        0x00000000        0x0 /Users/Max/android-ndk-r8e/sources/cxx-stl/gnu-libstdc++/4.4.3/libs/armeabi/libgnustl_static.a(fundamental_type_info.o)
 _ZTSPb         0x00000000        0x0 /Users/Max/android-ndk-r8e/sources/cxx-stl/gnu-libstdc++/4.4.3/libs/armeabi/libgnustl_static.a(fundamental_type_info.o)
 _ZTSb          0x00000000        0x0 /Users/Max/android-ndk-r8e/sources/cxx-stl/gnu-libstdc++/4.4.3/libs/armeabi/libgnustl_static.a(fundamental_type_info.o)
 _ZTSPKv        0x00000000        0x0 /Users/Max/android-ndk-r8e/sources/cxx-stl/gnu-libstdc++/4.4.3/libs/armeabi/libgnustl_static.a(fundamental_type_info.o)
 _ZTSPv         0x00000000        0x0 /Users/Max/android-ndk-r8e/sources/cxx-stl/gnu-libstdc++/4.4.3/libs/armeabi/libgnustl_static.a(fundamental_type_info.o)
 _ZTSv          0x00000000        0x0 /Users/Max/android-ndk-r8e/sources/cxx-stl/gnu-libstdc++/4.4.3/libs/armeabi/libgnustl_static.a(fundamental_type_info.o)
 .note.GNU-stack
                0x00000000        0x0 /Users/Max/android-ndk-r8e/sources/cxx-stl/gnu-libstdc++/4.4.3/libs/armeabi/libgnustl_static.a(fundamental_type_info.o)
 _ZNK9__gnu_cxx24__concurrence_lock_error4whatEv
                0x00000000        0x0 /Users/Max/android-ndk-r8e/sources/cxx-stl/gnu-libstdc++/4.4.3/libs/armeabi/libgnustl_static.a(guard.o)
 _ZNK9__gnu_cxx26__concurrence_unlock_error4whatEv
                0x00000000        0x0 /Users/Max/android-ndk-r8e/sources/cxx-stl/gnu-libstdc++/4.4.3/libs/armeabi/libgnustl_static.a(guard.o)
 _ZNK9__gnu_cxx29__concurrence_broadcast_error4whatEv
                0x00000000        0x0 /Users/Max/android-ndk-r8e/sources/cxx-stl/gnu-libstdc++/4.4.3/libs/armeabi/libgnustl_static.a(guard.o)
 _ZNK9__gnu_cxx24__concurrence_wait_error4whatEv
                0x00000000        0x0 /Users/Max/android-ndk-r8e/sources/cxx-stl/gnu-libstdc++/4.4.3/libs/armeabi/libgnustl_static.a(guard.o)
 _ZN9__gnu_cxx24__concurrence_lock_errorD1Ev
                0x00000000        0x0 /Users/Max/android-ndk-r8e/sources/cxx-stl/gnu-libstdc++/4.4.3/libs/armeabi/libgnustl_static.a(guard.o)
 _ZN9__gnu_cxx29__concurrence_broadcast_errorD1Ev
                0x00000000        0x0 /Users/Max/android-ndk-r8e/sources/cxx-stl/gnu-libstdc++/4.4.3/libs/armeabi/libgnustl_static.a(guard.o)
 _ZN9__gnu_cxx26__concurrence_unlock_errorD1Ev
                0x00000000        0x0 /Users/Max/android-ndk-r8e/sources/cxx-stl/gnu-libstdc++/4.4.3/libs/armeabi/libgnustl_static.a(guard.o)
 _ZN9__gnu_cxx24__concurrence_wait_errorD1Ev
                0x00000000        0x0 /Users/Max/android-ndk-r8e/sources/cxx-stl/gnu-libstdc++/4.4.3/libs/armeabi/libgnustl_static.a(guard.o)
 _ZN9__gnu_cxx24__concurrence_lock_errorD0Ev
                0x00000000        0x0 /Users/Max/android-ndk-r8e/sources/cxx-stl/gnu-libstdc++/4.4.3/libs/armeabi/libgnustl_static.a(guard.o)
 _ZN9__gnu_cxx26__concurrence_unlock_errorD0Ev
                0x00000000        0x0 /Users/Max/android-ndk-r8e/sources/cxx-stl/gnu-libstdc++/4.4.3/libs/armeabi/libgnustl_static.a(guard.o)
 _ZN9__gnu_cxx29__concurrence_broadcast_errorD0Ev
                0x00000000        0x0 /Users/Max/android-ndk-r8e/sources/cxx-stl/gnu-libstdc++/4.4.3/libs/armeabi/libgnustl_static.a(guard.o)
 _ZN9__gnu_cxx24__concurrence_wait_errorD0Ev
                0x00000000        0x0 /Users/Max/android-ndk-r8e/sources/cxx-stl/gnu-libstdc++/4.4.3/libs/armeabi/libgnustl_static.a(guard.o)
 _ZTIN9__gnu_cxx24__concurrence_lock_errorE
                0x00000000        0x0 /Users/Max/android-ndk-r8e/sources/cxx-stl/gnu-libstdc++/4.4.3/libs/armeabi/libgnustl_static.a(guard.o)
 _ZTSN9__gnu_cxx24__concurrence_lock_errorE
                0x00000000        0x0 /Users/Max/android-ndk-r8e/sources/cxx-stl/gnu-libstdc++/4.4.3/libs/armeabi/libgnustl_static.a(guard.o)
 _ZTVN9__gnu_cxx24__concurrence_lock_errorE
                0x00000000        0x0 /Users/Max/android-ndk-r8e/sources/cxx-stl/gnu-libstdc++/4.4.3/libs/armeabi/libgnustl_static.a(guard.o)
 _ZTIN9__gnu_cxx29__concurrence_broadcast_errorE
                0x00000000        0x0 /Users/Max/android-ndk-r8e/sources/cxx-stl/gnu-libstdc++/4.4.3/libs/armeabi/libgnustl_static.a(guard.o)
 _ZTSN9__gnu_cxx29__concurrence_broadcast_errorE
                0x00000000        0x0 /Users/Max/android-ndk-r8e/sources/cxx-stl/gnu-libstdc++/4.4.3/libs/armeabi/libgnustl_static.a(guard.o)
 _ZTVN9__gnu_cxx29__concurrence_broadcast_errorE
                0x00000000        0x0 /Users/Max/android-ndk-r8e/sources/cxx-stl/gnu-libstdc++/4.4.3/libs/armeabi/libgnustl_static.a(guard.o)
 _ZTIN9__gnu_cxx26__concurrence_unlock_errorE
                0x00000000        0x0 /Users/Max/android-ndk-r8e/sources/cxx-stl/gnu-libstdc++/4.4.3/libs/armeabi/libgnustl_static.a(guard.o)
 _ZTSN9__gnu_cxx26__concurrence_unlock_errorE
                0x00000000        0x0 /Users/Max/android-ndk-r8e/sources/cxx-stl/gnu-libstdc++/4.4.3/libs/armeabi/libgnustl_static.a(guard.o)
 _ZTVN9__gnu_cxx26__concurrence_unlock_errorE
                0x00000000        0x0 /Users/Max/android-ndk-r8e/sources/cxx-stl/gnu-libstdc++/4.4.3/libs/armeabi/libgnustl_static.a(guard.o)
 _ZTIN9__gnu_cxx24__concurrence_wait_errorE
                0x00000000        0x0 /Users/Max/android-ndk-r8e/sources/cxx-stl/gnu-libstdc++/4.4.3/libs/armeabi/libgnustl_static.a(guard.o)
 _ZTSN9__gnu_cxx24__concurrence_wait_errorE
                0x00000000        0x0 /Users/Max/android-ndk-r8e/sources/cxx-stl/gnu-libstdc++/4.4.3/libs/armeabi/libgnustl_static.a(guard.o)
 _ZTVN9__gnu_cxx24__concurrence_wait_errorE
                0x00000000        0x0 /Users/Max/android-ndk-r8e/sources/cxx-stl/gnu-libstdc++/4.4.3/libs/armeabi/libgnustl_static.a(guard.o)
 .text._ZNK9__gnu_cxx24__concurrence_lock_error4whatEv
                0x00000000        0x0 /Users/Max/android-ndk-r8e/sources/cxx-stl/gnu-libstdc++/4.4.3/libs/armeabi/libgnustl_static.a(guard.o)
 .ARM.extab.text._ZNK9__gnu_cxx24__concurrence_lock_error4whatEv
                0x00000000        0x0 /Users/Max/android-ndk-r8e/sources/cxx-stl/gnu-libstdc++/4.4.3/libs/armeabi/libgnustl_static.a(guard.o)
 .ARM.exidx.text._ZNK9__gnu_cxx24__concurrence_lock_error4whatEv
                0x00000000        0x0 /Users/Max/android-ndk-r8e/sources/cxx-stl/gnu-libstdc++/4.4.3/libs/armeabi/libgnustl_static.a(guard.o)
 .text._ZNK9__gnu_cxx26__concurrence_unlock_error4whatEv
                0x00000000        0x0 /Users/Max/android-ndk-r8e/sources/cxx-stl/gnu-libstdc++/4.4.3/libs/armeabi/libgnustl_static.a(guard.o)
 .ARM.extab.text._ZNK9__gnu_cxx26__concurrence_unlock_error4whatEv
                0x00000000        0x0 /Users/Max/android-ndk-r8e/sources/cxx-stl/gnu-libstdc++/4.4.3/libs/armeabi/libgnustl_static.a(guard.o)
 .ARM.exidx.text._ZNK9__gnu_cxx26__concurrence_unlock_error4whatEv
                0x00000000        0x0 /Users/Max/android-ndk-r8e/sources/cxx-stl/gnu-libstdc++/4.4.3/libs/armeabi/libgnustl_static.a(guard.o)
 .text._ZN9__gnu_cxx24__concurrence_lock_errorD1Ev
                0x00000000        0x0 /Users/Max/android-ndk-r8e/sources/cxx-stl/gnu-libstdc++/4.4.3/libs/armeabi/libgnustl_static.a(guard.o)
 .ARM.extab.text._ZN9__gnu_cxx24__concurrence_lock_errorD1Ev
                0x00000000        0x0 /Users/Max/android-ndk-r8e/sources/cxx-stl/gnu-libstdc++/4.4.3/libs/armeabi/libgnustl_static.a(guard.o)
 .ARM.exidx.text._ZN9__gnu_cxx24__concurrence_lock_errorD1Ev
                0x00000000        0x0 /Users/Max/android-ndk-r8e/sources/cxx-stl/gnu-libstdc++/4.4.3/libs/armeabi/libgnustl_static.a(guard.o)
 .text._ZN9__gnu_cxx26__concurrence_unlock_errorD1Ev
                0x00000000        0x0 /Users/Max/android-ndk-r8e/sources/cxx-stl/gnu-libstdc++/4.4.3/libs/armeabi/libgnustl_static.a(guard.o)
 .ARM.extab.text._ZN9__gnu_cxx26__concurrence_unlock_errorD1Ev
                0x00000000        0x0 /Users/Max/android-ndk-r8e/sources/cxx-stl/gnu-libstdc++/4.4.3/libs/armeabi/libgnustl_static.a(guard.o)
 .ARM.exidx.text._ZN9__gnu_cxx26__concurrence_unlock_errorD1Ev
                0x00000000        0x0 /Users/Max/android-ndk-r8e/sources/cxx-stl/gnu-libstdc++/4.4.3/libs/armeabi/libgnustl_static.a(guard.o)
 .text._ZN9__gnu_cxx24__concurrence_lock_errorD0Ev
                0x00000000        0x0 /Users/Max/android-ndk-r8e/sources/cxx-stl/gnu-libstdc++/4.4.3/libs/armeabi/libgnustl_static.a(guard.o)
 .ARM.extab.text._ZN9__gnu_cxx24__concurrence_lock_errorD0Ev
                0x00000000        0x0 /Users/Max/android-ndk-r8e/sources/cxx-stl/gnu-libstdc++/4.4.3/libs/armeabi/libgnustl_static.a(guard.o)
 .ARM.exidx.text._ZN9__gnu_cxx24__concurrence_lock_errorD0Ev
                0x00000000        0x0 /Users/Max/android-ndk-r8e/sources/cxx-stl/gnu-libstdc++/4.4.3/libs/armeabi/libgnustl_static.a(guard.o)
 .text._ZN9__gnu_cxx26__concurrence_unlock_errorD0Ev
                0x00000000        0x0 /Users/Max/android-ndk-r8e/sources/cxx-stl/gnu-libstdc++/4.4.3/libs/armeabi/libgnustl_static.a(guard.o)
 .ARM.extab.text._ZN9__gnu_cxx26__concurrence_unlock_errorD0Ev
                0x00000000        0x0 /Users/Max/android-ndk-r8e/sources/cxx-stl/gnu-libstdc++/4.4.3/libs/armeabi/libgnustl_static.a(guard.o)
 .ARM.exidx.text._ZN9__gnu_cxx26__concurrence_unlock_errorD0Ev
                0x00000000        0x0 /Users/Max/android-ndk-r8e/sources/cxx-stl/gnu-libstdc++/4.4.3/libs/armeabi/libgnustl_static.a(guard.o)
 .data.rel.ro._ZTIN9__gnu_cxx24__concurrence_lock_errorE
                0x00000000        0x0 /Users/Max/android-ndk-r8e/sources/cxx-stl/gnu-libstdc++/4.4.3/libs/armeabi/libgnustl_static.a(guard.o)
 .rodata._ZTSN9__gnu_cxx24__concurrence_lock_errorE
                0x00000000        0x0 /Users/Max/android-ndk-r8e/sources/cxx-stl/gnu-libstdc++/4.4.3/libs/armeabi/libgnustl_static.a(guard.o)
 .data.rel.ro._ZTVN9__gnu_cxx24__concurrence_lock_errorE
                0x00000000        0x0 /Users/Max/android-ndk-r8e/sources/cxx-stl/gnu-libstdc++/4.4.3/libs/armeabi/libgnustl_static.a(guard.o)
 .data.rel.ro._ZTIN9__gnu_cxx26__concurrence_unlock_errorE
                0x00000000        0x0 /Users/Max/android-ndk-r8e/sources/cxx-stl/gnu-libstdc++/4.4.3/libs/armeabi/libgnustl_static.a(guard.o)
 .rodata._ZTSN9__gnu_cxx26__concurrence_unlock_errorE
                0x00000000        0x0 /Users/Max/android-ndk-r8e/sources/cxx-stl/gnu-libstdc++/4.4.3/libs/armeabi/libgnustl_static.a(guard.o)
 .data.rel.ro._ZTVN9__gnu_cxx26__concurrence_unlock_errorE
                0x00000000        0x0 /Users/Max/android-ndk-r8e/sources/cxx-stl/gnu-libstdc++/4.4.3/libs/armeabi/libgnustl_static.a(guard.o)
 .note.GNU-stack
                0x00000000        0x0 /Users/Max/android-ndk-r8e/sources/cxx-stl/gnu-libstdc++/4.4.3/libs/armeabi/libgnustl_static.a(guard.o)
 .note.GNU-stack
                0x00000000        0x0 /Users/Max/android-ndk-r8e/sources/cxx-stl/gnu-libstdc++/4.4.3/libs/armeabi/libgnustl_static.a(new_op.o)
 .note.GNU-stack
                0x00000000        0x0 /Users/Max/android-ndk-r8e/sources/cxx-stl/gnu-libstdc++/4.4.3/libs/armeabi/libgnustl_static.a(pointer_type_info.o)
 .note.GNU-stack
                0x00000000        0x0 /Users/Max/android-ndk-r8e/sources/cxx-stl/gnu-libstdc++/4.4.3/libs/armeabi/libgnustl_static.a(pure.o)
 .note.GNU-stack
                0x00000000        0x0 /Users/Max/android-ndk-r8e/sources/cxx-stl/gnu-libstdc++/4.4.3/libs/armeabi/libgnustl_static.a(si_class_type_info.o)
 .note.GNU-stack
                0x00000000        0x0 /Users/Max/android-ndk-r8e/sources/cxx-stl/gnu-libstdc++/4.4.3/libs/armeabi/libgnustl_static.a(tinfo.o)
 _ZNSt15underflow_errorD1Ev
                0x00000000        0x0 /Users/Max/android-ndk-r8e/sources/cxx-stl/gnu-libstdc++/4.4.3/libs/armeabi/libgnustl_static.a(functexcept.o)
 _ZNSt14overflow_errorD1Ev
                0x00000000        0x0 /Users/Max/android-ndk-r8e/sources/cxx-stl/gnu-libstdc++/4.4.3/libs/armeabi/libgnustl_static.a(functexcept.o)
 _ZNSt11range_errorD1Ev
                0x00000000        0x0 /Users/Max/android-ndk-r8e/sources/cxx-stl/gnu-libstdc++/4.4.3/libs/armeabi/libgnustl_static.a(functexcept.o)
 _ZNSt12out_of_rangeD1Ev
                0x00000000        0x0 /Users/Max/android-ndk-r8e/sources/cxx-stl/gnu-libstdc++/4.4.3/libs/armeabi/libgnustl_static.a(functexcept.o)
 _ZNSt12length_errorD1Ev
                0x00000000        0x0 /Users/Max/android-ndk-r8e/sources/cxx-stl/gnu-libstdc++/4.4.3/libs/armeabi/libgnustl_static.a(functexcept.o)
 _ZNSt16invalid_argumentD1Ev
                0x00000000        0x0 /Users/Max/android-ndk-r8e/sources/cxx-stl/gnu-libstdc++/4.4.3/libs/armeabi/libgnustl_static.a(functexcept.o)
 _ZNSt12domain_errorD1Ev
                0x00000000        0x0 /Users/Max/android-ndk-r8e/sources/cxx-stl/gnu-libstdc++/4.4.3/libs/armeabi/libgnustl_static.a(functexcept.o)
 _ZNSt15underflow_errorD0Ev
                0x00000000        0x0 /Users/Max/android-ndk-r8e/sources/cxx-stl/gnu-libstdc++/4.4.3/libs/armeabi/libgnustl_static.a(functexcept.o)
 _ZNSt12domain_errorD0Ev
                0x00000000        0x0 /Users/Max/android-ndk-r8e/sources/cxx-stl/gnu-libstdc++/4.4.3/libs/armeabi/libgnustl_static.a(functexcept.o)
 _ZNSt16invalid_argumentD0Ev
                0x00000000        0x0 /Users/Max/android-ndk-r8e/sources/cxx-stl/gnu-libstdc++/4.4.3/libs/armeabi/libgnustl_static.a(functexcept.o)
 _ZNSt12length_errorD0Ev
                0x00000000        0x0 /Users/Max/android-ndk-r8e/sources/cxx-stl/gnu-libstdc++/4.4.3/libs/armeabi/libgnustl_static.a(functexcept.o)
 _ZNSt12out_of_rangeD0Ev
                0x00000000        0x0 /Users/Max/android-ndk-r8e/sources/cxx-stl/gnu-libstdc++/4.4.3/libs/armeabi/libgnustl_static.a(functexcept.o)
 _ZNSt11range_errorD0Ev
                0x00000000        0x0 /Users/Max/android-ndk-r8e/sources/cxx-stl/gnu-libstdc++/4.4.3/libs/armeabi/libgnustl_static.a(functexcept.o)
 _ZNSt14overflow_errorD0Ev
                0x00000000        0x0 /Users/Max/android-ndk-r8e/sources/cxx-stl/gnu-libstdc++/4.4.3/libs/armeabi/libgnustl_static.a(functexcept.o)
 _ZTISt15underflow_error
                0x00000000        0x0 /Users/Max/android-ndk-r8e/sources/cxx-stl/gnu-libstdc++/4.4.3/libs/armeabi/libgnustl_static.a(functexcept.o)
 _ZTSSt15underflow_error
                0x00000000        0x0 /Users/Max/android-ndk-r8e/sources/cxx-stl/gnu-libstdc++/4.4.3/libs/armeabi/libgnustl_static.a(functexcept.o)
 _ZTVSt15underflow_error
                0x00000000        0x0 /Users/Max/android-ndk-r8e/sources/cxx-stl/gnu-libstdc++/4.4.3/libs/armeabi/libgnustl_static.a(functexcept.o)
 _ZTISt14overflow_error
                0x00000000        0x0 /Users/Max/android-ndk-r8e/sources/cxx-stl/gnu-libstdc++/4.4.3/libs/armeabi/libgnustl_static.a(functexcept.o)
 _ZTSSt14overflow_error
                0x00000000        0x0 /Users/Max/android-ndk-r8e/sources/cxx-stl/gnu-libstdc++/4.4.3/libs/armeabi/libgnustl_static.a(functexcept.o)
 _ZTVSt14overflow_error
                0x00000000        0x0 /Users/Max/android-ndk-r8e/sources/cxx-stl/gnu-libstdc++/4.4.3/libs/armeabi/libgnustl_static.a(functexcept.o)
 _ZTISt11range_error
                0x00000000        0x0 /Users/Max/android-ndk-r8e/sources/cxx-stl/gnu-libstdc++/4.4.3/libs/armeabi/libgnustl_static.a(functexcept.o)
 _ZTSSt11range_error
                0x00000000        0x0 /Users/Max/android-ndk-r8e/sources/cxx-stl/gnu-libstdc++/4.4.3/libs/armeabi/libgnustl_static.a(functexcept.o)
 _ZTVSt11range_error
                0x00000000        0x0 /Users/Max/android-ndk-r8e/sources/cxx-stl/gnu-libstdc++/4.4.3/libs/armeabi/libgnustl_static.a(functexcept.o)
 _ZTISt12out_of_range
                0x00000000        0x0 /Users/Max/android-ndk-r8e/sources/cxx-stl/gnu-libstdc++/4.4.3/libs/armeabi/libgnustl_static.a(functexcept.o)
 _ZTSSt12out_of_range
                0x00000000        0x0 /Users/Max/android-ndk-r8e/sources/cxx-stl/gnu-libstdc++/4.4.3/libs/armeabi/libgnustl_static.a(functexcept.o)
 _ZTVSt12out_of_range
                0x00000000        0x0 /Users/Max/android-ndk-r8e/sources/cxx-stl/gnu-libstdc++/4.4.3/libs/armeabi/libgnustl_static.a(functexcept.o)
 _ZTISt12length_error
                0x00000000        0x0 /Users/Max/android-ndk-r8e/sources/cxx-stl/gnu-libstdc++/4.4.3/libs/armeabi/libgnustl_static.a(functexcept.o)
 _ZTSSt12length_error
                0x00000000        0x0 /Users/Max/android-ndk-r8e/sources/cxx-stl/gnu-libstdc++/4.4.3/libs/armeabi/libgnustl_static.a(functexcept.o)
 _ZTVSt12length_error
                0x00000000        0x0 /Users/Max/android-ndk-r8e/sources/cxx-stl/gnu-libstdc++/4.4.3/libs/armeabi/libgnustl_static.a(functexcept.o)
 _ZTISt16invalid_argument
                0x00000000        0x0 /Users/Max/android-ndk-r8e/sources/cxx-stl/gnu-libstdc++/4.4.3/libs/armeabi/libgnustl_static.a(functexcept.o)
 _ZTSSt16invalid_argument
                0x00000000        0x0 /Users/Max/android-ndk-r8e/sources/cxx-stl/gnu-libstdc++/4.4.3/libs/armeabi/libgnustl_static.a(functexcept.o)
 _ZTVSt16invalid_argument
                0x00000000        0x0 /Users/Max/android-ndk-r8e/sources/cxx-stl/gnu-libstdc++/4.4.3/libs/armeabi/libgnustl_static.a(functexcept.o)
 _ZTISt12domain_error
                0x00000000        0x0 /Users/Max/android-ndk-r8e/sources/cxx-stl/gnu-libstdc++/4.4.3/libs/armeabi/libgnustl_static.a(functexcept.o)
 _ZTSSt12domain_error
                0x00000000        0x0 /Users/Max/android-ndk-r8e/sources/cxx-stl/gnu-libstdc++/4.4.3/libs/armeabi/libgnustl_static.a(functexcept.o)
 _ZTVSt12domain_error
                0x00000000        0x0 /Users/Max/android-ndk-r8e/sources/cxx-stl/gnu-libstdc++/4.4.3/libs/armeabi/libgnustl_static.a(functexcept.o)
 .note.GNU-stack
                0x00000000        0x0 /Users/Max/android-ndk-r8e/sources/cxx-stl/gnu-libstdc++/4.4.3/libs/armeabi/libgnustl_static.a(functexcept.o)
 .note.GNU-stack
                0x00000000        0x0 /Users/Max/android-ndk-r8e/sources/cxx-stl/gnu-libstdc++/4.4.3/libs/armeabi/libgnustl_static.a(ios_failure.o)
 _ZNSt15underflow_errorD1Ev
                0x00000000        0x0 /Users/Max/android-ndk-r8e/sources/cxx-stl/gnu-libstdc++/4.4.3/libs/armeabi/libgnustl_static.a(stdexcept.o)
 _ZNSt14overflow_errorD1Ev
                0x00000000        0x0 /Users/Max/android-ndk-r8e/sources/cxx-stl/gnu-libstdc++/4.4.3/libs/armeabi/libgnustl_static.a(stdexcept.o)
 _ZNSt11range_errorD1Ev
                0x00000000        0x0 /Users/Max/android-ndk-r8e/sources/cxx-stl/gnu-libstdc++/4.4.3/libs/armeabi/libgnustl_static.a(stdexcept.o)
 _ZNSt15underflow_errorD0Ev
                0x00000000        0x0 /Users/Max/android-ndk-r8e/sources/cxx-stl/gnu-libstdc++/4.4.3/libs/armeabi/libgnustl_static.a(stdexcept.o)
 _ZNSt11range_errorD0Ev
                0x00000000        0x0 /Users/Max/android-ndk-r8e/sources/cxx-stl/gnu-libstdc++/4.4.3/libs/armeabi/libgnustl_static.a(stdexcept.o)
 _ZNSt14overflow_errorD0Ev
                0x00000000        0x0 /Users/Max/android-ndk-r8e/sources/cxx-stl/gnu-libstdc++/4.4.3/libs/armeabi/libgnustl_static.a(stdexcept.o)
 _ZNSt12out_of_rangeD1Ev
                0x00000000        0x0 /Users/Max/android-ndk-r8e/sources/cxx-stl/gnu-libstdc++/4.4.3/libs/armeabi/libgnustl_static.a(stdexcept.o)
 _ZNSt12length_errorD1Ev
                0x00000000        0x0 /Users/Max/android-ndk-r8e/sources/cxx-stl/gnu-libstdc++/4.4.3/libs/armeabi/libgnustl_static.a(stdexcept.o)
 _ZNSt16invalid_argumentD1Ev
                0x00000000        0x0 /Users/Max/android-ndk-r8e/sources/cxx-stl/gnu-libstdc++/4.4.3/libs/armeabi/libgnustl_static.a(stdexcept.o)
 _ZNSt12domain_errorD1Ev
                0x00000000        0x0 /Users/Max/android-ndk-r8e/sources/cxx-stl/gnu-libstdc++/4.4.3/libs/armeabi/libgnustl_static.a(stdexcept.o)
 _ZNSt12domain_errorD0Ev
                0x00000000        0x0 /Users/Max/android-ndk-r8e/sources/cxx-stl/gnu-libstdc++/4.4.3/libs/armeabi/libgnustl_static.a(stdexcept.o)
 _ZNSt12length_errorD0Ev
                0x00000000        0x0 /Users/Max/android-ndk-r8e/sources/cxx-stl/gnu-libstdc++/4.4.3/libs/armeabi/libgnustl_static.a(stdexcept.o)
 _ZNSt12out_of_rangeD0Ev
                0x00000000        0x0 /Users/Max/android-ndk-r8e/sources/cxx-stl/gnu-libstdc++/4.4.3/libs/armeabi/libgnustl_static.a(stdexcept.o)
 _ZNSt16invalid_argumentD0Ev
                0x00000000        0x0 /Users/Max/android-ndk-r8e/sources/cxx-stl/gnu-libstdc++/4.4.3/libs/armeabi/libgnustl_static.a(stdexcept.o)
 _ZTVSt15underflow_error
                0x00000000        0x0 /Users/Max/android-ndk-r8e/sources/cxx-stl/gnu-libstdc++/4.4.3/libs/armeabi/libgnustl_static.a(stdexcept.o)
 _ZTISt15underflow_error
                0x00000000        0x0 /Users/Max/android-ndk-r8e/sources/cxx-stl/gnu-libstdc++/4.4.3/libs/armeabi/libgnustl_static.a(stdexcept.o)
 _ZTSSt15underflow_error
                0x00000000        0x0 /Users/Max/android-ndk-r8e/sources/cxx-stl/gnu-libstdc++/4.4.3/libs/armeabi/libgnustl_static.a(stdexcept.o)
 _ZTVSt14overflow_error
                0x00000000        0x0 /Users/Max/android-ndk-r8e/sources/cxx-stl/gnu-libstdc++/4.4.3/libs/armeabi/libgnustl_static.a(stdexcept.o)
 _ZTISt14overflow_error
                0x00000000        0x0 /Users/Max/android-ndk-r8e/sources/cxx-stl/gnu-libstdc++/4.4.3/libs/armeabi/libgnustl_static.a(stdexcept.o)
 _ZTSSt14overflow_error
                0x00000000        0x0 /Users/Max/android-ndk-r8e/sources/cxx-stl/gnu-libstdc++/4.4.3/libs/armeabi/libgnustl_static.a(stdexcept.o)
 _ZTVSt11range_error
                0x00000000        0x0 /Users/Max/android-ndk-r8e/sources/cxx-stl/gnu-libstdc++/4.4.3/libs/armeabi/libgnustl_static.a(stdexcept.o)
 _ZTISt11range_error
                0x00000000        0x0 /Users/Max/android-ndk-r8e/sources/cxx-stl/gnu-libstdc++/4.4.3/libs/armeabi/libgnustl_static.a(stdexcept.o)
 _ZTSSt11range_error
                0x00000000        0x0 /Users/Max/android-ndk-r8e/sources/cxx-stl/gnu-libstdc++/4.4.3/libs/armeabi/libgnustl_static.a(stdexcept.o)
 _ZTVSt12out_of_range
                0x00000000        0x0 /Users/Max/android-ndk-r8e/sources/cxx-stl/gnu-libstdc++/4.4.3/libs/armeabi/libgnustl_static.a(stdexcept.o)
 _ZTISt12out_of_range
                0x00000000        0x0 /Users/Max/android-ndk-r8e/sources/cxx-stl/gnu-libstdc++/4.4.3/libs/armeabi/libgnustl_static.a(stdexcept.o)
 _ZTSSt12out_of_range
                0x00000000        0x0 /Users/Max/android-ndk-r8e/sources/cxx-stl/gnu-libstdc++/4.4.3/libs/armeabi/libgnustl_static.a(stdexcept.o)
 _ZTVSt12length_error
                0x00000000        0x0 /Users/Max/android-ndk-r8e/sources/cxx-stl/gnu-libstdc++/4.4.3/libs/armeabi/libgnustl_static.a(stdexcept.o)
 _ZTISt12length_error
                0x00000000        0x0 /Users/Max/android-ndk-r8e/sources/cxx-stl/gnu-libstdc++/4.4.3/libs/armeabi/libgnustl_static.a(stdexcept.o)
 _ZTSSt12length_error
                0x00000000        0x0 /Users/Max/android-ndk-r8e/sources/cxx-stl/gnu-libstdc++/4.4.3/libs/armeabi/libgnustl_static.a(stdexcept.o)
 _ZTVSt16invalid_argument
                0x00000000        0x0 /Users/Max/android-ndk-r8e/sources/cxx-stl/gnu-libstdc++/4.4.3/libs/armeabi/libgnustl_static.a(stdexcept.o)
 _ZTISt16invalid_argument
                0x00000000        0x0 /Users/Max/android-ndk-r8e/sources/cxx-stl/gnu-libstdc++/4.4.3/libs/armeabi/libgnustl_static.a(stdexcept.o)
 _ZTSSt16invalid_argument
                0x00000000        0x0 /Users/Max/android-ndk-r8e/sources/cxx-stl/gnu-libstdc++/4.4.3/libs/armeabi/libgnustl_static.a(stdexcept.o)
 _ZTVSt12domain_error
                0x00000000        0x0 /Users/Max/android-ndk-r8e/sources/cxx-stl/gnu-libstdc++/4.4.3/libs/armeabi/libgnustl_static.a(stdexcept.o)
 _ZTISt12domain_error
                0x00000000        0x0 /Users/Max/android-ndk-r8e/sources/cxx-stl/gnu-libstdc++/4.4.3/libs/armeabi/libgnustl_static.a(stdexcept.o)
 _ZTSSt12domain_error
                0x00000000        0x0 /Users/Max/android-ndk-r8e/sources/cxx-stl/gnu-libstdc++/4.4.3/libs/armeabi/libgnustl_static.a(stdexcept.o)
 .text._ZNSt15underflow_errorD1Ev
                0x00000000        0x0 /Users/Max/android-ndk-r8e/sources/cxx-stl/gnu-libstdc++/4.4.3/libs/armeabi/libgnustl_static.a(stdexcept.o)
 .ARM.extab.text._ZNSt15underflow_errorD1Ev
                0x00000000        0x0 /Users/Max/android-ndk-r8e/sources/cxx-stl/gnu-libstdc++/4.4.3/libs/armeabi/libgnustl_static.a(stdexcept.o)
 .ARM.exidx.text._ZNSt15underflow_errorD1Ev
                0x00000000        0x0 /Users/Max/android-ndk-r8e/sources/cxx-stl/gnu-libstdc++/4.4.3/libs/armeabi/libgnustl_static.a(stdexcept.o)
 .text._ZNSt14overflow_errorD1Ev
                0x00000000        0x0 /Users/Max/android-ndk-r8e/sources/cxx-stl/gnu-libstdc++/4.4.3/libs/armeabi/libgnustl_static.a(stdexcept.o)
 .ARM.extab.text._ZNSt14overflow_errorD1Ev
                0x00000000        0x0 /Users/Max/android-ndk-r8e/sources/cxx-stl/gnu-libstdc++/4.4.3/libs/armeabi/libgnustl_static.a(stdexcept.o)
 .ARM.exidx.text._ZNSt14overflow_errorD1Ev
                0x00000000        0x0 /Users/Max/android-ndk-r8e/sources/cxx-stl/gnu-libstdc++/4.4.3/libs/armeabi/libgnustl_static.a(stdexcept.o)
 .text._ZNSt11range_errorD1Ev
                0x00000000        0x0 /Users/Max/android-ndk-r8e/sources/cxx-stl/gnu-libstdc++/4.4.3/libs/armeabi/libgnustl_static.a(stdexcept.o)
 .ARM.extab.text._ZNSt11range_errorD1Ev
                0x00000000        0x0 /Users/Max/android-ndk-r8e/sources/cxx-stl/gnu-libstdc++/4.4.3/libs/armeabi/libgnustl_static.a(stdexcept.o)
 .ARM.exidx.text._ZNSt11range_errorD1Ev
                0x00000000        0x0 /Users/Max/android-ndk-r8e/sources/cxx-stl/gnu-libstdc++/4.4.3/libs/armeabi/libgnustl_static.a(stdexcept.o)
 .text._ZNSt15underflow_errorD0Ev
                0x00000000        0x0 /Users/Max/android-ndk-r8e/sources/cxx-stl/gnu-libstdc++/4.4.3/libs/armeabi/libgnustl_static.a(stdexcept.o)
 .ARM.extab.text._ZNSt15underflow_errorD0Ev
                0x00000000        0x0 /Users/Max/android-ndk-r8e/sources/cxx-stl/gnu-libstdc++/4.4.3/libs/armeabi/libgnustl_static.a(stdexcept.o)
 .ARM.exidx.text._ZNSt15underflow_errorD0Ev
                0x00000000        0x0 /Users/Max/android-ndk-r8e/sources/cxx-stl/gnu-libstdc++/4.4.3/libs/armeabi/libgnustl_static.a(stdexcept.o)
 .text._ZNSt11range_errorD0Ev
                0x00000000        0x0 /Users/Max/android-ndk-r8e/sources/cxx-stl/gnu-libstdc++/4.4.3/libs/armeabi/libgnustl_static.a(stdexcept.o)
 .ARM.extab.text._ZNSt11range_errorD0Ev
                0x00000000        0x0 /Users/Max/android-ndk-r8e/sources/cxx-stl/gnu-libstdc++/4.4.3/libs/armeabi/libgnustl_static.a(stdexcept.o)
 .ARM.exidx.text._ZNSt11range_errorD0Ev
                0x00000000        0x0 /Users/Max/android-ndk-r8e/sources/cxx-stl/gnu-libstdc++/4.4.3/libs/armeabi/libgnustl_static.a(stdexcept.o)
 .text._ZNSt14overflow_errorD0Ev
                0x00000000        0x0 /Users/Max/android-ndk-r8e/sources/cxx-stl/gnu-libstdc++/4.4.3/libs/armeabi/libgnustl_static.a(stdexcept.o)
 .ARM.extab.text._ZNSt14overflow_errorD0Ev
                0x00000000        0x0 /Users/Max/android-ndk-r8e/sources/cxx-stl/gnu-libstdc++/4.4.3/libs/armeabi/libgnustl_static.a(stdexcept.o)
 .ARM.exidx.text._ZNSt14overflow_errorD0Ev
                0x00000000        0x0 /Users/Max/android-ndk-r8e/sources/cxx-stl/gnu-libstdc++/4.4.3/libs/armeabi/libgnustl_static.a(stdexcept.o)
 .text._ZNSt12out_of_rangeD1Ev
                0x00000000        0x0 /Users/Max/android-ndk-r8e/sources/cxx-stl/gnu-libstdc++/4.4.3/libs/armeabi/libgnustl_static.a(stdexcept.o)
 .ARM.extab.text._ZNSt12out_of_rangeD1Ev
                0x00000000        0x0 /Users/Max/android-ndk-r8e/sources/cxx-stl/gnu-libstdc++/4.4.3/libs/armeabi/libgnustl_static.a(stdexcept.o)
 .ARM.exidx.text._ZNSt12out_of_rangeD1Ev
                0x00000000        0x0 /Users/Max/android-ndk-r8e/sources/cxx-stl/gnu-libstdc++/4.4.3/libs/armeabi/libgnustl_static.a(stdexcept.o)
 .text._ZNSt12length_errorD1Ev
                0x00000000        0x0 /Users/Max/android-ndk-r8e/sources/cxx-stl/gnu-libstdc++/4.4.3/libs/armeabi/libgnustl_static.a(stdexcept.o)
 .ARM.extab.text._ZNSt12length_errorD1Ev
                0x00000000        0x0 /Users/Max/android-ndk-r8e/sources/cxx-stl/gnu-libstdc++/4.4.3/libs/armeabi/libgnustl_static.a(stdexcept.o)
 .ARM.exidx.text._ZNSt12length_errorD1Ev
                0x00000000        0x0 /Users/Max/android-ndk-r8e/sources/cxx-stl/gnu-libstdc++/4.4.3/libs/armeabi/libgnustl_static.a(stdexcept.o)
 .text._ZNSt16invalid_argumentD1Ev
                0x00000000        0x0 /Users/Max/android-ndk-r8e/sources/cxx-stl/gnu-libstdc++/4.4.3/libs/armeabi/libgnustl_static.a(stdexcept.o)
 .ARM.extab.text._ZNSt16invalid_argumentD1Ev
                0x00000000        0x0 /Users/Max/android-ndk-r8e/sources/cxx-stl/gnu-libstdc++/4.4.3/libs/armeabi/libgnustl_static.a(stdexcept.o)
 .ARM.exidx.text._ZNSt16invalid_argumentD1Ev
                0x00000000        0x0 /Users/Max/android-ndk-r8e/sources/cxx-stl/gnu-libstdc++/4.4.3/libs/armeabi/libgnustl_static.a(stdexcept.o)
 .text._ZNSt12domain_errorD1Ev
                0x00000000        0x0 /Users/Max/android-ndk-r8e/sources/cxx-stl/gnu-libstdc++/4.4.3/libs/armeabi/libgnustl_static.a(stdexcept.o)
 .ARM.extab.text._ZNSt12domain_errorD1Ev
                0x00000000        0x0 /Users/Max/android-ndk-r8e/sources/cxx-stl/gnu-libstdc++/4.4.3/libs/armeabi/libgnustl_static.a(stdexcept.o)
 .ARM.exidx.text._ZNSt12domain_errorD1Ev
                0x00000000        0x0 /Users/Max/android-ndk-r8e/sources/cxx-stl/gnu-libstdc++/4.4.3/libs/armeabi/libgnustl_static.a(stdexcept.o)
 .text._ZNSt12domain_errorD0Ev
                0x00000000        0x0 /Users/Max/android-ndk-r8e/sources/cxx-stl/gnu-libstdc++/4.4.3/libs/armeabi/libgnustl_static.a(stdexcept.o)
 .ARM.extab.text._ZNSt12domain_errorD0Ev
                0x00000000        0x0 /Users/Max/android-ndk-r8e/sources/cxx-stl/gnu-libstdc++/4.4.3/libs/armeabi/libgnustl_static.a(stdexcept.o)
 .ARM.exidx.text._ZNSt12domain_errorD0Ev
                0x00000000        0x0 /Users/Max/android-ndk-r8e/sources/cxx-stl/gnu-libstdc++/4.4.3/libs/armeabi/libgnustl_static.a(stdexcept.o)
 .text._ZNSt12length_errorD0Ev
                0x00000000        0x0 /Users/Max/android-ndk-r8e/sources/cxx-stl/gnu-libstdc++/4.4.3/libs/armeabi/libgnustl_static.a(stdexcept.o)
 .ARM.extab.text._ZNSt12length_errorD0Ev
                0x00000000        0x0 /Users/Max/android-ndk-r8e/sources/cxx-stl/gnu-libstdc++/4.4.3/libs/armeabi/libgnustl_static.a(stdexcept.o)
 .ARM.exidx.text._ZNSt12length_errorD0Ev
                0x00000000        0x0 /Users/Max/android-ndk-r8e/sources/cxx-stl/gnu-libstdc++/4.4.3/libs/armeabi/libgnustl_static.a(stdexcept.o)
 .text._ZNSt12out_of_rangeD0Ev
                0x00000000        0x0 /Users/Max/android-ndk-r8e/sources/cxx-stl/gnu-libstdc++/4.4.3/libs/armeabi/libgnustl_static.a(stdexcept.o)
 .ARM.extab.text._ZNSt12out_of_rangeD0Ev
                0x00000000        0x0 /Users/Max/android-ndk-r8e/sources/cxx-stl/gnu-libstdc++/4.4.3/libs/armeabi/libgnustl_static.a(stdexcept.o)
 .ARM.exidx.text._ZNSt12out_of_rangeD0Ev
                0x00000000        0x0 /Users/Max/android-ndk-r8e/sources/cxx-stl/gnu-libstdc++/4.4.3/libs/armeabi/libgnustl_static.a(stdexcept.o)
 .text._ZNSt16invalid_argumentD0Ev
                0x00000000        0x0 /Users/Max/android-ndk-r8e/sources/cxx-stl/gnu-libstdc++/4.4.3/libs/armeabi/libgnustl_static.a(stdexcept.o)
 .ARM.extab.text._ZNSt16invalid_argumentD0Ev
                0x00000000        0x0 /Users/Max/android-ndk-r8e/sources/cxx-stl/gnu-libstdc++/4.4.3/libs/armeabi/libgnustl_static.a(stdexcept.o)
 .ARM.exidx.text._ZNSt16invalid_argumentD0Ev
                0x00000000        0x0 /Users/Max/android-ndk-r8e/sources/cxx-stl/gnu-libstdc++/4.4.3/libs/armeabi/libgnustl_static.a(stdexcept.o)
 .data.rel.ro._ZTVSt15underflow_error
                0x00000000        0x0 /Users/Max/android-ndk-r8e/sources/cxx-stl/gnu-libstdc++/4.4.3/libs/armeabi/libgnustl_static.a(stdexcept.o)
 .data.rel.ro._ZTISt15underflow_error
                0x00000000        0x0 /Users/Max/android-ndk-r8e/sources/cxx-stl/gnu-libstdc++/4.4.3/libs/armeabi/libgnustl_static.a(stdexcept.o)
 .rodata._ZTSSt15underflow_error
                0x00000000        0x0 /Users/Max/android-ndk-r8e/sources/cxx-stl/gnu-libstdc++/4.4.3/libs/armeabi/libgnustl_static.a(stdexcept.o)
 .data.rel.ro._ZTVSt14overflow_error
                0x00000000        0x0 /Users/Max/android-ndk-r8e/sources/cxx-stl/gnu-libstdc++/4.4.3/libs/armeabi/libgnustl_static.a(stdexcept.o)
 .data.rel.ro._ZTISt14overflow_error
                0x00000000        0x0 /Users/Max/android-ndk-r8e/sources/cxx-stl/gnu-libstdc++/4.4.3/libs/armeabi/libgnustl_static.a(stdexcept.o)
 .rodata._ZTSSt14overflow_error
                0x00000000        0x0 /Users/Max/android-ndk-r8e/sources/cxx-stl/gnu-libstdc++/4.4.3/libs/armeabi/libgnustl_static.a(stdexcept.o)
 .data.rel.ro._ZTVSt11range_error
                0x00000000        0x0 /Users/Max/android-ndk-r8e/sources/cxx-stl/gnu-libstdc++/4.4.3/libs/armeabi/libgnustl_static.a(stdexcept.o)
 .data.rel.ro._ZTISt11range_error
                0x00000000        0x0 /Users/Max/android-ndk-r8e/sources/cxx-stl/gnu-libstdc++/4.4.3/libs/armeabi/libgnustl_static.a(stdexcept.o)
 .rodata._ZTSSt11range_error
                0x00000000        0x0 /Users/Max/android-ndk-r8e/sources/cxx-stl/gnu-libstdc++/4.4.3/libs/armeabi/libgnustl_static.a(stdexcept.o)
 .data.rel.ro._ZTVSt12out_of_range
                0x00000000        0x0 /Users/Max/android-ndk-r8e/sources/cxx-stl/gnu-libstdc++/4.4.3/libs/armeabi/libgnustl_static.a(stdexcept.o)
 .data.rel.ro._ZTISt12out_of_range
                0x00000000        0x0 /Users/Max/android-ndk-r8e/sources/cxx-stl/gnu-libstdc++/4.4.3/libs/armeabi/libgnustl_static.a(stdexcept.o)
 .rodata._ZTSSt12out_of_range
                0x00000000        0x0 /Users/Max/android-ndk-r8e/sources/cxx-stl/gnu-libstdc++/4.4.3/libs/armeabi/libgnustl_static.a(stdexcept.o)
 .data.rel.ro._ZTVSt12length_error
                0x00000000        0x0 /Users/Max/android-ndk-r8e/sources/cxx-stl/gnu-libstdc++/4.4.3/libs/armeabi/libgnustl_static.a(stdexcept.o)
 .data.rel.ro._ZTISt12length_error
                0x00000000        0x0 /Users/Max/android-ndk-r8e/sources/cxx-stl/gnu-libstdc++/4.4.3/libs/armeabi/libgnustl_static.a(stdexcept.o)
 .rodata._ZTSSt12length_error
                0x00000000        0x0 /Users/Max/android-ndk-r8e/sources/cxx-stl/gnu-libstdc++/4.4.3/libs/armeabi/libgnustl_static.a(stdexcept.o)
 .data.rel.ro._ZTVSt16invalid_argument
                0x00000000        0x0 /Users/Max/android-ndk-r8e/sources/cxx-stl/gnu-libstdc++/4.4.3/libs/armeabi/libgnustl_static.a(stdexcept.o)
 .data.rel.ro._ZTISt16invalid_argument
                0x00000000        0x0 /Users/Max/android-ndk-r8e/sources/cxx-stl/gnu-libstdc++/4.4.3/libs/armeabi/libgnustl_static.a(stdexcept.o)
 .rodata._ZTSSt16invalid_argument
                0x00000000        0x0 /Users/Max/android-ndk-r8e/sources/cxx-stl/gnu-libstdc++/4.4.3/libs/armeabi/libgnustl_static.a(stdexcept.o)
 .data.rel.ro._ZTVSt12domain_error
                0x00000000        0x0 /Users/Max/android-ndk-r8e/sources/cxx-stl/gnu-libstdc++/4.4.3/libs/armeabi/libgnustl_static.a(stdexcept.o)
 .data.rel.ro._ZTISt12domain_error
                0x00000000        0x0 /Users/Max/android-ndk-r8e/sources/cxx-stl/gnu-libstdc++/4.4.3/libs/armeabi/libgnustl_static.a(stdexcept.o)
 .rodata._ZTSSt12domain_error
                0x00000000        0x0 /Users/Max/android-ndk-r8e/sources/cxx-stl/gnu-libstdc++/4.4.3/libs/armeabi/libgnustl_static.a(stdexcept.o)
 .note.GNU-stack
                0x00000000        0x0 /Users/Max/android-ndk-r8e/sources/cxx-stl/gnu-libstdc++/4.4.3/libs/armeabi/libgnustl_static.a(stdexcept.o)
 _ZNSt14error_categoryD1Ev
                0x00000000        0x0 /Users/Max/android-ndk-r8e/sources/cxx-stl/gnu-libstdc++/4.4.3/libs/armeabi/libgnustl_static.a(system_error.o)
 _ZNSt14error_categoryD0Ev
                0x00000000        0x0 /Users/Max/android-ndk-r8e/sources/cxx-stl/gnu-libstdc++/4.4.3/libs/armeabi/libgnustl_static.a(system_error.o)
 .note.GNU-stack
                0x00000000        0x0 /Users/Max/android-ndk-r8e/sources/cxx-stl/gnu-libstdc++/4.4.3/libs/armeabi/libgnustl_static.a(system_error.o)
 .note.GNU-stack
                0x00000000        0x0 /Users/Max/android-ndk-r8e/sources/cxx-stl/gnu-libstdc++/4.4.3/libs/armeabi/libgnustl_static.a(bad_cast.o)
 .note.GNU-stack
                0x00000000        0x0 /Users/Max/android-ndk-r8e/sources/cxx-stl/gnu-libstdc++/4.4.3/libs/armeabi/libgnustl_static.a(bad_typeid.o)
 .note.GNU-stack
                0x00000000        0x0 /Users/Max/android-ndk-r8e/sources/cxx-stl/gnu-libstdc++/4.4.3/libs/armeabi/libgnustl_static.a(class_type_info.o)
 .note.GNU-stack
                0x00000000        0x0 /Users/Max/android-ndk-r8e/sources/cxx-stl/gnu-libstdc++/4.4.3/libs/armeabi/libgnustl_static.a(eh_term_handler.o)
 .note.GNU-stack
                0x00000000        0x0 /Users/Max/android-ndk-r8e/sources/cxx-stl/gnu-libstdc++/4.4.3/libs/armeabi/libgnustl_static.a(new_handler.o)
 _ZNK10__cxxabiv117__pbase_type_info15__pointer_catchEPKS0_PPvj
                0x00000000        0x0 /Users/Max/android-ndk-r8e/sources/cxx-stl/gnu-libstdc++/4.4.3/libs/armeabi/libgnustl_static.a(pbase_type_info.o)
 .note.GNU-stack
                0x00000000        0x0 /Users/Max/android-ndk-r8e/sources/cxx-stl/gnu-libstdc++/4.4.3/libs/armeabi/libgnustl_static.a(pbase_type_info.o)
 .note.GNU-stack
                0x00000000        0x0 /Users/Max/android-ndk-r8e/sources/cxx-stl/gnu-libstdc++/4.4.3/libs/armeabi/libgnustl_static.a(vterminate.o)
 .note.GNU-stack
                0x00000000        0x0 /Users/Max/android-ndk-r8e/sources/cxx-stl/gnu-libstdc++/4.4.3/libs/armeabi/libgnustl_static.a(cp-demangle.o)
 .note.GNU-stack
                0x00000000        0x0 /Users/Max/android-ndk-r8e/sources/cxx-stl/gnu-libstdc++/4.4.3/libs/armeabi/libgnustl_static.a(eh_type.o)
 .note.GNU-stack
                0x00000000        0x0 /Users/Max/android-ndk-r8e/toolchains/arm-linux-androideabi-4.4.3/prebuilt/darwin-x86/bin/../lib/gcc/arm-linux-androideabi/4.4.3/libgcc.a(unwind-arm.o)
 .note.GNU-stack
                0x00000000        0x0 /Users/Max/android-ndk-r8e/toolchains/arm-linux-androideabi-4.4.3/prebuilt/darwin-x86/bin/../lib/gcc/arm-linux-androideabi/4.4.3/libgcc.a(libunwind.o)
 .note.GNU-stack
                0x00000000        0x0 /Users/Max/android-ndk-r8e/toolchains/arm-linux-androideabi-4.4.3/prebuilt/darwin-x86/bin/../lib/gcc/arm-linux-androideabi/4.4.3/libgcc.a(pr-support.o)
 .note.GNU-stack
                0x00000000        0x0 /Users/Max/android-ndk-r8e/platforms/android-9/arch-arm/usr/lib/crtend_so.o

Memory Configuration

Name             Origin             Length             Attributes
*default*        0x00000000         0xffffffff

Linker script and memory map

LOAD /Users/Max/android-ndk-r8e/platforms/android-9/arch-arm/usr/lib/crtbegin_so.o
LOAD release/s3ePushWoosh_platform.os
LOAD release/s3ePushWoosh.os
LOAD release/s3ePushWoosh_register.os
LOAD /Applications/Marmalade.app/Contents/s3e/edk/lib/android/libedk.a
LOAD /Applications/Marmalade.app/Contents/s3e/edk/lib/android/libplaceholderplaceholderplaceholderplaceholderplaceholder.so
LOAD /Users/Max/android-ndk-r8e/platforms/android-9/arch-arm/usr/lib/liblog.so
LOAD /Users/Max/android-ndk-r8e/sources/cxx-stl/gnu-libstdc++/4.4.3/libs/armeabi/libgnustl_static.a
LOAD /Users/Max/android-ndk-r8e/toolchains/arm-linux-androideabi-4.4.3/prebuilt/darwin-x86/bin/../lib/gcc/arm-linux-androideabi/4.4.3/libgcc.a
LOAD /Users/Max/android-ndk-r8e/platforms/android-9/arch-arm/usr/lib/libstdc++.so
LOAD /Users/Max/android-ndk-r8e/platforms/android-9/arch-arm/usr/lib/libm.so
LOAD /Users/Max/android-ndk-r8e/platforms/android-9/arch-arm/usr/lib/libc.so
LOAD /Users/Max/android-ndk-r8e/toolchains/arm-linux-androideabi-4.4.3/prebuilt/darwin-x86/bin/../lib/gcc/arm-linux-androideabi/4.4.3/libgcc.a
LOAD /Users/Max/android-ndk-r8e/platforms/android-9/arch-arm/usr/lib/libc.so
LOAD /Users/Max/android-ndk-r8e/platforms/android-9/arch-arm/usr/lib/libdl.so
LOAD /Users/Max/android-ndk-r8e/toolchains/arm-linux-androideabi-4.4.3/prebuilt/darwin-x86/bin/../lib/gcc/arm-linux-androideabi/4.4.3/libgcc.a
LOAD /Users/Max/android-ndk-r8e/platforms/android-9/arch-arm/usr/lib/crtend_so.o
                0x000000f4                . = (0x0 + SIZEOF_HEADERS)

.note.gnu.build-id
 *(.note.gnu.build-id)

.hash           0x000000f4      0x96c
 *(.hash)
 .hash          0x000000f4      0x96c /Users/Max/android-ndk-r8e/platforms/android-9/arch-arm/usr/lib/crtbegin_so.o

.gnu.hash
 *(.gnu.hash)

.dynsym         0x00000a60     0x1520
 *(.dynsym)
 .dynsym        0x00000a60     0x1520 /Users/Max/android-ndk-r8e/platforms/android-9/arch-arm/usr/lib/crtbegin_so.o

.dynstr         0x00001f80     0x19c7
 *(.dynstr)
 .dynstr        0x00001f80     0x19c7 /Users/Max/android-ndk-r8e/platforms/android-9/arch-arm/usr/lib/crtbegin_so.o

.gnu.version    0x00003948        0x0 load address 0x00003947
 *(.gnu.version)
 .gnu.version   0x00000000        0x0 /Users/Max/android-ndk-r8e/platforms/android-9/arch-arm/usr/lib/crtbegin_so.o

.gnu.version_d  0x00003948        0x0 load address 0x00003947
 *(.gnu.version_d)
 .gnu.version_d
                0x00000000        0x0 /Users/Max/android-ndk-r8e/platforms/android-9/arch-arm/usr/lib/crtbegin_so.o

.gnu.version_r  0x00003948        0x0 load address 0x00003947
 *(.gnu.version_r)
 .gnu.version_r
                0x00000000        0x0 /Users/Max/android-ndk-r8e/platforms/android-9/arch-arm/usr/lib/crtbegin_so.o

.rel.dyn        0x00003948     0x14b8
 *(.rel.init)
 *(.rel.text .rel.text.* .rel.gnu.linkonce.t.*)
 *(.rel.fini)
 *(.rel.rodata .rel.rodata.* .rel.gnu.linkonce.r.*)
 *(.rel.data.rel.ro* .rel.gnu.linkonce.d.rel.ro.*)
 .rel.data.rel.ro
                0x00003948       0x48 /Users/Max/android-ndk-r8e/platforms/android-9/arch-arm/usr/lib/crtbegin_so.o
 .rel.data.rel.ro._ZTIN9__gnu_cxx24__concurrence_lock_errorE
                0x00003990       0x18 /Users/Max/android-ndk-r8e/platforms/android-9/arch-arm/usr/lib/crtbegin_so.o
 .rel.data.rel.ro._ZTVN9__gnu_cxx24__concurrence_lock_errorE
                0x000039a8       0x20 /Users/Max/android-ndk-r8e/platforms/android-9/arch-arm/usr/lib/crtbegin_so.o
 .rel.data.rel.ro._ZTIN9__gnu_cxx26__concurrence_unlock_errorE
                0x000039c8       0x18 /Users/Max/android-ndk-r8e/platforms/android-9/arch-arm/usr/lib/crtbegin_so.o
 .rel.data.rel.ro._ZTVN9__gnu_cxx26__concurrence_unlock_errorE
                0x000039e0       0x20 /Users/Max/android-ndk-r8e/platforms/android-9/arch-arm/usr/lib/crtbegin_so.o
 .rel.data.rel.ro._ZTIN10__cxxabiv115__forced_unwindE
                0x00003a00       0x10 /Users/Max/android-ndk-r8e/platforms/android-9/arch-arm/usr/lib/crtbegin_so.o
 .rel.data.rel.ro._ZTISt9exception
                0x00003a10       0x10 /Users/Max/android-ndk-r8e/platforms/android-9/arch-arm/usr/lib/crtbegin_so.o
 .rel.data.rel.ro._ZTVSt13bad_exception
                0x00003a20       0x20 /Users/Max/android-ndk-r8e/platforms/android-9/arch-arm/usr/lib/crtbegin_so.o
 .rel.data.rel.ro._ZTISt13bad_exception
                0x00003a40       0x18 /Users/Max/android-ndk-r8e/platforms/android-9/arch-arm/usr/lib/crtbegin_so.o
 .rel.data.rel.ro._ZTIN10__cxxabiv119__foreign_exceptionE
                0x00003a58       0x10 /Users/Max/android-ndk-r8e/platforms/android-9/arch-arm/usr/lib/crtbegin_so.o
 .rel.data.rel.ro._ZTVN10__cxxabiv115__forced_unwindE
                0x00003a68       0x20 /Users/Max/android-ndk-r8e/platforms/android-9/arch-arm/usr/lib/crtbegin_so.o
 .rel.data.rel.ro._ZTVN10__cxxabiv119__foreign_exceptionE
                0x00003a88       0x20 /Users/Max/android-ndk-r8e/platforms/android-9/arch-arm/usr/lib/crtbegin_so.o
 .rel.data.rel.ro._ZTVSt9exception
                0x00003aa8       0x20 /Users/Max/android-ndk-r8e/platforms/android-9/arch-arm/usr/lib/crtbegin_so.o
 .rel.data.rel.ro._ZTIPKe
                0x00003ac8       0x18 /Users/Max/android-ndk-r8e/platforms/android-9/arch-arm/usr/lib/crtbegin_so.o
 .rel.data.rel.ro._ZTIPe
                0x00003ae0       0x18 /Users/Max/android-ndk-r8e/platforms/android-9/arch-arm/usr/lib/crtbegin_so.o
 .rel.data.rel.ro._ZTIe
                0x00003af8       0x10 /Users/Max/android-ndk-r8e/platforms/android-9/arch-arm/usr/lib/crtbegin_so.o
 .rel.data.rel.ro._ZTIPKd
                0x00003b08       0x18 /Users/Max/android-ndk-r8e/platforms/android-9/arch-arm/usr/lib/crtbegin_so.o
 .rel.data.rel.ro._ZTIPd
                0x00003b20       0x18 /Users/Max/android-ndk-r8e/platforms/android-9/arch-arm/usr/lib/crtbegin_so.o
 .rel.data.rel.ro._ZTId
                0x00003b38       0x10 /Users/Max/android-ndk-r8e/platforms/android-9/arch-arm/usr/lib/crtbegin_so.o
 .rel.data.rel.ro._ZTIPKf
                0x00003b48       0x18 /Users/Max/android-ndk-r8e/platforms/android-9/arch-arm/usr/lib/crtbegin_so.o
 .rel.data.rel.ro._ZTIPf
                0x00003b60       0x18 /Users/Max/android-ndk-r8e/platforms/android-9/arch-arm/usr/lib/crtbegin_so.o
 .rel.data.rel.ro._ZTIf
                0x00003b78       0x10 /Users/Max/android-ndk-r8e/platforms/android-9/arch-arm/usr/lib/crtbegin_so.o
 .rel.data.rel.ro._ZTIPKy
                0x00003b88       0x18 /Users/Max/android-ndk-r8e/platforms/android-9/arch-arm/usr/lib/crtbegin_so.o
 .rel.data.rel.ro._ZTIPy
                0x00003ba0       0x18 /Users/Max/android-ndk-r8e/platforms/android-9/arch-arm/usr/lib/crtbegin_so.o
 .rel.data.rel.ro._ZTIy
                0x00003bb8       0x10 /Users/Max/android-ndk-r8e/platforms/android-9/arch-arm/usr/lib/crtbegin_so.o
 .rel.data.rel.ro._ZTIPKx
                0x00003bc8       0x18 /Users/Max/android-ndk-r8e/platforms/android-9/arch-arm/usr/lib/crtbegin_so.o
 .rel.data.rel.ro._ZTIPx
                0x00003be0       0x18 /Users/Max/android-ndk-r8e/platforms/android-9/arch-arm/usr/lib/crtbegin_so.o
 .rel.data.rel.ro._ZTIx
                0x00003bf8       0x10 /Users/Max/android-ndk-r8e/platforms/android-9/arch-arm/usr/lib/crtbegin_so.o
 .rel.data.rel.ro._ZTIPKm
                0x00003c08       0x18 /Users/Max/android-ndk-r8e/platforms/android-9/arch-arm/usr/lib/crtbegin_so.o
 .rel.data.rel.ro._ZTIPm
                0x00003c20       0x18 /Users/Max/android-ndk-r8e/platforms/android-9/arch-arm/usr/lib/crtbegin_so.o
 .rel.data.rel.ro._ZTIm
                0x00003c38       0x10 /Users/Max/android-ndk-r8e/platforms/android-9/arch-arm/usr/lib/crtbegin_so.o
 .rel.data.rel.ro._ZTIPKl
                0x00003c48       0x18 /Users/Max/android-ndk-r8e/platforms/android-9/arch-arm/usr/lib/crtbegin_so.o
 .rel.data.rel.ro._ZTIPl
                0x00003c60       0x18 /Users/Max/android-ndk-r8e/platforms/android-9/arch-arm/usr/lib/crtbegin_so.o
 .rel.data.rel.ro._ZTIl
                0x00003c78       0x10 /Users/Max/android-ndk-r8e/platforms/android-9/arch-arm/usr/lib/crtbegin_so.o
 .rel.data.rel.ro._ZTIPKj
                0x00003c88       0x18 /Users/Max/android-ndk-r8e/platforms/android-9/arch-arm/usr/lib/crtbegin_so.o
 .rel.data.rel.ro._ZTIPj
                0x00003ca0       0x18 /Users/Max/android-ndk-r8e/platforms/android-9/arch-arm/usr/lib/crtbegin_so.o
 .rel.data.rel.ro._ZTIj
                0x00003cb8       0x10 /Users/Max/android-ndk-r8e/platforms/android-9/arch-arm/usr/lib/crtbegin_so.o
 .rel.data.rel.ro._ZTIPKi
                0x00003cc8       0x18 /Users/Max/android-ndk-r8e/platforms/android-9/arch-arm/usr/lib/crtbegin_so.o
 .rel.data.rel.ro._ZTIPi
                0x00003ce0       0x18 /Users/Max/android-ndk-r8e/platforms/android-9/arch-arm/usr/lib/crtbegin_so.o
 .rel.data.rel.ro._ZTIi
                0x00003cf8       0x10 /Users/Max/android-ndk-r8e/platforms/android-9/arch-arm/usr/lib/crtbegin_so.o
 .rel.data.rel.ro._ZTIPKt
                0x00003d08       0x18 /Users/Max/android-ndk-r8e/platforms/android-9/arch-arm/usr/lib/crtbegin_so.o
 .rel.data.rel.ro._ZTIPt
                0x00003d20       0x18 /Users/Max/android-ndk-r8e/platforms/android-9/arch-arm/usr/lib/crtbegin_so.o
 .rel.data.rel.ro._ZTIt
                0x00003d38       0x10 /Users/Max/android-ndk-r8e/platforms/android-9/arch-arm/usr/lib/crtbegin_so.o
 .rel.data.rel.ro._ZTIPKs
                0x00003d48       0x18 /Users/Max/android-ndk-r8e/platforms/android-9/arch-arm/usr/lib/crtbegin_so.o
 .rel.data.rel.ro._ZTIPs
                0x00003d60       0x18 /Users/Max/android-ndk-r8e/platforms/android-9/arch-arm/usr/lib/crtbegin_so.o
 .rel.data.rel.ro._ZTIs
                0x00003d78       0x10 /Users/Max/android-ndk-r8e/platforms/android-9/arch-arm/usr/lib/crtbegin_so.o
 .rel.data.rel.ro._ZTIPKh
                0x00003d88       0x18 /Users/Max/android-ndk-r8e/platforms/android-9/arch-arm/usr/lib/crtbegin_so.o
 .rel.data.rel.ro._ZTIPh
                0x00003da0       0x18 /Users/Max/android-ndk-r8e/platforms/android-9/arch-arm/usr/lib/crtbegin_so.o
 .rel.data.rel.ro._ZTIh
                0x00003db8       0x10 /Users/Max/android-ndk-r8e/platforms/android-9/arch-arm/usr/lib/crtbegin_so.o
 .rel.data.rel.ro._ZTIPKa
                0x00003dc8       0x18 /Users/Max/android-ndk-r8e/platforms/android-9/arch-arm/usr/lib/crtbegin_so.o
 .rel.data.rel.ro._ZTIPa
                0x00003de0       0x18 /Users/Max/android-ndk-r8e/platforms/android-9/arch-arm/usr/lib/crtbegin_so.o
 .rel.data.rel.ro._ZTIa
                0x00003df8       0x10 /Users/Max/android-ndk-r8e/platforms/android-9/arch-arm/usr/lib/crtbegin_so.o
 .rel.data.rel.ro._ZTIPKc
                0x00003e08       0x18 /Users/Max/android-ndk-r8e/platforms/android-9/arch-arm/usr/lib/crtbegin_so.o
 .rel.data.rel.ro._ZTIPc
                0x00003e20       0x18 /Users/Max/android-ndk-r8e/platforms/android-9/arch-arm/usr/lib/crtbegin_so.o
 .rel.data.rel.ro._ZTIc
                0x00003e38       0x10 /Users/Max/android-ndk-r8e/platforms/android-9/arch-arm/usr/lib/crtbegin_so.o
 .rel.data.rel.ro._ZTIPKDi
                0x00003e48       0x18 /Users/Max/android-ndk-r8e/platforms/android-9/arch-arm/usr/lib/crtbegin_so.o
 .rel.data.rel.ro._ZTIPDi
                0x00003e60       0x18 /Users/Max/android-ndk-r8e/platforms/android-9/arch-arm/usr/lib/crtbegin_so.o
 .rel.data.rel.ro._ZTIDi
                0x00003e78       0x10 /Users/Max/android-ndk-r8e/platforms/android-9/arch-arm/usr/lib/crtbegin_so.o
 .rel.data.rel.ro._ZTIPKDs
                0x00003e88       0x18 /Users/Max/android-ndk-r8e/platforms/android-9/arch-arm/usr/lib/crtbegin_so.o
 .rel.data.rel.ro._ZTIPDs
                0x00003ea0       0x18 /Users/Max/android-ndk-r8e/platforms/android-9/arch-arm/usr/lib/crtbegin_so.o
 .rel.data.rel.ro._ZTIDs
                0x00003eb8       0x10 /Users/Max/android-ndk-r8e/platforms/android-9/arch-arm/usr/lib/crtbegin_so.o
 .rel.data.rel.ro._ZTIPKw
                0x00003ec8       0x18 /Users/Max/android-ndk-r8e/platforms/android-9/arch-arm/usr/lib/crtbegin_so.o
 .rel.data.rel.ro._ZTIPw
                0x00003ee0       0x18 /Users/Max/android-ndk-r8e/platforms/android-9/arch-arm/usr/lib/crtbegin_so.o
 .rel.data.rel.ro._ZTIw
                0x00003ef8       0x10 /Users/Max/android-ndk-r8e/platforms/android-9/arch-arm/usr/lib/crtbegin_so.o
 .rel.data.rel.ro._ZTIPKb
                0x00003f08       0x18 /Users/Max/android-ndk-r8e/platforms/android-9/arch-arm/usr/lib/crtbegin_so.o
 .rel.data.rel.ro._ZTIPb
                0x00003f20       0x18 /Users/Max/android-ndk-r8e/platforms/android-9/arch-arm/usr/lib/crtbegin_so.o
 .rel.data.rel.ro._ZTIb
                0x00003f38       0x10 /Users/Max/android-ndk-r8e/platforms/android-9/arch-arm/usr/lib/crtbegin_so.o
 .rel.data.rel.ro._ZTIPKv
                0x00003f48       0x18 /Users/Max/android-ndk-r8e/platforms/android-9/arch-arm/usr/lib/crtbegin_so.o
 .rel.data.rel.ro._ZTIPv
                0x00003f60       0x18 /Users/Max/android-ndk-r8e/platforms/android-9/arch-arm/usr/lib/crtbegin_so.o
 .rel.data.rel.ro._ZTIv
                0x00003f78       0x10 /Users/Max/android-ndk-r8e/platforms/android-9/arch-arm/usr/lib/crtbegin_so.o
 .rel.data.rel.ro._ZTVN10__cxxabiv123__fundamental_type_infoE
                0x00003f88       0x38 /Users/Max/android-ndk-r8e/platforms/android-9/arch-arm/usr/lib/crtbegin_so.o
 .rel.data.rel.ro._ZTIN10__cxxabiv123__fundamental_type_infoE
                0x00003fc0       0x18 /Users/Max/android-ndk-r8e/platforms/android-9/arch-arm/usr/lib/crtbegin_so.o
 .rel.data.rel.ro._ZTIN9__gnu_cxx29__concurrence_broadcast_errorE
                0x00003fd8       0x18 /Users/Max/android-ndk-r8e/platforms/android-9/arch-arm/usr/lib/crtbegin_so.o
 .rel.data.rel.ro._ZTVN9__gnu_cxx29__concurrence_broadcast_errorE
                0x00003ff0       0x20 /Users/Max/android-ndk-r8e/platforms/android-9/arch-arm/usr/lib/crtbegin_so.o
 .rel.data.rel.ro._ZTIN9__gnu_cxx24__concurrence_wait_errorE
                0x00004010       0x18 /Users/Max/android-ndk-r8e/platforms/android-9/arch-arm/usr/lib/crtbegin_so.o
 .rel.data.rel.ro._ZTVN9__gnu_cxx24__concurrence_wait_errorE
                0x00004028       0x20 /Users/Max/android-ndk-r8e/platforms/android-9/arch-arm/usr/lib/crtbegin_so.o
 .rel.data.rel.ro._ZTVN9__gnu_cxx20recursive_init_errorE
                0x00004048       0x20 /Users/Max/android-ndk-r8e/platforms/android-9/arch-arm/usr/lib/crtbegin_so.o
 .rel.data.rel.ro._ZTIN9__gnu_cxx20recursive_init_errorE
                0x00004068       0x18 /Users/Max/android-ndk-r8e/platforms/android-9/arch-arm/usr/lib/crtbegin_so.o
 .rel.data.rel.ro._ZTIN10__cxxabiv119__pointer_type_infoE
                0x00004080       0x18 /Users/Max/android-ndk-r8e/platforms/android-9/arch-arm/usr/lib/crtbegin_so.o
 .rel.data.rel.ro._ZTVN10__cxxabiv119__pointer_type_infoE
                0x00004098       0x40 /Users/Max/android-ndk-r8e/platforms/android-9/arch-arm/usr/lib/crtbegin_so.o
 .rel.data.rel.ro._ZTVN10__cxxabiv120__si_class_type_infoE
                0x000040d8       0x50 /Users/Max/android-ndk-r8e/platforms/android-9/arch-arm/usr/lib/crtbegin_so.o
 .rel.data.rel.ro._ZTIN10__cxxabiv120__si_class_type_infoE
                0x00004128       0x18 /Users/Max/android-ndk-r8e/platforms/android-9/arch-arm/usr/lib/crtbegin_so.o
 .rel.data.rel.ro._ZTVSt9type_info
                0x00004140       0x38 /Users/Max/android-ndk-r8e/platforms/android-9/arch-arm/usr/lib/crtbegin_so.o
 .rel.data.rel.ro._ZTISt9type_info
                0x00004178       0x10 /Users/Max/android-ndk-r8e/platforms/android-9/arch-arm/usr/lib/crtbegin_so.o
 .rel.data.rel.ro._ZTISt15underflow_error
                0x00004188       0x18 /Users/Max/android-ndk-r8e/platforms/android-9/arch-arm/usr/lib/crtbegin_so.o
 .rel.data.rel.ro._ZTVSt15underflow_error
                0x000041a0       0x20 /Users/Max/android-ndk-r8e/platforms/android-9/arch-arm/usr/lib/crtbegin_so.o
 .rel.data.rel.ro._ZTISt14overflow_error
                0x000041c0       0x18 /Users/Max/android-ndk-r8e/platforms/android-9/arch-arm/usr/lib/crtbegin_so.o
 .rel.data.rel.ro._ZTVSt14overflow_error
                0x000041d8       0x20 /Users/Max/android-ndk-r8e/platforms/android-9/arch-arm/usr/lib/crtbegin_so.o
 .rel.data.rel.ro._ZTISt11range_error
                0x000041f8       0x18 /Users/Max/android-ndk-r8e/platforms/android-9/arch-arm/usr/lib/crtbegin_so.o
 .rel.data.rel.ro._ZTVSt11range_error
                0x00004210       0x20 /Users/Max/android-ndk-r8e/platforms/android-9/arch-arm/usr/lib/crtbegin_so.o
 .rel.data.rel.ro._ZTISt12out_of_range
                0x00004230       0x18 /Users/Max/android-ndk-r8e/platforms/android-9/arch-arm/usr/lib/crtbegin_so.o
 .rel.data.rel.ro._ZTVSt12out_of_range
                0x00004248       0x20 /Users/Max/android-ndk-r8e/platforms/android-9/arch-arm/usr/lib/crtbegin_so.o
 .rel.data.rel.ro._ZTISt12length_error
                0x00004268       0x18 /Users/Max/android-ndk-r8e/platforms/android-9/arch-arm/usr/lib/crtbegin_so.o
 .rel.data.rel.ro._ZTVSt12length_error
                0x00004280       0x20 /Users/Max/android-ndk-r8e/platforms/android-9/arch-arm/usr/lib/crtbegin_so.o
 .rel.data.rel.ro._ZTISt16invalid_argument
                0x000042a0       0x18 /Users/Max/android-ndk-r8e/platforms/android-9/arch-arm/usr/lib/crtbegin_so.o
 .rel.data.rel.ro._ZTVSt16invalid_argument
                0x000042b8       0x20 /Users/Max/android-ndk-r8e/platforms/android-9/arch-arm/usr/lib/crtbegin_so.o
 .rel.data.rel.ro._ZTISt12domain_error
                0x000042d8       0x18 /Users/Max/android-ndk-r8e/platforms/android-9/arch-arm/usr/lib/crtbegin_so.o
 .rel.data.rel.ro._ZTVSt12domain_error
                0x000042f0       0x20 /Users/Max/android-ndk-r8e/platforms/android-9/arch-arm/usr/lib/crtbegin_so.o
 .rel.data.rel.ro._ZTVNSt8ios_base7failureE
                0x00004310       0x20 /Users/Max/android-ndk-r8e/platforms/android-9/arch-arm/usr/lib/crtbegin_so.o
 .rel.data.rel.ro._ZTINSt8ios_base7failureE
                0x00004330       0x18 /Users/Max/android-ndk-r8e/platforms/android-9/arch-arm/usr/lib/crtbegin_so.o
 .rel.data.rel.ro._ZTISt13runtime_error
                0x00004348       0x18 /Users/Max/android-ndk-r8e/platforms/android-9/arch-arm/usr/lib/crtbegin_so.o
 .rel.data.rel.ro._ZTVSt11logic_error
                0x00004360       0x20 /Users/Max/android-ndk-r8e/platforms/android-9/arch-arm/usr/lib/crtbegin_so.o
 .rel.data.rel.ro._ZTVSt13runtime_error
                0x00004380       0x20 /Users/Max/android-ndk-r8e/platforms/android-9/arch-arm/usr/lib/crtbegin_so.o
 .rel.data.rel.ro._ZTISt11logic_error
                0x000043a0       0x18 /Users/Max/android-ndk-r8e/platforms/android-9/arch-arm/usr/lib/crtbegin_so.o
 .rel.data.rel.ro._ZTIN12_GLOBAL__N_121system_error_categoryE
                0x000043b8       0x18 /Users/Max/android-ndk-r8e/platforms/android-9/arch-arm/usr/lib/crtbegin_so.o
 .rel.data.rel.ro._ZTVSt12system_error
                0x000043d0       0x20 /Users/Max/android-ndk-r8e/platforms/android-9/arch-arm/usr/lib/crtbegin_so.o
 .rel.data.rel.ro._ZTVSt14error_category
                0x000043f0       0x40 /Users/Max/android-ndk-r8e/platforms/android-9/arch-arm/usr/lib/crtbegin_so.o
 .rel.data.rel.ro._ZTISt12system_error
                0x00004430       0x18 /Users/Max/android-ndk-r8e/platforms/android-9/arch-arm/usr/lib/crtbegin_so.o
 .rel.data.rel.ro._ZTVN12_GLOBAL__N_122generic_error_categoryE
                0x00004448       0x40 /Users/Max/android-ndk-r8e/platforms/android-9/arch-arm/usr/lib/crtbegin_so.o
 .rel.data.rel.ro._ZTISt14error_category
                0x00004488       0x10 /Users/Max/android-ndk-r8e/platforms/android-9/arch-arm/usr/lib/crtbegin_so.o
 .rel.data.rel.ro._ZTIN12_GLOBAL__N_122generic_error_categoryE
                0x00004498       0x18 /Users/Max/android-ndk-r8e/platforms/android-9/arch-arm/usr/lib/crtbegin_so.o
 .rel.data.rel.ro._ZTVN12_GLOBAL__N_121system_error_categoryE
                0x000044b0       0x40 /Users/Max/android-ndk-r8e/platforms/android-9/arch-arm/usr/lib/crtbegin_so.o
 .rel.data.rel.ro._ZTISt8bad_cast
                0x000044f0       0x18 /Users/Max/android-ndk-r8e/platforms/android-9/arch-arm/usr/lib/crtbegin_so.o
 .rel.data.rel.ro._ZTVSt8bad_cast
                0x00004508       0x20 /Users/Max/android-ndk-r8e/platforms/android-9/arch-arm/usr/lib/crtbegin_so.o
 .rel.data.rel.ro._ZTVSt10bad_typeid
                0x00004528       0x20 /Users/Max/android-ndk-r8e/platforms/android-9/arch-arm/usr/lib/crtbegin_so.o
 .rel.data.rel.ro._ZTISt10bad_typeid
                0x00004548       0x18 /Users/Max/android-ndk-r8e/platforms/android-9/arch-arm/usr/lib/crtbegin_so.o
 .rel.data.rel.ro._ZTVN10__cxxabiv117__class_type_infoE
                0x00004560       0x50 /Users/Max/android-ndk-r8e/platforms/android-9/arch-arm/usr/lib/crtbegin_so.o
 .rel.data.rel.ro._ZTIN10__cxxabiv117__class_type_infoE
                0x000045b0       0x18 /Users/Max/android-ndk-r8e/platforms/android-9/arch-arm/usr/lib/crtbegin_so.o
 .rel.data.rel.ro._ZTISt9bad_alloc
                0x000045c8       0x18 /Users/Max/android-ndk-r8e/platforms/android-9/arch-arm/usr/lib/crtbegin_so.o
 .rel.data.rel.ro._ZTVSt9bad_alloc
                0x000045e0       0x20 /Users/Max/android-ndk-r8e/platforms/android-9/arch-arm/usr/lib/crtbegin_so.o
 .rel.data.rel.ro._ZTVN10__cxxabiv117__pbase_type_infoE
                0x00004600       0x40 /Users/Max/android-ndk-r8e/platforms/android-9/arch-arm/usr/lib/crtbegin_so.o
 .rel.data.rel.ro._ZTIN10__cxxabiv117__pbase_type_infoE
                0x00004640       0x18 /Users/Max/android-ndk-r8e/platforms/android-9/arch-arm/usr/lib/crtbegin_so.o
 .rel.data.rel.ro.local
                0x00004658      0x590 /Users/Max/android-ndk-r8e/platforms/android-9/arch-arm/usr/lib/crtbegin_so.o
 *(.rel.data .rel.data.* .rel.gnu.linkonce.d.*)
 .rel.data.rel._ZN10__cxxabiv120__unexpected_handlerE
                0x00004be8        0x8 /Users/Max/android-ndk-r8e/platforms/android-9/arch-arm/usr/lib/crtbegin_so.o
 .rel.data.rel._ZN10__cxxabiv119__terminate_handlerE
                0x00004bf0        0x8 /Users/Max/android-ndk-r8e/platforms/android-9/arch-arm/usr/lib/crtbegin_so.o
 *(.rel.tdata .rel.tdata.* .rel.gnu.linkonce.td.*)
 *(.rel.tbss .rel.tbss.* .rel.gnu.linkonce.tb.*)
 *(.rel.ctors)
 *(.rel.dtors)
 *(.rel.got)
 .rel.got       0x00004bf8      0x1e0 /Users/Max/android-ndk-r8e/platforms/android-9/arch-arm/usr/lib/crtbegin_so.o
 *(.rel.bss .rel.bss.* .rel.gnu.linkonce.b.*)
 .rel.fini_array
                0x00004dd8        0x8 /Users/Max/android-ndk-r8e/platforms/android-9/arch-arm/usr/lib/crtbegin_so.o
 .rel.init_array
                0x00004de0       0x20 /Users/Max/android-ndk-r8e/platforms/android-9/arch-arm/usr/lib/crtbegin_so.o

.rela.dyn
 *(.rela.init)
 *(.rela.text .rela.text.* .rela.gnu.linkonce.t.*)
 *(.rela.fini)
 *(.rela.rodata .rela.rodata.* .rela.gnu.linkonce.r.*)
 *(.rela.data .rela.data.* .rela.gnu.linkonce.d.*)
 *(.rela.tdata .rela.tdata.* .rela.gnu.linkonce.td.*)
 *(.rela.tbss .rela.tbss.* .rela.gnu.linkonce.tb.*)
 *(.rela.ctors)
 *(.rela.dtors)
 *(.rela.got)
 *(.rela.bss .rela.bss.* .rela.gnu.linkonce.b.*)

.rel.plt        0x00004e00      0x140
 *(.rel.plt)
 .rel.plt       0x00004e00      0x140 /Users/Max/android-ndk-r8e/platforms/android-9/arch-arm/usr/lib/crtbegin_so.o

.rela.plt
 *(.rela.plt)

.init
 *(.init)

.plt            0x00004f40      0x1f4
 *(.plt)
 .plt           0x00004f40      0x1f4 /Users/Max/android-ndk-r8e/platforms/android-9/arch-arm/usr/lib/crtbegin_so.o

.text           0x00005134     0xe7b8
 *(.text .stub .text.* .gnu.linkonce.t.*)
 .text          0x00005134       0x14 /Users/Max/android-ndk-r8e/platforms/android-9/arch-arm/usr/lib/crtbegin_so.o
                0x00005134                atexit
 .text.exit     0x00005148       0x10 /Users/Max/android-ndk-r8e/platforms/android-9/arch-arm/usr/lib/crtbegin_so.o
                0x00005148                __on_dlclose
 .text          0x00005158      0xdb0 release/s3ePushWoosh_platform.os
                0x000053cc                _Z43s3ePushWooshNotificationUnRegister_platformv
                0x00005e1c                _Z35native_onNotificationsRegisterErrorP7_JNIEnvP7_jclassP8_jstring
                0x0000541c                _Z41s3ePushWooshNotificationRegister_platformv
                0x0000555c                _Z52s3ePushWooshSetAndroidNotificationMultiMode_platformb
                0x0000546c                _Z43s3ePushWooshNotificationsAvailable_platformv
                0x0000532c                _Z52s3ePushWooshNotificationRegisterWithPWAppID_platformPKc
                0x000055b4                _Z42s3ePushWooshNotificationSetIntTag_platformPKci
                0x0000515c                _Z47s3ePushWooshNotificationSetBadgeNumber_platformi
                0x0000562c                _Z45s3ePushWooshNotificationSetStringTag_platformPKcS0_
                0x00005d30                _Z21native_onPushReceivedP7_JNIEnvP7_jclassP8_jstringS4_
                0x00005248                _Z32native_onNotificationsRegisteredP7_JNIEnvP7_jclassP8_jstring
                0x000051e8                _Z13callbackPausePvS_
                0x0000550c                _Z42s3ePushWooshStartLocationTracking_platformv
                0x00005cd0                _Z15callbackUnpausePvS_
                0x00005158                _Z30s3ePushWooshTerminate_platformv
                0x000056bc                _Z46s3ePushWooshScheduleLocalNotification_platformPKciS0_
                0x0000537c                _Z44s3ePushWooshClearLocalNotifications_platformv
                0x000054bc                _Z41s3ePushWooshStopLocationTracking_platformv
                0x000058bc                _Z25s3ePushWooshInit_platformv
                0x0000575c                _Z29s3ePushWooshGetToken_platformv
 .text._ZN7_JNIEnv11GetMethodIDEP7_jclassPKcS3_
                0x00005f08       0x14 release/s3ePushWoosh_platform.os
                0x00005f08                _ZN7_JNIEnv11GetMethodIDEP7_jclassPKcS3_
 .text._ZN7_JNIEnv13CallIntMethodEP8_jobjectP10_jmethodIDz
                0x00005f1c       0x34 release/s3ePushWoosh_platform.os
                0x00005f1c                _ZN7_JNIEnv13CallIntMethodEP8_jobjectP10_jmethodIDz
 .text._ZN7_JNIEnv16CallObjectMethodEP8_jobjectP10_jmethodIDz
                0x00005f50       0x34 release/s3ePushWoosh_platform.os
                0x00005f50                _ZN7_JNIEnv16CallObjectMethodEP8_jobjectP10_jmethodIDz
 .text._ZN7_JNIEnv17CallBooleanMethodEP8_jobjectP10_jmethodIDz
                0x00005f84       0x34 release/s3ePushWoosh_platform.os
                0x00005f84                _ZN7_JNIEnv17CallBooleanMethodEP8_jobjectP10_jmethodIDz
 .text._ZN7_JNIEnv9NewObjectEP7_jclassP10_jmethodIDz
                0x00005fb8       0x34 release/s3ePushWoosh_platform.os
                0x00005fb8                _ZN7_JNIEnv9NewObjectEP7_jclassP10_jmethodIDz
 .text._ZN7_JNIEnv14CallVoidMethodEP8_jobjectP10_jmethodIDz
                0x00005fec       0x34 release/s3ePushWoosh_platform.os
                0x00005fec                _ZN7_JNIEnv14CallVoidMethodEP8_jobjectP10_jmethodIDz
 .text          0x00006020       0x3c release/s3ePushWoosh.os
                0x00006040                s3ePushWooshNotificationUnRegister
                0x00006038                s3ePushWooshNotificationSetStringTag
                0x00006050                s3ePushWooshNotificationsAvailable
                0x00006030                s3ePushWooshStartLocationTracking
                0x00006054                _Z21s3ePushWooshTerminatev
                0x0000602c                s3ePushWooshStopLocationTracking
                0x0000603c                s3ePushWooshNotificationSetIntTag
                0x00006024                s3ePushWooshSetAndroidNotificationMultiMode
                0x0000604c                s3ePushWooshNotificationRegister
                0x00006044                s3ePushWooshGetToken
                0x00006028                s3ePushWooshScheduleLocalNotification
                0x00006048                s3ePushWooshNotificationRegisterWithPWAppID
                0x00006020                s3ePushWooshNotificationSetBadgeNumber
                0x00006034                s3ePushWooshClearLocalNotifications
                0x00006058                _Z16s3ePushWooshInitv
 .text          0x0000605c      0x3a4 release/s3ePushWoosh_register.os
                0x0000605c                _Z23s3ePushWooshRegisterExtv
                0x0000622c                s3ePushWooshRegister
                0x000061fc                s3ePushWooshUnRegister
                0x00006260                RegisterExt
 .text          0x00006400        0x0 /Applications/Marmalade.app/Contents/s3e/edk/lib/android/libedk.a(edk_helpers.o)
 .text.s3eEdkThreadRunOnOSAsync
                0x00006400       0x30 /Applications/Marmalade.app/Contents/s3e/edk/lib/android/libedk.a(edk_helpers.o)
                0x00006400                s3eEdkThreadRunOnOSAsync
 .text.s3eEdkThreadRunOnOS
                0x00006430       0x30 /Applications/Marmalade.app/Contents/s3e/edk/lib/android/libedk.a(edk_helpers.o)
                0x00006430                s3eEdkThreadRunOnOS
 .text.s3eEdkErrorSetString
                0x00006460       0x30 /Applications/Marmalade.app/Contents/s3e/edk/lib/android/libedk.a(edk_helpers.o)
                0x00006460                s3eEdkErrorSetString
 .text          0x00006490        0x0 /Users/Max/android-ndk-r8e/sources/cxx-stl/gnu-libstdc++/4.4.3/libs/armeabi/libgnustl_static.a(string-inst.o)
 .text._ZNKSs7_M_dataEv
                0x00006490        0x8 /Users/Max/android-ndk-r8e/sources/cxx-stl/gnu-libstdc++/4.4.3/libs/armeabi/libgnustl_static.a(string-inst.o)
                0x00006490                _ZNKSs7_M_dataEv
 .text._ZNSs7_M_dataEPc
                0x00006498        0xc /Users/Max/android-ndk-r8e/sources/cxx-stl/gnu-libstdc++/4.4.3/libs/armeabi/libgnustl_static.a(string-inst.o)
                0x00006498                _ZNSs7_M_dataEPc
 .text._ZNKSs6_M_repEv
                0x000064a4        0xc /Users/Max/android-ndk-r8e/sources/cxx-stl/gnu-libstdc++/4.4.3/libs/armeabi/libgnustl_static.a(string-inst.o)
                0x000064a4                _ZNKSs6_M_repEv
 .text._ZNKSs9_M_ibeginEv
                0x000064b0        0x8 /Users/Max/android-ndk-r8e/sources/cxx-stl/gnu-libstdc++/4.4.3/libs/armeabi/libgnustl_static.a(string-inst.o)
                0x000064b0                _ZNKSs9_M_ibeginEv
 .text._ZNKSs7_M_iendEv
                0x000064b8       0x10 /Users/Max/android-ndk-r8e/sources/cxx-stl/gnu-libstdc++/4.4.3/libs/armeabi/libgnustl_static.a(string-inst.o)
                0x000064b8                _ZNKSs7_M_iendEv
 .text._ZNKSs8_M_limitEjj
                0x000064c8       0x18 /Users/Max/android-ndk-r8e/sources/cxx-stl/gnu-libstdc++/4.4.3/libs/armeabi/libgnustl_static.a(string-inst.o)
                0x000064c8                _ZNKSs8_M_limitEjj
 .text._ZNKSs11_M_disjunctEPKc
                0x000064e0       0x28 /Users/Max/android-ndk-r8e/sources/cxx-stl/gnu-libstdc++/4.4.3/libs/armeabi/libgnustl_static.a(string-inst.o)
                0x000064e0                _ZNKSs11_M_disjunctEPKc
 .text._ZNSs10_S_compareEjj
                0x00006508        0x8 /Users/Max/android-ndk-r8e/sources/cxx-stl/gnu-libstdc++/4.4.3/libs/armeabi/libgnustl_static.a(string-inst.o)
                0x00006508                _ZNSs10_S_compareEjj
 .text._ZNSs12_S_empty_repEv
                0x00006510       0x10 /Users/Max/android-ndk-r8e/sources/cxx-stl/gnu-libstdc++/4.4.3/libs/armeabi/libgnustl_static.a(string-inst.o)
                0x00006510                _ZNSs12_S_empty_repEv
 .text._ZNSsC2Ev
                0x00006520       0x18 /Users/Max/android-ndk-r8e/sources/cxx-stl/gnu-libstdc++/4.4.3/libs/armeabi/libgnustl_static.a(string-inst.o)
                0x00006520                _ZNSsC2Ev
 .text._ZNSsC1Ev
                0x00006538       0x18 /Users/Max/android-ndk-r8e/sources/cxx-stl/gnu-libstdc++/4.4.3/libs/armeabi/libgnustl_static.a(string-inst.o)
                0x00006538                _ZNSsC1Ev
 .text._ZNKSs5beginEv
                0x00006550        0x8 /Users/Max/android-ndk-r8e/sources/cxx-stl/gnu-libstdc++/4.4.3/libs/armeabi/libgnustl_static.a(string-inst.o)
                0x00006550                _ZNKSs5beginEv
 .text._ZNKSs3endEv
                0x00006558       0x10 /Users/Max/android-ndk-r8e/sources/cxx-stl/gnu-libstdc++/4.4.3/libs/armeabi/libgnustl_static.a(string-inst.o)
                0x00006558                _ZNKSs3endEv
 .text._ZNKSs6rbeginEv
                0x00006568       0x14 /Users/Max/android-ndk-r8e/sources/cxx-stl/gnu-libstdc++/4.4.3/libs/armeabi/libgnustl_static.a(string-inst.o)
                0x00006568                _ZNKSs6rbeginEv
 .text._ZNKSs4rendEv
                0x0000657c        0xc /Users/Max/android-ndk-r8e/sources/cxx-stl/gnu-libstdc++/4.4.3/libs/armeabi/libgnustl_static.a(string-inst.o)
                0x0000657c                _ZNKSs4rendEv
 .text._ZNKSs4sizeEv
                0x00006588        0xc /Users/Max/android-ndk-r8e/sources/cxx-stl/gnu-libstdc++/4.4.3/libs/armeabi/libgnustl_static.a(string-inst.o)
                0x00006588                _ZNKSs4sizeEv
 .text._ZNKSs6lengthEv
                0x00006594        0xc /Users/Max/android-ndk-r8e/sources/cxx-stl/gnu-libstdc++/4.4.3/libs/armeabi/libgnustl_static.a(string-inst.o)
                0x00006594                _ZNKSs6lengthEv
 .text._ZNKSs8max_sizeEv
                0x000065a0        0x8 /Users/Max/android-ndk-r8e/sources/cxx-stl/gnu-libstdc++/4.4.3/libs/armeabi/libgnustl_static.a(string-inst.o)
                0x000065a0                _ZNKSs8max_sizeEv
 .text._ZNKSs8capacityEv
                0x000065a8        0xc /Users/Max/android-ndk-r8e/sources/cxx-stl/gnu-libstdc++/4.4.3/libs/armeabi/libgnustl_static.a(string-inst.o)
                0x000065a8                _ZNKSs8capacityEv
 .text._ZNKSs5emptyEv
                0x000065b4       0x14 /Users/Max/android-ndk-r8e/sources/cxx-stl/gnu-libstdc++/4.4.3/libs/armeabi/libgnustl_static.a(string-inst.o)
                0x000065b4                _ZNKSs5emptyEv
 .text._ZNKSsixEj
                0x000065c8        0xc /Users/Max/android-ndk-r8e/sources/cxx-stl/gnu-libstdc++/4.4.3/libs/armeabi/libgnustl_static.a(string-inst.o)
                0x000065c8                _ZNKSsixEj
 .text._ZNSs4swapERSs
                0x000065d4       0x44 /Users/Max/android-ndk-r8e/sources/cxx-stl/gnu-libstdc++/4.4.3/libs/armeabi/libgnustl_static.a(string-inst.o)
                0x000065d4                _ZNSs4swapERSs
 .text._ZNKSs5c_strEv
                0x00006618        0x8 /Users/Max/android-ndk-r8e/sources/cxx-stl/gnu-libstdc++/4.4.3/libs/armeabi/libgnustl_static.a(string-inst.o)
                0x00006618                _ZNKSs5c_strEv
 .text._ZNKSs4dataEv
                0x00006620        0x8 /Users/Max/android-ndk-r8e/sources/cxx-stl/gnu-libstdc++/4.4.3/libs/armeabi/libgnustl_static.a(string-inst.o)
                0x00006620                _ZNKSs4dataEv
 .text._ZNKSs13get_allocatorEv
                0x00006628        0x4 /Users/Max/android-ndk-r8e/sources/cxx-stl/gnu-libstdc++/4.4.3/libs/armeabi/libgnustl_static.a(string-inst.o)
                0x00006628                _ZNKSs13get_allocatorEv
 .text._ZNKSs5rfindEcj
                0x0000662c       0x4c /Users/Max/android-ndk-r8e/sources/cxx-stl/gnu-libstdc++/4.4.3/libs/armeabi/libgnustl_static.a(string-inst.o)
                0x0000662c                _ZNKSs5rfindEcj
 .text._ZNKSs12find_last_ofEcj
                0x00006678        0x4 /Users/Max/android-ndk-r8e/sources/cxx-stl/gnu-libstdc++/4.4.3/libs/armeabi/libgnustl_static.a(string-inst.o)
                0x00006678                _ZNKSs12find_last_ofEcj
 .text._ZNKSs17find_first_not_ofEcj
                0x0000667c       0x48 /Users/Max/android-ndk-r8e/sources/cxx-stl/gnu-libstdc++/4.4.3/libs/armeabi/libgnustl_static.a(string-inst.o)
                0x0000667c                _ZNKSs17find_first_not_ofEcj
 .text._ZNKSs16find_last_not_ofEcj
                0x000066c4       0x44 /Users/Max/android-ndk-r8e/sources/cxx-stl/gnu-libstdc++/4.4.3/libs/armeabi/libgnustl_static.a(string-inst.o)
                0x000066c4                _ZNKSs16find_last_not_ofEcj
 .text._ZNSs12_Alloc_hiderC2EPcRKSaIcE
                0x00006708        0x8 /Users/Max/android-ndk-r8e/sources/cxx-stl/gnu-libstdc++/4.4.3/libs/armeabi/libgnustl_static.a(string-inst.o)
                0x00006708                _ZNSs12_Alloc_hiderC2EPcRKSaIcE
 .text._ZNSs12_Alloc_hiderC1EPcRKSaIcE
                0x00006710        0x8 /Users/Max/android-ndk-r8e/sources/cxx-stl/gnu-libstdc++/4.4.3/libs/armeabi/libgnustl_static.a(string-inst.o)
                0x00006710                _ZNSs12_Alloc_hiderC1EPcRKSaIcE
 .text._ZNSs4_Rep12_S_empty_repEv
                0x00006718       0x10 /Users/Max/android-ndk-r8e/sources/cxx-stl/gnu-libstdc++/4.4.3/libs/armeabi/libgnustl_static.a(string-inst.o)
                0x00006718                _ZNSs4_Rep12_S_empty_repEv
 .text._ZNKSs4_Rep12_M_is_leakedEv
                0x00006728        0xc /Users/Max/android-ndk-r8e/sources/cxx-stl/gnu-libstdc++/4.4.3/libs/armeabi/libgnustl_static.a(string-inst.o)
                0x00006728                _ZNKSs4_Rep12_M_is_leakedEv
 .text._ZNKSs4_Rep12_M_is_sharedEv
                0x00006734       0x14 /Users/Max/android-ndk-r8e/sources/cxx-stl/gnu-libstdc++/4.4.3/libs/armeabi/libgnustl_static.a(string-inst.o)
                0x00006734                _ZNKSs4_Rep12_M_is_sharedEv
 .text._ZNSs4_Rep13_M_set_leakedEv
                0x00006748        0xc /Users/Max/android-ndk-r8e/sources/cxx-stl/gnu-libstdc++/4.4.3/libs/armeabi/libgnustl_static.a(string-inst.o)
                0x00006748                _ZNSs4_Rep13_M_set_leakedEv
 .text._ZNSs4_Rep15_M_set_sharableEv
                0x00006754        0xc /Users/Max/android-ndk-r8e/sources/cxx-stl/gnu-libstdc++/4.4.3/libs/armeabi/libgnustl_static.a(string-inst.o)
                0x00006754                _ZNSs4_Rep15_M_set_sharableEv
 .text._ZNSs4_Rep26_M_set_length_and_sharableEj
                0x00006760       0x18 /Users/Max/android-ndk-r8e/sources/cxx-stl/gnu-libstdc++/4.4.3/libs/armeabi/libgnustl_static.a(string-inst.o)
                0x00006760                _ZNSs4_Rep26_M_set_length_and_sharableEj
 .text._ZNSs4_Rep10_M_refdataEv
                0x00006778        0x8 /Users/Max/android-ndk-r8e/sources/cxx-stl/gnu-libstdc++/4.4.3/libs/armeabi/libgnustl_static.a(string-inst.o)
                0x00006778                _ZNSs4_Rep10_M_refdataEv
 .text._ZN9__gnu_cxxeqIPcSsEEbRKNS_17__normal_iteratorIT_T0_EES7_
                0x00006780       0x18 /Users/Max/android-ndk-r8e/sources/cxx-stl/gnu-libstdc++/4.4.3/libs/armeabi/libgnustl_static.a(string-inst.o)
                0x00006780                _ZN9__gnu_cxxeqIPcSsEEbRKNS_17__normal_iteratorIT_T0_EES7_
 .text._ZN9__gnu_cxxeqIPKcSsEEbRKNS_17__normal_iteratorIT_T0_EES8_
                0x00006798       0x18 /Users/Max/android-ndk-r8e/sources/cxx-stl/gnu-libstdc++/4.4.3/libs/armeabi/libgnustl_static.a(string-inst.o)
                0x00006798                _ZN9__gnu_cxxeqIPKcSsEEbRKNS_17__normal_iteratorIT_T0_EES8_
 .text._ZNSs4_Rep10_M_refcopyEv
                0x000067b0       0x44 /Users/Max/android-ndk-r8e/sources/cxx-stl/gnu-libstdc++/4.4.3/libs/armeabi/libgnustl_static.a(string-inst.o)
                0x000067b0                _ZNSs4_Rep10_M_refcopyEv
 .text._ZNSs4_Rep10_M_destroyERKSaIcE
                0x000067f4        0x4 /Users/Max/android-ndk-r8e/sources/cxx-stl/gnu-libstdc++/4.4.3/libs/armeabi/libgnustl_static.a(string-inst.o)
                0x000067f4                _ZNSs4_Rep10_M_destroyERKSaIcE
 .text._ZNSs4_Rep10_M_disposeERKSaIcE
                0x000067f8       0x3c /Users/Max/android-ndk-r8e/sources/cxx-stl/gnu-libstdc++/4.4.3/libs/armeabi/libgnustl_static.a(string-inst.o)
                0x000067f8                _ZNSs4_Rep10_M_disposeERKSaIcE
 .text._ZNKSs15_M_check_lengthEjjPKc
                0x00006834       0x28 /Users/Max/android-ndk-r8e/sources/cxx-stl/gnu-libstdc++/4.4.3/libs/armeabi/libgnustl_static.a(string-inst.o)
                0x00006834                _ZNKSs15_M_check_lengthEjjPKc
 .text._ZNSs4_Rep9_S_createEjjRKSaIcE
                0x0000685c       0x8c /Users/Max/android-ndk-r8e/sources/cxx-stl/gnu-libstdc++/4.4.3/libs/armeabi/libgnustl_static.a(string-inst.o)
                0x0000685c                _ZNSs4_Rep9_S_createEjjRKSaIcE
 .text._ZNKSs16find_last_not_ofEPKcjj
                0x000068e8       0x5c /Users/Max/android-ndk-r8e/sources/cxx-stl/gnu-libstdc++/4.4.3/libs/armeabi/libgnustl_static.a(string-inst.o)
                0x000068e8                _ZNKSs16find_last_not_ofEPKcjj
 .text._ZNKSs16find_last_not_ofERKSsj
                0x00006944        0xc /Users/Max/android-ndk-r8e/sources/cxx-stl/gnu-libstdc++/4.4.3/libs/armeabi/libgnustl_static.a(string-inst.o)
                0x00006944                _ZNKSs16find_last_not_ofERKSsj
 .text._ZNKSs17find_first_not_ofEPKcjj
                0x00006950       0x60 /Users/Max/android-ndk-r8e/sources/cxx-stl/gnu-libstdc++/4.4.3/libs/armeabi/libgnustl_static.a(string-inst.o)
                0x00006950                _ZNKSs17find_first_not_ofEPKcjj
 .text._ZNKSs17find_first_not_ofERKSsj
                0x000069b0        0xc /Users/Max/android-ndk-r8e/sources/cxx-stl/gnu-libstdc++/4.4.3/libs/armeabi/libgnustl_static.a(string-inst.o)
                0x000069b0                _ZNKSs17find_first_not_ofERKSsj
 .text._ZNKSs12find_last_ofEPKcjj
                0x000069bc       0x60 /Users/Max/android-ndk-r8e/sources/cxx-stl/gnu-libstdc++/4.4.3/libs/armeabi/libgnustl_static.a(string-inst.o)
                0x000069bc                _ZNKSs12find_last_ofEPKcjj
 .text._ZNKSs12find_last_ofERKSsj
                0x00006a1c        0xc /Users/Max/android-ndk-r8e/sources/cxx-stl/gnu-libstdc++/4.4.3/libs/armeabi/libgnustl_static.a(string-inst.o)
                0x00006a1c                _ZNKSs12find_last_ofERKSsj
 .text._ZNKSs13find_first_ofEPKcjj
                0x00006a28       0x5c /Users/Max/android-ndk-r8e/sources/cxx-stl/gnu-libstdc++/4.4.3/libs/armeabi/libgnustl_static.a(string-inst.o)
                0x00006a28                _ZNKSs13find_first_ofEPKcjj
 .text._ZNKSs13find_first_ofERKSsj
                0x00006a84        0xc /Users/Max/android-ndk-r8e/sources/cxx-stl/gnu-libstdc++/4.4.3/libs/armeabi/libgnustl_static.a(string-inst.o)
                0x00006a84                _ZNKSs13find_first_ofERKSsj
 .text._ZNKSs4findEcj
                0x00006a90       0x38 /Users/Max/android-ndk-r8e/sources/cxx-stl/gnu-libstdc++/4.4.3/libs/armeabi/libgnustl_static.a(string-inst.o)
                0x00006a90                _ZNKSs4findEcj
 .text._ZNKSs13find_first_ofEcj
                0x00006ac8        0x4 /Users/Max/android-ndk-r8e/sources/cxx-stl/gnu-libstdc++/4.4.3/libs/armeabi/libgnustl_static.a(string-inst.o)
                0x00006ac8                _ZNKSs13find_first_ofEcj
 .text._ZNKSs2atEj
                0x00006acc       0x2c /Users/Max/android-ndk-r8e/sources/cxx-stl/gnu-libstdc++/4.4.3/libs/armeabi/libgnustl_static.a(string-inst.o)
                0x00006acc                _ZNKSs2atEj
 .text._ZNKSs8_M_checkEjPKc
                0x00006af8       0x24 /Users/Max/android-ndk-r8e/sources/cxx-stl/gnu-libstdc++/4.4.3/libs/armeabi/libgnustl_static.a(string-inst.o)
                0x00006af8                _ZNKSs8_M_checkEjPKc
 .text._ZNKSs7compareEjjRKSsjj
                0x00006b1c       0x88 /Users/Max/android-ndk-r8e/sources/cxx-stl/gnu-libstdc++/4.4.3/libs/armeabi/libgnustl_static.a(string-inst.o)
                0x00006b1c                _ZNKSs7compareEjjRKSsjj
 .text._ZNSs9_M_assignEPcjc
                0x00006ba4       0x1c /Users/Max/android-ndk-r8e/sources/cxx-stl/gnu-libstdc++/4.4.3/libs/armeabi/libgnustl_static.a(string-inst.o)
                0x00006ba4                _ZNSs9_M_assignEPcjc
 .text._ZNSs7_M_moveEPcPKcj
                0x00006bc0       0x18 /Users/Max/android-ndk-r8e/sources/cxx-stl/gnu-libstdc++/4.4.3/libs/armeabi/libgnustl_static.a(string-inst.o)
                0x00006bc0                _ZNSs7_M_moveEPcPKcj
 .text._ZNSs7_M_copyEPcPKcj
                0x00006bd8       0x18 /Users/Max/android-ndk-r8e/sources/cxx-stl/gnu-libstdc++/4.4.3/libs/armeabi/libgnustl_static.a(string-inst.o)
                0x00006bd8                _ZNSs7_M_copyEPcPKcj
 .text._ZNKSs5rfindEPKcjj
                0x00006bf0       0x60 /Users/Max/android-ndk-r8e/sources/cxx-stl/gnu-libstdc++/4.4.3/libs/armeabi/libgnustl_static.a(string-inst.o)
                0x00006bf0                _ZNKSs5rfindEPKcjj
 .text._ZNKSs5rfindERKSsj
                0x00006c50        0xc /Users/Max/android-ndk-r8e/sources/cxx-stl/gnu-libstdc++/4.4.3/libs/armeabi/libgnustl_static.a(string-inst.o)
                0x00006c50                _ZNKSs5rfindERKSsj
 .text._ZNKSs7compareERKSs
                0x00006c5c       0x30 /Users/Max/android-ndk-r8e/sources/cxx-stl/gnu-libstdc++/4.4.3/libs/armeabi/libgnustl_static.a(string-inst.o)
                0x00006c5c                _ZNKSs7compareERKSs
 .text._ZNKSs7compareEjjPKcj
                0x00006c8c       0x58 /Users/Max/android-ndk-r8e/sources/cxx-stl/gnu-libstdc++/4.4.3/libs/armeabi/libgnustl_static.a(string-inst.o)
                0x00006c8c                _ZNKSs7compareEjjPKcj
 .text._ZNKSs7compareEjjRKSs
                0x00006ce4       0x5c /Users/Max/android-ndk-r8e/sources/cxx-stl/gnu-libstdc++/4.4.3/libs/armeabi/libgnustl_static.a(string-inst.o)
                0x00006ce4                _ZNKSs7compareEjjRKSs
 .text._ZNKSs4findEPKcjj
                0x00006d40       0x8c /Users/Max/android-ndk-r8e/sources/cxx-stl/gnu-libstdc++/4.4.3/libs/armeabi/libgnustl_static.a(string-inst.o)
                0x00006d40                _ZNKSs4findEPKcjj
 .text._ZNKSs4findERKSsj
                0x00006dcc        0xc /Users/Max/android-ndk-r8e/sources/cxx-stl/gnu-libstdc++/4.4.3/libs/armeabi/libgnustl_static.a(string-inst.o)
                0x00006dcc                _ZNKSs4findERKSsj
 .text._ZNKSs5rfindEPKcj
                0x00006dd8       0x30 /Users/Max/android-ndk-r8e/sources/cxx-stl/gnu-libstdc++/4.4.3/libs/armeabi/libgnustl_static.a(string-inst.o)
                0x00006dd8                _ZNKSs5rfindEPKcj
 .text._ZNKSs4findEPKcj
                0x00006e08       0x30 /Users/Max/android-ndk-r8e/sources/cxx-stl/gnu-libstdc++/4.4.3/libs/armeabi/libgnustl_static.a(string-inst.o)
                0x00006e08                _ZNKSs4findEPKcj
 .text._ZNKSs16find_last_not_ofEPKcj
                0x00006e38       0x30 /Users/Max/android-ndk-r8e/sources/cxx-stl/gnu-libstdc++/4.4.3/libs/armeabi/libgnustl_static.a(string-inst.o)
                0x00006e38                _ZNKSs16find_last_not_ofEPKcj
 .text._ZNKSs17find_first_not_ofEPKcj
                0x00006e68       0x30 /Users/Max/android-ndk-r8e/sources/cxx-stl/gnu-libstdc++/4.4.3/libs/armeabi/libgnustl_static.a(string-inst.o)
                0x00006e68                _ZNKSs17find_first_not_ofEPKcj
 .text._ZNKSs13find_first_ofEPKcj
                0x00006e98       0x30 /Users/Max/android-ndk-r8e/sources/cxx-stl/gnu-libstdc++/4.4.3/libs/armeabi/libgnustl_static.a(string-inst.o)
                0x00006e98                _ZNKSs13find_first_ofEPKcj
 .text._ZNKSs12find_last_ofEPKcj
                0x00006ec8       0x30 /Users/Max/android-ndk-r8e/sources/cxx-stl/gnu-libstdc++/4.4.3/libs/armeabi/libgnustl_static.a(string-inst.o)
                0x00006ec8                _ZNKSs12find_last_ofEPKcj
 .text._ZNKSs7compareEPKc
                0x00006ef8       0x40 /Users/Max/android-ndk-r8e/sources/cxx-stl/gnu-libstdc++/4.4.3/libs/armeabi/libgnustl_static.a(string-inst.o)
                0x00006ef8                _ZNKSs7compareEPKc
 .text._ZNKSs7compareEjjPKc
                0x00006f38       0x68 /Users/Max/android-ndk-r8e/sources/cxx-stl/gnu-libstdc++/4.4.3/libs/armeabi/libgnustl_static.a(string-inst.o)
                0x00006f38                _ZNKSs7compareEjjPKc
 .text._ZNSs13_S_copy_charsEPcPKcS1_
                0x00006fa0       0x1c /Users/Max/android-ndk-r8e/sources/cxx-stl/gnu-libstdc++/4.4.3/libs/armeabi/libgnustl_static.a(string-inst.o)
                0x00006fa0                _ZNSs13_S_copy_charsEPcPKcS1_
 .text._ZNSs13_S_copy_charsEPcN9__gnu_cxx17__normal_iteratorIPKcSsEES4_
                0x00006fbc       0x1c /Users/Max/android-ndk-r8e/sources/cxx-stl/gnu-libstdc++/4.4.3/libs/armeabi/libgnustl_static.a(string-inst.o)
                0x00006fbc                _ZNSs13_S_copy_charsEPcN9__gnu_cxx17__normal_iteratorIPKcSsEES4_
 .text._ZNSs13_S_copy_charsEPcS_S_
                0x00006fd8       0x1c /Users/Max/android-ndk-r8e/sources/cxx-stl/gnu-libstdc++/4.4.3/libs/armeabi/libgnustl_static.a(string-inst.o)
                0x00006fd8                _ZNSs13_S_copy_charsEPcS_S_
 .text._ZNSs13_S_copy_charsEPcN9__gnu_cxx17__normal_iteratorIS_SsEES2_
                0x00006ff4       0x1c /Users/Max/android-ndk-r8e/sources/cxx-stl/gnu-libstdc++/4.4.3/libs/armeabi/libgnustl_static.a(string-inst.o)
                0x00006ff4                _ZNSs13_S_copy_charsEPcN9__gnu_cxx17__normal_iteratorIS_SsEES2_
 .text._ZNSs12_S_constructIPKcEEPcT_S3_RKSaIcESt20forward_iterator_tag
                0x00007010       0xb4 /Users/Max/android-ndk-r8e/sources/cxx-stl/gnu-libstdc++/4.4.3/libs/armeabi/libgnustl_static.a(string-inst.o)
                0x00007010                _ZNSs12_S_constructIPKcEEPcT_S3_RKSaIcESt20forward_iterator_tag
 .text._ZNSsC1IPKcEET_S2_RKSaIcE
                0x000070c4       0x28 /Users/Max/android-ndk-r8e/sources/cxx-stl/gnu-libstdc++/4.4.3/libs/armeabi/libgnustl_static.a(string-inst.o)
                0x000070c4                _ZNSsC1IPKcEET_S2_RKSaIcE
 .text._ZNSsC2IPKcEET_S2_RKSaIcE
                0x000070ec       0x28 /Users/Max/android-ndk-r8e/sources/cxx-stl/gnu-libstdc++/4.4.3/libs/armeabi/libgnustl_static.a(string-inst.o)
                0x000070ec                _ZNSsC2IPKcEET_S2_RKSaIcE
 .text._ZNSsC1ESt16initializer_listIcERKSaIcE
                0x00007114       0x3c /Users/Max/android-ndk-r8e/sources/cxx-stl/gnu-libstdc++/4.4.3/libs/armeabi/libgnustl_static.a(string-inst.o)
                0x00007114                _ZNSsC1ESt16initializer_listIcERKSaIcE
 .text._ZNSsC2ESt16initializer_listIcERKSaIcE
                0x00007150       0x3c /Users/Max/android-ndk-r8e/sources/cxx-stl/gnu-libstdc++/4.4.3/libs/armeabi/libgnustl_static.a(string-inst.o)
                0x00007150                _ZNSsC2ESt16initializer_listIcERKSaIcE
 .text._ZNSsC1EPKcRKSaIcE
                0x0000718c       0x40 /Users/Max/android-ndk-r8e/sources/cxx-stl/gnu-libstdc++/4.4.3/libs/armeabi/libgnustl_static.a(string-inst.o)
                0x0000718c                _ZNSsC1EPKcRKSaIcE
 .text._ZNSsC2EPKcRKSaIcE
                0x000071cc       0x40 /Users/Max/android-ndk-r8e/sources/cxx-stl/gnu-libstdc++/4.4.3/libs/armeabi/libgnustl_static.a(string-inst.o)
                0x000071cc                _ZNSsC2EPKcRKSaIcE
 .text._ZNSsC1EPKcjRKSaIcE
                0x0000720c       0x28 /Users/Max/android-ndk-r8e/sources/cxx-stl/gnu-libstdc++/4.4.3/libs/armeabi/libgnustl_static.a(string-inst.o)
                0x0000720c                _ZNSsC1EPKcjRKSaIcE
 .text._ZNSsC2EPKcjRKSaIcE
                0x00007234       0x28 /Users/Max/android-ndk-r8e/sources/cxx-stl/gnu-libstdc++/4.4.3/libs/armeabi/libgnustl_static.a(string-inst.o)
                0x00007234                _ZNSsC2EPKcjRKSaIcE
 .text._ZNSs12_S_constructIPcEES0_T_S1_RKSaIcESt20forward_iterator_tag
                0x0000725c       0xb4 /Users/Max/android-ndk-r8e/sources/cxx-stl/gnu-libstdc++/4.4.3/libs/armeabi/libgnustl_static.a(string-inst.o)
                0x0000725c                _ZNSs12_S_constructIPcEES0_T_S1_RKSaIcESt20forward_iterator_tag
 .text._ZNSsC1IPcEET_S1_RKSaIcE
                0x00007310       0x28 /Users/Max/android-ndk-r8e/sources/cxx-stl/gnu-libstdc++/4.4.3/libs/armeabi/libgnustl_static.a(string-inst.o)
                0x00007310                _ZNSsC1IPcEET_S1_RKSaIcE
 .text._ZNSsC2IPcEET_S1_RKSaIcE
                0x00007338       0x28 /Users/Max/android-ndk-r8e/sources/cxx-stl/gnu-libstdc++/4.4.3/libs/armeabi/libgnustl_static.a(string-inst.o)
                0x00007338                _ZNSsC2IPcEET_S1_RKSaIcE
 .text._ZNSsC1ERKSsjjRKSaIcE
                0x00007360       0x58 /Users/Max/android-ndk-r8e/sources/cxx-stl/gnu-libstdc++/4.4.3/libs/armeabi/libgnustl_static.a(string-inst.o)
                0x00007360                _ZNSsC1ERKSsjjRKSaIcE
 .text._ZNSsC2ERKSsjjRKSaIcE
                0x000073b8       0x58 /Users/Max/android-ndk-r8e/sources/cxx-stl/gnu-libstdc++/4.4.3/libs/armeabi/libgnustl_static.a(string-inst.o)
                0x000073b8                _ZNSsC2ERKSsjjRKSaIcE
 .text._ZNSsC1ERKSsjj
                0x00007410       0x64 /Users/Max/android-ndk-r8e/sources/cxx-stl/gnu-libstdc++/4.4.3/libs/armeabi/libgnustl_static.a(string-inst.o)
                0x00007410                _ZNSsC1ERKSsjj
 .text._ZNKSs6substrEjj
                0x00007474       0x34 /Users/Max/android-ndk-r8e/sources/cxx-stl/gnu-libstdc++/4.4.3/libs/armeabi/libgnustl_static.a(string-inst.o)
                0x00007474                _ZNKSs6substrEjj
 .text._ZNSsC2ERKSsjj
                0x000074a8       0x64 /Users/Max/android-ndk-r8e/sources/cxx-stl/gnu-libstdc++/4.4.3/libs/armeabi/libgnustl_static.a(string-inst.o)
                0x000074a8                _ZNSsC2ERKSsjj
 .text._ZNSsD1Ev
                0x0000750c       0x50 /Users/Max/android-ndk-r8e/sources/cxx-stl/gnu-libstdc++/4.4.3/libs/armeabi/libgnustl_static.a(string-inst.o)
                0x0000750c                _ZNSsD1Ev
 .text._ZNSsD2Ev
                0x0000755c       0x50 /Users/Max/android-ndk-r8e/sources/cxx-stl/gnu-libstdc++/4.4.3/libs/armeabi/libgnustl_static.a(string-inst.o)
                0x0000755c                _ZNSsD2Ev
 .text._ZNSs12_S_constructIN9__gnu_cxx17__normal_iteratorIPcSsEEEES2_T_S4_RKSaIcESt20forward_iterator_tag
                0x000075ac       0x7c /Users/Max/android-ndk-r8e/sources/cxx-stl/gnu-libstdc++/4.4.3/libs/armeabi/libgnustl_static.a(string-inst.o)
                0x000075ac                _ZNSs12_S_constructIN9__gnu_cxx17__normal_iteratorIPcSsEEEES2_T_S4_RKSaIcESt20forward_iterator_tag
 .text._ZNSsC1IN9__gnu_cxx17__normal_iteratorIPcSsEEEET_S4_RKSaIcE
                0x00007628       0x28 /Users/Max/android-ndk-r8e/sources/cxx-stl/gnu-libstdc++/4.4.3/libs/armeabi/libgnustl_static.a(string-inst.o)
                0x00007628                _ZNSsC1IN9__gnu_cxx17__normal_iteratorIPcSsEEEET_S4_RKSaIcE
 .text._ZNSsC2IN9__gnu_cxx17__normal_iteratorIPcSsEEEET_S4_RKSaIcE
                0x00007650       0x28 /Users/Max/android-ndk-r8e/sources/cxx-stl/gnu-libstdc++/4.4.3/libs/armeabi/libgnustl_static.a(string-inst.o)
                0x00007650                _ZNSsC2IN9__gnu_cxx17__normal_iteratorIPcSsEEEET_S4_RKSaIcE
 .text._ZNKSs4copyEPcjj
                0x00007678       0x74 /Users/Max/android-ndk-r8e/sources/cxx-stl/gnu-libstdc++/4.4.3/libs/armeabi/libgnustl_static.a(string-inst.o)
                0x00007678                _ZNKSs4copyEPcjj
 .text._ZNSs4_Rep8_M_cloneERKSaIcEj
                0x000076ec       0xa0 /Users/Max/android-ndk-r8e/sources/cxx-stl/gnu-libstdc++/4.4.3/libs/armeabi/libgnustl_static.a(string-inst.o)
                0x000076ec                _ZNSs4_Rep8_M_cloneERKSaIcEj
 .text._ZNSs7reserveEj
                0x0000778c       0x98 /Users/Max/android-ndk-r8e/sources/cxx-stl/gnu-libstdc++/4.4.3/libs/armeabi/libgnustl_static.a(string-inst.o)
                0x0000778c                _ZNSs7reserveEj
 .text._ZNSs9push_backEc
                0x00007824       0x70 /Users/Max/android-ndk-r8e/sources/cxx-stl/gnu-libstdc++/4.4.3/libs/armeabi/libgnustl_static.a(string-inst.o)
                0x00007824                _ZNSs9push_backEc
 .text._ZNSs6appendEjc
                0x00007894       0xc0 /Users/Max/android-ndk-r8e/sources/cxx-stl/gnu-libstdc++/4.4.3/libs/armeabi/libgnustl_static.a(string-inst.o)
                0x00007894                _ZNSs6appendEjc
 .text._ZNSs6appendEPKcj
                0x00007954       0xf4 /Users/Max/android-ndk-r8e/sources/cxx-stl/gnu-libstdc++/4.4.3/libs/armeabi/libgnustl_static.a(string-inst.o)
                0x00007954                _ZNSs6appendEPKcj
 .text._ZNSs6appendEPKc
                0x00007a48       0x28 /Users/Max/android-ndk-r8e/sources/cxx-stl/gnu-libstdc++/4.4.3/libs/armeabi/libgnustl_static.a(string-inst.o)
                0x00007a48                _ZNSs6appendEPKc
 .text._ZNSspLEPKc
                0x00007a70       0x28 /Users/Max/android-ndk-r8e/sources/cxx-stl/gnu-libstdc++/4.4.3/libs/armeabi/libgnustl_static.a(string-inst.o)
                0x00007a70                _ZNSspLEPKc
 .text._ZNSs6appendERKSsjj
                0x00007a98       0xcc /Users/Max/android-ndk-r8e/sources/cxx-stl/gnu-libstdc++/4.4.3/libs/armeabi/libgnustl_static.a(string-inst.o)
                0x00007a98                _ZNSs6appendERKSsjj
 .text._ZNSs6appendERKSs
                0x00007b64       0xa0 /Users/Max/android-ndk-r8e/sources/cxx-stl/gnu-libstdc++/4.4.3/libs/armeabi/libgnustl_static.a(string-inst.o)
                0x00007b64                _ZNSs6appendERKSs
 .text._ZNSspLERKSs
                0x00007c04        0x4 /Users/Max/android-ndk-r8e/sources/cxx-stl/gnu-libstdc++/4.4.3/libs/armeabi/libgnustl_static.a(string-inst.o)
                0x00007c04                _ZNSspLERKSs
 .text._ZStplIcSt11char_traitsIcESaIcEESbIT_T0_T1_ES3_RKS6_
                0x00007c08       0x6c /Users/Max/android-ndk-r8e/sources/cxx-stl/gnu-libstdc++/4.4.3/libs/armeabi/libgnustl_static.a(string-inst.o)
                0x00007c08                _ZStplIcSt11char_traitsIcESaIcEESbIT_T0_T1_ES3_RKS6_
 .text._ZStplIcSt11char_traitsIcESaIcEESbIT_T0_T1_EPKS3_RKS6_
                0x00007c74       0x7c /Users/Max/android-ndk-r8e/sources/cxx-stl/gnu-libstdc++/4.4.3/libs/armeabi/libgnustl_static.a(string-inst.o)
                0x00007c74                _ZStplIcSt11char_traitsIcESaIcEESbIT_T0_T1_EPKS3_RKS6_
 .text._ZNSspLEc
                0x00007cf0       0x70 /Users/Max/android-ndk-r8e/sources/cxx-stl/gnu-libstdc++/4.4.3/libs/armeabi/libgnustl_static.a(string-inst.o)
                0x00007cf0                _ZNSspLEc
 .text._ZNSsC2ERKSs
                0x00007d60       0x88 /Users/Max/android-ndk-r8e/sources/cxx-stl/gnu-libstdc++/4.4.3/libs/armeabi/libgnustl_static.a(string-inst.o)
                0x00007d60                _ZNSsC2ERKSs
 .text._ZNSs4_Rep7_M_grabERKSaIcES2_
                0x00007de8       0x5c /Users/Max/android-ndk-r8e/sources/cxx-stl/gnu-libstdc++/4.4.3/libs/armeabi/libgnustl_static.a(string-inst.o)
                0x00007de8                _ZNSs4_Rep7_M_grabERKSaIcES2_
 .text._ZNSsC1ERKSs
                0x00007e44       0x88 /Users/Max/android-ndk-r8e/sources/cxx-stl/gnu-libstdc++/4.4.3/libs/armeabi/libgnustl_static.a(string-inst.o)
                0x00007e44                _ZNSsC1ERKSs
 .text._ZStplIcSt11char_traitsIcESaIcEESbIT_T0_T1_ERKS6_S8_
                0x00007ecc       0x38 /Users/Max/android-ndk-r8e/sources/cxx-stl/gnu-libstdc++/4.4.3/libs/armeabi/libgnustl_static.a(string-inst.o)
                0x00007ecc                _ZStplIcSt11char_traitsIcESaIcEESbIT_T0_T1_ERKS6_S8_
 .text._ZNSs6assignERKSs
                0x00007f04       0xe0 /Users/Max/android-ndk-r8e/sources/cxx-stl/gnu-libstdc++/4.4.3/libs/armeabi/libgnustl_static.a(string-inst.o)
                0x00007f04                _ZNSs6assignERKSs
 .text._ZNSsaSERKSs
                0x00007fe4        0x4 /Users/Max/android-ndk-r8e/sources/cxx-stl/gnu-libstdc++/4.4.3/libs/armeabi/libgnustl_static.a(string-inst.o)
                0x00007fe4                _ZNSsaSERKSs
 .text._ZNSs9_M_mutateEjjj
                0x00007fe8      0x16c /Users/Max/android-ndk-r8e/sources/cxx-stl/gnu-libstdc++/4.4.3/libs/armeabi/libgnustl_static.a(string-inst.o)
                0x00007fe8                _ZNSs9_M_mutateEjjj
 .text._ZNSs14_M_replace_auxEjjjc
                0x00008154       0x7c /Users/Max/android-ndk-r8e/sources/cxx-stl/gnu-libstdc++/4.4.3/libs/armeabi/libgnustl_static.a(string-inst.o)
                0x00008154                _ZNSs14_M_replace_auxEjjjc
 .text._ZNSs7replaceEN9__gnu_cxx17__normal_iteratorIPcSsEES2_jc
                0x000081d0       0x18 /Users/Max/android-ndk-r8e/sources/cxx-stl/gnu-libstdc++/4.4.3/libs/armeabi/libgnustl_static.a(string-inst.o)
                0x000081d0                _ZNSs7replaceEN9__gnu_cxx17__normal_iteratorIPcSsEES2_jc
 .text._ZNSs7replaceEjjjc
                0x000081e8       0x40 /Users/Max/android-ndk-r8e/sources/cxx-stl/gnu-libstdc++/4.4.3/libs/armeabi/libgnustl_static.a(string-inst.o)
                0x000081e8                _ZNSs7replaceEjjjc
 .text._ZNSs6insertEN9__gnu_cxx17__normal_iteratorIPcSsEEc
                0x00008228       0x40 /Users/Max/android-ndk-r8e/sources/cxx-stl/gnu-libstdc++/4.4.3/libs/armeabi/libgnustl_static.a(string-inst.o)
                0x00008228                _ZNSs6insertEN9__gnu_cxx17__normal_iteratorIPcSsEEc
 .text._ZNSs6insertEjjc
                0x00008268       0x44 /Users/Max/android-ndk-r8e/sources/cxx-stl/gnu-libstdc++/4.4.3/libs/armeabi/libgnustl_static.a(string-inst.o)
                0x00008268                _ZNSs6insertEjjc
 .text._ZNSs6assignEjc
                0x000082ac       0x2c /Users/Max/android-ndk-r8e/sources/cxx-stl/gnu-libstdc++/4.4.3/libs/armeabi/libgnustl_static.a(string-inst.o)
                0x000082ac                _ZNSs6assignEjc
 .text._ZNSs6insertEN9__gnu_cxx17__normal_iteratorIPcSsEEjc
                0x000082d8       0x28 /Users/Max/android-ndk-r8e/sources/cxx-stl/gnu-libstdc++/4.4.3/libs/armeabi/libgnustl_static.a(string-inst.o)
                0x000082d8                _ZNSs6insertEN9__gnu_cxx17__normal_iteratorIPcSsEEjc
 .text._ZNSsaSEc
                0x00008300       0x30 /Users/Max/android-ndk-r8e/sources/cxx-stl/gnu-libstdc++/4.4.3/libs/armeabi/libgnustl_static.a(string-inst.o)
                0x00008300                _ZNSsaSEc
 .text._ZNSs5eraseEN9__gnu_cxx17__normal_iteratorIPcSsEES2_
                0x00008330       0x34 /Users/Max/android-ndk-r8e/sources/cxx-stl/gnu-libstdc++/4.4.3/libs/armeabi/libgnustl_static.a(string-inst.o)
                0x00008330                _ZNSs5eraseEN9__gnu_cxx17__normal_iteratorIPcSsEES2_
 .text._ZNSs5eraseEN9__gnu_cxx17__normal_iteratorIPcSsEE
                0x00008364       0x34 /Users/Max/android-ndk-r8e/sources/cxx-stl/gnu-libstdc++/4.4.3/libs/armeabi/libgnustl_static.a(string-inst.o)
                0x00008364                _ZNSs5eraseEN9__gnu_cxx17__normal_iteratorIPcSsEE
 .text._ZNSs5eraseEjj
                0x00008398       0x44 /Users/Max/android-ndk-r8e/sources/cxx-stl/gnu-libstdc++/4.4.3/libs/armeabi/libgnustl_static.a(string-inst.o)
                0x00008398                _ZNSs5eraseEjj
 .text._ZNSs5clearEv
                0x000083dc       0x14 /Users/Max/android-ndk-r8e/sources/cxx-stl/gnu-libstdc++/4.4.3/libs/armeabi/libgnustl_static.a(string-inst.o)
                0x000083dc                _ZNSs5clearEv
 .text._ZNSs12_M_leak_hardEv
                0x000083f0       0x54 /Users/Max/android-ndk-r8e/sources/cxx-stl/gnu-libstdc++/4.4.3/libs/armeabi/libgnustl_static.a(string-inst.o)
                0x000083f0                _ZNSs12_M_leak_hardEv
 .text._ZNSs7_M_leakEv
                0x00008444       0x14 /Users/Max/android-ndk-r8e/sources/cxx-stl/gnu-libstdc++/4.4.3/libs/armeabi/libgnustl_static.a(string-inst.o)
                0x00008444                _ZNSs7_M_leakEv
 .text._ZNSsixEj
                0x00008458       0x2c /Users/Max/android-ndk-r8e/sources/cxx-stl/gnu-libstdc++/4.4.3/libs/armeabi/libgnustl_static.a(string-inst.o)
                0x00008458                _ZNSsixEj
 .text._ZNSs5beginEv
                0x00008484       0x28 /Users/Max/android-ndk-r8e/sources/cxx-stl/gnu-libstdc++/4.4.3/libs/armeabi/libgnustl_static.a(string-inst.o)
                0x00008484                _ZNSs5beginEv
 .text._ZNSs4rendEv
                0x000084ac       0x34 /Users/Max/android-ndk-r8e/sources/cxx-stl/gnu-libstdc++/4.4.3/libs/armeabi/libgnustl_static.a(string-inst.o)
                0x000084ac                _ZNSs4rendEv
 .text._ZNSs3endEv
                0x000084e0       0x34 /Users/Max/android-ndk-r8e/sources/cxx-stl/gnu-libstdc++/4.4.3/libs/armeabi/libgnustl_static.a(string-inst.o)
                0x000084e0                _ZNSs3endEv
 .text._ZNSs2atEj
                0x00008514       0x4c /Users/Max/android-ndk-r8e/sources/cxx-stl/gnu-libstdc++/4.4.3/libs/armeabi/libgnustl_static.a(string-inst.o)
                0x00008514                _ZNSs2atEj
 .text._ZNSs6rbeginEv
                0x00008560       0x44 /Users/Max/android-ndk-r8e/sources/cxx-stl/gnu-libstdc++/4.4.3/libs/armeabi/libgnustl_static.a(string-inst.o)
                0x00008560                _ZNSs6rbeginEv
 .text._ZNSs15_M_replace_safeEjjPKcj
                0x000085a4       0x60 /Users/Max/android-ndk-r8e/sources/cxx-stl/gnu-libstdc++/4.4.3/libs/armeabi/libgnustl_static.a(string-inst.o)
                0x000085a4                _ZNSs15_M_replace_safeEjjPKcj
 .text._ZNSs6assignEPKcj
                0x00008604       0xec /Users/Max/android-ndk-r8e/sources/cxx-stl/gnu-libstdc++/4.4.3/libs/armeabi/libgnustl_static.a(string-inst.o)
                0x00008604                _ZNSs6assignEPKcj
 .text._ZNSs6assignEPKc
                0x000086f0       0x28 /Users/Max/android-ndk-r8e/sources/cxx-stl/gnu-libstdc++/4.4.3/libs/armeabi/libgnustl_static.a(string-inst.o)
                0x000086f0                _ZNSs6assignEPKc
 .text._ZNSs6assignERKSsjj
                0x00008718       0x40 /Users/Max/android-ndk-r8e/sources/cxx-stl/gnu-libstdc++/4.4.3/libs/armeabi/libgnustl_static.a(string-inst.o)
                0x00008718                _ZNSs6assignERKSsjj
 .text._ZNSsaSEPKc
                0x00008758       0x28 /Users/Max/android-ndk-r8e/sources/cxx-stl/gnu-libstdc++/4.4.3/libs/armeabi/libgnustl_static.a(string-inst.o)
                0x00008758                _ZNSsaSEPKc
 .text._ZNSs6insertEjPKcj
                0x00008780      0x168 /Users/Max/android-ndk-r8e/sources/cxx-stl/gnu-libstdc++/4.4.3/libs/armeabi/libgnustl_static.a(string-inst.o)
                0x00008780                _ZNSs6insertEjPKcj
 .text._ZNSs6insertEjPKc
                0x000088e8       0x30 /Users/Max/android-ndk-r8e/sources/cxx-stl/gnu-libstdc++/4.4.3/libs/armeabi/libgnustl_static.a(string-inst.o)
                0x000088e8                _ZNSs6insertEjPKc
 .text._ZNSs6insertEjRKSsjj
                0x00008918       0x44 /Users/Max/android-ndk-r8e/sources/cxx-stl/gnu-libstdc++/4.4.3/libs/armeabi/libgnustl_static.a(string-inst.o)
                0x00008918                _ZNSs6insertEjRKSsjj
 .text._ZNSs6insertEjRKSs
                0x0000895c        0xc /Users/Max/android-ndk-r8e/sources/cxx-stl/gnu-libstdc++/4.4.3/libs/armeabi/libgnustl_static.a(string-inst.o)
                0x0000895c                _ZNSs6insertEjRKSs
 .text._ZNSs6resizeEjc
                0x00008968       0x4c /Users/Max/android-ndk-r8e/sources/cxx-stl/gnu-libstdc++/4.4.3/libs/armeabi/libgnustl_static.a(string-inst.o)
                0x00008968                _ZNSs6resizeEjc
 .text._ZNSs6resizeEj
                0x000089b4        0x8 /Users/Max/android-ndk-r8e/sources/cxx-stl/gnu-libstdc++/4.4.3/libs/armeabi/libgnustl_static.a(string-inst.o)
                0x000089b4                _ZNSs6resizeEj
 .text._ZNSs12_S_constructEjcRKSaIcE
                0x000089bc       0x70 /Users/Max/android-ndk-r8e/sources/cxx-stl/gnu-libstdc++/4.4.3/libs/armeabi/libgnustl_static.a(string-inst.o)
                0x000089bc                _ZNSs12_S_constructEjcRKSaIcE
 .text._ZNSsC1EjcRKSaIcE
                0x00008a2c       0x24 /Users/Max/android-ndk-r8e/sources/cxx-stl/gnu-libstdc++/4.4.3/libs/armeabi/libgnustl_static.a(string-inst.o)
                0x00008a2c                _ZNSsC1EjcRKSaIcE
 .text._ZNSsC2EjcRKSaIcE
                0x00008a50       0x24 /Users/Max/android-ndk-r8e/sources/cxx-stl/gnu-libstdc++/4.4.3/libs/armeabi/libgnustl_static.a(string-inst.o)
                0x00008a50                _ZNSsC2EjcRKSaIcE
 .text._ZNSsC1ERKSaIcE
                0x00008a74       0x24 /Users/Max/android-ndk-r8e/sources/cxx-stl/gnu-libstdc++/4.4.3/libs/armeabi/libgnustl_static.a(string-inst.o)
                0x00008a74                _ZNSsC1ERKSaIcE
 .text._ZNSsC2ERKSaIcE
                0x00008a98       0x24 /Users/Max/android-ndk-r8e/sources/cxx-stl/gnu-libstdc++/4.4.3/libs/armeabi/libgnustl_static.a(string-inst.o)
                0x00008a98                _ZNSsC2ERKSaIcE
 .text._ZNSs7replaceEjjPKcj
                0x00008abc      0x1a8 /Users/Max/android-ndk-r8e/sources/cxx-stl/gnu-libstdc++/4.4.3/libs/armeabi/libgnustl_static.a(string-inst.o)
                0x00008abc                _ZNSs7replaceEjjPKcj
 .text._ZNSs7replaceEN9__gnu_cxx17__normal_iteratorIPcSsEES2_NS0_IPKcSsEES5_
                0x00008c64       0x24 /Users/Max/android-ndk-r8e/sources/cxx-stl/gnu-libstdc++/4.4.3/libs/armeabi/libgnustl_static.a(string-inst.o)
                0x00008c64                _ZNSs7replaceEN9__gnu_cxx17__normal_iteratorIPcSsEES2_NS0_IPKcSsEES5_
 .text._ZNSs7replaceEN9__gnu_cxx17__normal_iteratorIPcSsEES2_S2_S2_
                0x00008c88       0x24 /Users/Max/android-ndk-r8e/sources/cxx-stl/gnu-libstdc++/4.4.3/libs/armeabi/libgnustl_static.a(string-inst.o)
                0x00008c88                _ZNSs7replaceEN9__gnu_cxx17__normal_iteratorIPcSsEES2_S2_S2_
 .text._ZNSs7replaceEN9__gnu_cxx17__normal_iteratorIPcSsEES2_PKcS4_
                0x00008cac       0x24 /Users/Max/android-ndk-r8e/sources/cxx-stl/gnu-libstdc++/4.4.3/libs/armeabi/libgnustl_static.a(string-inst.o)
                0x00008cac                _ZNSs7replaceEN9__gnu_cxx17__normal_iteratorIPcSsEES2_PKcS4_
 .text._ZNSs7replaceEN9__gnu_cxx17__normal_iteratorIPcSsEES2_S1_S1_
                0x00008cd0       0x24 /Users/Max/android-ndk-r8e/sources/cxx-stl/gnu-libstdc++/4.4.3/libs/armeabi/libgnustl_static.a(string-inst.o)
                0x00008cd0                _ZNSs7replaceEN9__gnu_cxx17__normal_iteratorIPcSsEES2_S1_S1_
 .text._ZNSs7replaceEN9__gnu_cxx17__normal_iteratorIPcSsEES2_PKcj
                0x00008cf4       0x10 /Users/Max/android-ndk-r8e/sources/cxx-stl/gnu-libstdc++/4.4.3/libs/armeabi/libgnustl_static.a(string-inst.o)
                0x00008cf4                _ZNSs7replaceEN9__gnu_cxx17__normal_iteratorIPcSsEES2_PKcj
 .text._ZNSs7replaceEjjPKc
                0x00008d04       0x40 /Users/Max/android-ndk-r8e/sources/cxx-stl/gnu-libstdc++/4.4.3/libs/armeabi/libgnustl_static.a(string-inst.o)
                0x00008d04                _ZNSs7replaceEjjPKc
 .text._ZNSs7replaceEjjRKSsjj
                0x00008d44       0x48 /Users/Max/android-ndk-r8e/sources/cxx-stl/gnu-libstdc++/4.4.3/libs/armeabi/libgnustl_static.a(string-inst.o)
                0x00008d44                _ZNSs7replaceEjjRKSsjj
 .text._ZNSs7replaceEjjRKSs
                0x00008d8c       0x24 /Users/Max/android-ndk-r8e/sources/cxx-stl/gnu-libstdc++/4.4.3/libs/armeabi/libgnustl_static.a(string-inst.o)
                0x00008d8c                _ZNSs7replaceEjjRKSs
 .text._ZNSs7replaceEN9__gnu_cxx17__normal_iteratorIPcSsEES2_RKSs
                0x00008db0       0x30 /Users/Max/android-ndk-r8e/sources/cxx-stl/gnu-libstdc++/4.4.3/libs/armeabi/libgnustl_static.a(string-inst.o)
                0x00008db0                _ZNSs7replaceEN9__gnu_cxx17__normal_iteratorIPcSsEES2_RKSs
 .text._ZNSs7replaceEN9__gnu_cxx17__normal_iteratorIPcSsEES2_PKc
                0x00008de0       0x44 /Users/Max/android-ndk-r8e/sources/cxx-stl/gnu-libstdc++/4.4.3/libs/armeabi/libgnustl_static.a(string-inst.o)
                0x00008de0                _ZNSs7replaceEN9__gnu_cxx17__normal_iteratorIPcSsEES2_PKc
 .text._ZNSs7replaceEN9__gnu_cxx17__normal_iteratorIPcSsEES2_St16initializer_listIcE
                0x00008e24       0x1c /Users/Max/android-ndk-r8e/sources/cxx-stl/gnu-libstdc++/4.4.3/libs/armeabi/libgnustl_static.a(string-inst.o)
                0x00008e24                _ZNSs7replaceEN9__gnu_cxx17__normal_iteratorIPcSsEES2_St16initializer_listIcE
 .text._ZNSs6insertEN9__gnu_cxx17__normal_iteratorIPcSsEESt16initializer_listIcE
                0x00008e40       0x34 /Users/Max/android-ndk-r8e/sources/cxx-stl/gnu-libstdc++/4.4.3/libs/armeabi/libgnustl_static.a(string-inst.o)
                0x00008e40                _ZNSs6insertEN9__gnu_cxx17__normal_iteratorIPcSsEESt16initializer_listIcE
 .text._ZNSs6assignESt16initializer_listIcE
                0x00008e74       0x34 /Users/Max/android-ndk-r8e/sources/cxx-stl/gnu-libstdc++/4.4.3/libs/armeabi/libgnustl_static.a(string-inst.o)
                0x00008e74                _ZNSs6assignESt16initializer_listIcE
 .text._ZNSsaSESt16initializer_listIcE
                0x00008ea8       0x3c /Users/Max/android-ndk-r8e/sources/cxx-stl/gnu-libstdc++/4.4.3/libs/armeabi/libgnustl_static.a(string-inst.o)
                0x00008ea8                _ZNSsaSESt16initializer_listIcE
 .text._ZNSs6appendESt16initializer_listIcE
                0x00008ee4       0x34 /Users/Max/android-ndk-r8e/sources/cxx-stl/gnu-libstdc++/4.4.3/libs/armeabi/libgnustl_static.a(string-inst.o)
                0x00008ee4                _ZNSs6appendESt16initializer_listIcE
 .text._ZNSspLESt16initializer_listIcE
                0x00008f18       0x34 /Users/Max/android-ndk-r8e/sources/cxx-stl/gnu-libstdc++/4.4.3/libs/armeabi/libgnustl_static.a(string-inst.o)
                0x00008f18                _ZNSspLESt16initializer_listIcE
 .text          0x00008f4c        0x0 /Users/Max/android-ndk-r8e/sources/cxx-stl/gnu-libstdc++/4.4.3/libs/armeabi/libgnustl_static.a(atomicity.o)
 .text._ZNK9__gnu_cxx24__concurrence_lock_error4whatEv
                0x00008f4c       0x10 /Users/Max/android-ndk-r8e/sources/cxx-stl/gnu-libstdc++/4.4.3/libs/armeabi/libgnustl_static.a(atomicity.o)
                0x00008f4c                _ZNK9__gnu_cxx24__concurrence_lock_error4whatEv
 .text._ZNK9__gnu_cxx26__concurrence_unlock_error4whatEv
                0x00008f5c       0x10 /Users/Max/android-ndk-r8e/sources/cxx-stl/gnu-libstdc++/4.4.3/libs/armeabi/libgnustl_static.a(atomicity.o)
                0x00008f5c                _ZNK9__gnu_cxx26__concurrence_unlock_error4whatEv
 .text._ZN9__gnu_cxx24__concurrence_lock_errorD1Ev
                0x00008f6c       0x28 /Users/Max/android-ndk-r8e/sources/cxx-stl/gnu-libstdc++/4.4.3/libs/armeabi/libgnustl_static.a(atomicity.o)
                0x00008f6c                _ZN9__gnu_cxx24__concurrence_lock_errorD1Ev
 .text._ZN9__gnu_cxx26__concurrence_unlock_errorD1Ev
                0x00008f94       0x28 /Users/Max/android-ndk-r8e/sources/cxx-stl/gnu-libstdc++/4.4.3/libs/armeabi/libgnustl_static.a(atomicity.o)
                0x00008f94                _ZN9__gnu_cxx26__concurrence_unlock_errorD1Ev
 .text._ZN9__gnu_cxx18__exchange_and_addEPVii
                0x00008fbc      0x124 /Users/Max/android-ndk-r8e/sources/cxx-stl/gnu-libstdc++/4.4.3/libs/armeabi/libgnustl_static.a(atomicity.o)
                0x00008fbc                _ZN9__gnu_cxx18__exchange_and_addEPVii
 .text._ZN9__gnu_cxx12__atomic_addEPVii
                0x000090e0        0x4 /Users/Max/android-ndk-r8e/sources/cxx-stl/gnu-libstdc++/4.4.3/libs/armeabi/libgnustl_static.a(atomicity.o)
                0x000090e0                _ZN9__gnu_cxx12__atomic_addEPVii
 .text._ZN9__gnu_cxx26__concurrence_unlock_errorD0Ev
                0x000090e4       0x30 /Users/Max/android-ndk-r8e/sources/cxx-stl/gnu-libstdc++/4.4.3/libs/armeabi/libgnustl_static.a(atomicity.o)
                0x000090e4                _ZN9__gnu_cxx26__concurrence_unlock_errorD0Ev
 .text._ZN9__gnu_cxx24__concurrence_lock_errorD0Ev
                0x00009114       0x30 /Users/Max/android-ndk-r8e/sources/cxx-stl/gnu-libstdc++/4.4.3/libs/armeabi/libgnustl_static.a(atomicity.o)
                0x00009114                _ZN9__gnu_cxx24__concurrence_lock_errorD0Ev
 .text          0x00009144        0x0 /Users/Max/android-ndk-r8e/sources/cxx-stl/gnu-libstdc++/4.4.3/libs/armeabi/libgnustl_static.a(atexit_arm.o)
 .text.__aeabi_atexit
                0x00009144       0x10 /Users/Max/android-ndk-r8e/sources/cxx-stl/gnu-libstdc++/4.4.3/libs/armeabi/libgnustl_static.a(atexit_arm.o)
                0x00009144                __aeabi_atexit
 .text          0x00009154        0x0 /Users/Max/android-ndk-r8e/sources/cxx-stl/gnu-libstdc++/4.4.3/libs/armeabi/libgnustl_static.a(del_op.o)
 .text._ZdlPv   0x00009154        0xc /Users/Max/android-ndk-r8e/sources/cxx-stl/gnu-libstdc++/4.4.3/libs/armeabi/libgnustl_static.a(del_op.o)
                0x00009154                _ZdlPv
 .text          0x00009160        0x0 /Users/Max/android-ndk-r8e/sources/cxx-stl/gnu-libstdc++/4.4.3/libs/armeabi/libgnustl_static.a(eh_alloc.o)
 .text._GLOBAL__I_eh_alloc.cc
                0x00009160       0x28 /Users/Max/android-ndk-r8e/sources/cxx-stl/gnu-libstdc++/4.4.3/libs/armeabi/libgnustl_static.a(eh_alloc.o)
 .text._ZN9__gnu_cxx13__scoped_lockD1Ev
                0x00009188       0x68 /Users/Max/android-ndk-r8e/sources/cxx-stl/gnu-libstdc++/4.4.3/libs/armeabi/libgnustl_static.a(eh_alloc.o)
                0x00009188                _ZN9__gnu_cxx13__scoped_lockD1Ev
 .text.__cxa_free_dependent_exception
                0x000091f0      0x124 /Users/Max/android-ndk-r8e/sources/cxx-stl/gnu-libstdc++/4.4.3/libs/armeabi/libgnustl_static.a(eh_alloc.o)
                0x000091f0                __cxa_free_dependent_exception
 .text.__cxa_free_exception
                0x00009314      0x11c /Users/Max/android-ndk-r8e/sources/cxx-stl/gnu-libstdc++/4.4.3/libs/armeabi/libgnustl_static.a(eh_alloc.o)
                0x00009314                __cxa_free_exception
 .text.__cxa_allocate_dependent_exception
                0x00009430      0x18c /Users/Max/android-ndk-r8e/sources/cxx-stl/gnu-libstdc++/4.4.3/libs/armeabi/libgnustl_static.a(eh_alloc.o)
                0x00009430                __cxa_allocate_dependent_exception
 .text.__cxa_allocate_exception
                0x000095bc      0x18c /Users/Max/android-ndk-r8e/sources/cxx-stl/gnu-libstdc++/4.4.3/libs/armeabi/libgnustl_static.a(eh_alloc.o)
                0x000095bc                __cxa_allocate_exception
 .text          0x00009748       0x10 /Users/Max/android-ndk-r8e/sources/cxx-stl/gnu-libstdc++/4.4.3/libs/armeabi/libgnustl_static.a(eh_arm.o)
                0x00009748                __cxa_end_cleanup
 .text.__cxa_type_match
                0x00009758      0x1ac /Users/Max/android-ndk-r8e/sources/cxx-stl/gnu-libstdc++/4.4.3/libs/armeabi/libgnustl_static.a(eh_arm.o)
                0x00009758                __cxa_type_match
 .text.__cxa_begin_cleanup
                0x00009904       0xb4 /Users/Max/android-ndk-r8e/sources/cxx-stl/gnu-libstdc++/4.4.3/libs/armeabi/libgnustl_static.a(eh_arm.o)
                0x00009904                __cxa_begin_cleanup
 .text.__gnu_end_cleanup
                0x000099b8       0xb4 /Users/Max/android-ndk-r8e/sources/cxx-stl/gnu-libstdc++/4.4.3/libs/armeabi/libgnustl_static.a(eh_arm.o)
                0x000099b8                __gnu_end_cleanup
 .text          0x00009a6c        0x0 /Users/Max/android-ndk-r8e/sources/cxx-stl/gnu-libstdc++/4.4.3/libs/armeabi/libgnustl_static.a(eh_aux_runtime.o)
 .text.__cxa_bad_typeid
                0x00009a6c       0x48 /Users/Max/android-ndk-r8e/sources/cxx-stl/gnu-libstdc++/4.4.3/libs/armeabi/libgnustl_static.a(eh_aux_runtime.o)
                0x00009a6c                __cxa_bad_typeid
 .text.__cxa_bad_cast
                0x00009ab4       0x48 /Users/Max/android-ndk-r8e/sources/cxx-stl/gnu-libstdc++/4.4.3/libs/armeabi/libgnustl_static.a(eh_aux_runtime.o)
                0x00009ab4                __cxa_bad_cast
 .text          0x00009afc        0x0 /Users/Max/android-ndk-r8e/sources/cxx-stl/gnu-libstdc++/4.4.3/libs/armeabi/libgnustl_static.a(eh_call.o)
 .text.__cxa_call_terminate
                0x00009afc       0x7c /Users/Max/android-ndk-r8e/sources/cxx-stl/gnu-libstdc++/4.4.3/libs/armeabi/libgnustl_static.a(eh_call.o)
                0x00009afc                __cxa_call_terminate
 .text.__cxa_call_unexpected
                0x00009b78      0x1d0 /Users/Max/android-ndk-r8e/sources/cxx-stl/gnu-libstdc++/4.4.3/libs/armeabi/libgnustl_static.a(eh_call.o)
                0x00009b78                __cxa_call_unexpected
 .text          0x00009d48        0x0 /Users/Max/android-ndk-r8e/sources/cxx-stl/gnu-libstdc++/4.4.3/libs/armeabi/libgnustl_static.a(eh_catch.o)
 .text.__cxa_get_exception_ptr
                0x00009d48        0x8 /Users/Max/android-ndk-r8e/sources/cxx-stl/gnu-libstdc++/4.4.3/libs/armeabi/libgnustl_static.a(eh_catch.o)
                0x00009d48                __cxa_get_exception_ptr
 .text._ZSt18uncaught_exceptionv
                0x00009d50       0x18 /Users/Max/android-ndk-r8e/sources/cxx-stl/gnu-libstdc++/4.4.3/libs/armeabi/libgnustl_static.a(eh_catch.o)
                0x00009d50                _ZSt18uncaught_exceptionv
 .text.__cxa_end_catch
                0x00009d68       0xdc /Users/Max/android-ndk-r8e/sources/cxx-stl/gnu-libstdc++/4.4.3/libs/armeabi/libgnustl_static.a(eh_catch.o)
                0x00009d68                __cxa_end_catch
 .text.__cxa_begin_catch
                0x00009e44       0xdc /Users/Max/android-ndk-r8e/sources/cxx-stl/gnu-libstdc++/4.4.3/libs/armeabi/libgnustl_static.a(eh_catch.o)
                0x00009e44                __cxa_begin_catch
 .text          0x00009f20        0x0 /Users/Max/android-ndk-r8e/sources/cxx-stl/gnu-libstdc++/4.4.3/libs/armeabi/libgnustl_static.a(eh_exception.o)
 .text._ZNSt9exceptionD2Ev
                0x00009f20        0x4 /Users/Max/android-ndk-r8e/sources/cxx-stl/gnu-libstdc++/4.4.3/libs/armeabi/libgnustl_static.a(eh_exception.o)
                0x00009f20                _ZNSt9exceptionD2Ev
 .text._ZNSt9exceptionD1Ev
                0x00009f24        0x4 /Users/Max/android-ndk-r8e/sources/cxx-stl/gnu-libstdc++/4.4.3/libs/armeabi/libgnustl_static.a(eh_exception.o)
                0x00009f24                _ZNSt9exceptionD1Ev
 .text._ZNSt13bad_exceptionD2Ev
                0x00009f28       0x34 /Users/Max/android-ndk-r8e/sources/cxx-stl/gnu-libstdc++/4.4.3/libs/armeabi/libgnustl_static.a(eh_exception.o)
                0x00009f28                _ZNSt13bad_exceptionD2Ev
 .text._ZNSt13bad_exceptionD1Ev
                0x00009f5c       0x34 /Users/Max/android-ndk-r8e/sources/cxx-stl/gnu-libstdc++/4.4.3/libs/armeabi/libgnustl_static.a(eh_exception.o)
                0x00009f5c                _ZNSt13bad_exceptionD1Ev
 .text._ZN10__cxxabiv115__forced_unwindD2Ev
                0x00009f90        0x4 /Users/Max/android-ndk-r8e/sources/cxx-stl/gnu-libstdc++/4.4.3/libs/armeabi/libgnustl_static.a(eh_exception.o)
                0x00009f90                _ZN10__cxxabiv115__forced_unwindD2Ev
 .text._ZN10__cxxabiv115__forced_unwindD1Ev
                0x00009f94        0x4 /Users/Max/android-ndk-r8e/sources/cxx-stl/gnu-libstdc++/4.4.3/libs/armeabi/libgnustl_static.a(eh_exception.o)
                0x00009f94                _ZN10__cxxabiv115__forced_unwindD1Ev
 .text._ZN10__cxxabiv119__foreign_exceptionD2Ev
                0x00009f98        0x4 /Users/Max/android-ndk-r8e/sources/cxx-stl/gnu-libstdc++/4.4.3/libs/armeabi/libgnustl_static.a(eh_exception.o)
                0x00009f98                _ZN10__cxxabiv119__foreign_exceptionD2Ev
 .text._ZN10__cxxabiv119__foreign_exceptionD1Ev
                0x00009f9c        0x4 /Users/Max/android-ndk-r8e/sources/cxx-stl/gnu-libstdc++/4.4.3/libs/armeabi/libgnustl_static.a(eh_exception.o)
                0x00009f9c                _ZN10__cxxabiv119__foreign_exceptionD1Ev
 .text._ZNKSt9exception4whatEv
                0x00009fa0       0x10 /Users/Max/android-ndk-r8e/sources/cxx-stl/gnu-libstdc++/4.4.3/libs/armeabi/libgnustl_static.a(eh_exception.o)
                0x00009fa0                _ZNKSt9exception4whatEv
 .text._ZNKSt13bad_exception4whatEv
                0x00009fb0       0x10 /Users/Max/android-ndk-r8e/sources/cxx-stl/gnu-libstdc++/4.4.3/libs/armeabi/libgnustl_static.a(eh_exception.o)
                0x00009fb0                _ZNKSt13bad_exception4whatEv
 .text._ZN10__cxxabiv119__foreign_exceptionD0Ev
                0x00009fc0       0x1c /Users/Max/android-ndk-r8e/sources/cxx-stl/gnu-libstdc++/4.4.3/libs/armeabi/libgnustl_static.a(eh_exception.o)
                0x00009fc0                _ZN10__cxxabiv119__foreign_exceptionD0Ev
 .text._ZN10__cxxabiv115__forced_unwindD0Ev
                0x00009fdc       0x1c /Users/Max/android-ndk-r8e/sources/cxx-stl/gnu-libstdc++/4.4.3/libs/armeabi/libgnustl_static.a(eh_exception.o)
                0x00009fdc                _ZN10__cxxabiv115__forced_unwindD0Ev
 .text._ZNSt9exceptionD0Ev
                0x00009ff8       0x1c /Users/Max/android-ndk-r8e/sources/cxx-stl/gnu-libstdc++/4.4.3/libs/armeabi/libgnustl_static.a(eh_exception.o)
                0x00009ff8                _ZNSt9exceptionD0Ev
 .text._ZNSt13bad_exceptionD0Ev
                0x0000a014       0x1c /Users/Max/android-ndk-r8e/sources/cxx-stl/gnu-libstdc++/4.4.3/libs/armeabi/libgnustl_static.a(eh_exception.o)
                0x0000a014                _ZNSt13bad_exceptionD0Ev
 .text          0x0000a030        0x0 /Users/Max/android-ndk-r8e/sources/cxx-stl/gnu-libstdc++/4.4.3/libs/armeabi/libgnustl_static.a(eh_globals.o)
 .text._GLOBAL__I_eh_globals.cc
                0x0000a030       0x5c /Users/Max/android-ndk-r8e/sources/cxx-stl/gnu-libstdc++/4.4.3/libs/armeabi/libgnustl_static.a(eh_globals.o)
 .text._ZL15eh_globals_dtorPv
                0x0000a08c       0x38 /Users/Max/android-ndk-r8e/sources/cxx-stl/gnu-libstdc++/4.4.3/libs/armeabi/libgnustl_static.a(eh_globals.o)
 .text._ZN17__eh_globals_initD1Ev
                0x0000a0c4       0x34 /Users/Max/android-ndk-r8e/sources/cxx-stl/gnu-libstdc++/4.4.3/libs/armeabi/libgnustl_static.a(eh_globals.o)
                0x0000a0c4                _ZN17__eh_globals_initD1Ev
 .text.__cxa_get_globals_fast
                0x0000a0f8       0x48 /Users/Max/android-ndk-r8e/sources/cxx-stl/gnu-libstdc++/4.4.3/libs/armeabi/libgnustl_static.a(eh_globals.o)
                0x0000a0f8                __cxa_get_globals_fast
 .text.__cxa_get_globals
                0x0000a140       0x90 /Users/Max/android-ndk-r8e/sources/cxx-stl/gnu-libstdc++/4.4.3/libs/armeabi/libgnustl_static.a(eh_globals.o)
                0x0000a140                __cxa_get_globals
 .text          0x0000a1d0        0x0 /Users/Max/android-ndk-r8e/sources/cxx-stl/gnu-libstdc++/4.4.3/libs/armeabi/libgnustl_static.a(eh_personality.o)
 .text._ZL12read_sleb128PKhPl
                0x0000a1d0       0x44 /Users/Max/android-ndk-r8e/sources/cxx-stl/gnu-libstdc++/4.4.3/libs/armeabi/libgnustl_static.a(eh_personality.o)
 .text._ZL21base_of_encoded_valuehP15_Unwind_Context
                0x0000a214       0x78 /Users/Max/android-ndk-r8e/sources/cxx-stl/gnu-libstdc++/4.4.3/libs/armeabi/libgnustl_static.a(eh_personality.o)
 .text._ZL17parse_lsda_headerP15_Unwind_ContextPKhP16lsda_header_info
                0x0000a28c      0x214 /Users/Max/android-ndk-r8e/sources/cxx-stl/gnu-libstdc++/4.4.3/libs/armeabi/libgnustl_static.a(eh_personality.o)
 .text.__gxx_personality_v0
                0x0000a4a0      0x9d4 /Users/Max/android-ndk-r8e/sources/cxx-stl/gnu-libstdc++/4.4.3/libs/armeabi/libgnustl_static.a(eh_personality.o)
                0x0000a4a0                __gxx_personality_v0
 .text          0x0000ae74        0x0 /Users/Max/android-ndk-r8e/sources/cxx-stl/gnu-libstdc++/4.4.3/libs/armeabi/libgnustl_static.a(eh_terminate.o)
 .text._ZSt13set_terminatePFvvE
                0x0000ae74       0x2c /Users/Max/android-ndk-r8e/sources/cxx-stl/gnu-libstdc++/4.4.3/libs/armeabi/libgnustl_static.a(eh_terminate.o)
                0x0000ae74                _ZSt13set_terminatePFvvE
 .text._ZSt14set_unexpectedPFvvE
                0x0000aea0       0x2c /Users/Max/android-ndk-r8e/sources/cxx-stl/gnu-libstdc++/4.4.3/libs/armeabi/libgnustl_static.a(eh_terminate.o)
                0x0000aea0                _ZSt14set_unexpectedPFvvE
 .text._ZN10__cxxabiv111__terminateEPFvvE
                0x0000aecc       0x28 /Users/Max/android-ndk-r8e/sources/cxx-stl/gnu-libstdc++/4.4.3/libs/armeabi/libgnustl_static.a(eh_terminate.o)
                0x0000aecc                _ZN10__cxxabiv111__terminateEPFvvE
 .text._ZSt9terminatev
                0x0000aef4       0x1c /Users/Max/android-ndk-r8e/sources/cxx-stl/gnu-libstdc++/4.4.3/libs/armeabi/libgnustl_static.a(eh_terminate.o)
                0x0000aef4                _ZSt9terminatev
 .text._ZN10__cxxabiv112__unexpectedEPFvvE
                0x0000af10       0x10 /Users/Max/android-ndk-r8e/sources/cxx-stl/gnu-libstdc++/4.4.3/libs/armeabi/libgnustl_static.a(eh_terminate.o)
                0x0000af10                _ZN10__cxxabiv112__unexpectedEPFvvE
 .text._ZSt10unexpectedv
                0x0000af20       0x1c /Users/Max/android-ndk-r8e/sources/cxx-stl/gnu-libstdc++/4.4.3/libs/armeabi/libgnustl_static.a(eh_terminate.o)
                0x0000af20                _ZSt10unexpectedv
 .text          0x0000af3c        0x0 /Users/Max/android-ndk-r8e/sources/cxx-stl/gnu-libstdc++/4.4.3/libs/armeabi/libgnustl_static.a(eh_throw.o)
 .text.__cxa_rethrow
                0x0000af3c       0xb8 /Users/Max/android-ndk-r8e/sources/cxx-stl/gnu-libstdc++/4.4.3/libs/armeabi/libgnustl_static.a(eh_throw.o)
                0x0000af3c                __cxa_rethrow
 .text.__cxa_throw
                0x0000aff4       0xa4 /Users/Max/android-ndk-r8e/sources/cxx-stl/gnu-libstdc++/4.4.3/libs/armeabi/libgnustl_static.a(eh_throw.o)
                0x0000aff4                __cxa_throw
 .text._ZL23__gxx_exception_cleanup19_Unwind_Reason_CodeP21_Unwind_Control_Block
                0x0000b098       0x44 /Users/Max/android-ndk-r8e/sources/cxx-stl/gnu-libstdc++/4.4.3/libs/armeabi/libgnustl_static.a(eh_throw.o)
 .text          0x0000b0dc        0x0 /Users/Max/android-ndk-r8e/sources/cxx-stl/gnu-libstdc++/4.4.3/libs/armeabi/libgnustl_static.a(eh_unex_handler.o)
 .text          0x0000b0dc        0x0 /Users/Max/android-ndk-r8e/sources/cxx-stl/gnu-libstdc++/4.4.3/libs/armeabi/libgnustl_static.a(fundamental_type_info.o)
 .text._ZN10__cxxabiv123__fundamental_type_infoD1Ev
                0x0000b0dc       0x34 /Users/Max/android-ndk-r8e/sources/cxx-stl/gnu-libstdc++/4.4.3/libs/armeabi/libgnustl_static.a(fundamental_type_info.o)
                0x0000b0dc                _ZN10__cxxabiv123__fundamental_type_infoD1Ev
 .text._ZN10__cxxabiv123__fundamental_type_infoD0Ev
                0x0000b110       0x1c /Users/Max/android-ndk-r8e/sources/cxx-stl/gnu-libstdc++/4.4.3/libs/armeabi/libgnustl_static.a(fundamental_type_info.o)
                0x0000b110                _ZN10__cxxabiv123__fundamental_type_infoD0Ev
 .text._ZN10__cxxabiv123__fundamental_type_infoD2Ev
                0x0000b12c       0x34 /Users/Max/android-ndk-r8e/sources/cxx-stl/gnu-libstdc++/4.4.3/libs/armeabi/libgnustl_static.a(fundamental_type_info.o)
                0x0000b12c                _ZN10__cxxabiv123__fundamental_type_infoD2Ev
 .text          0x0000b160        0x0 /Users/Max/android-ndk-r8e/sources/cxx-stl/gnu-libstdc++/4.4.3/libs/armeabi/libgnustl_static.a(guard.o)
 .text._ZNK9__gnu_cxx29__concurrence_broadcast_error4whatEv
                0x0000b160       0x10 /Users/Max/android-ndk-r8e/sources/cxx-stl/gnu-libstdc++/4.4.3/libs/armeabi/libgnustl_static.a(guard.o)
                0x0000b160                _ZNK9__gnu_cxx29__concurrence_broadcast_error4whatEv
 .text._ZNK9__gnu_cxx24__concurrence_wait_error4whatEv
                0x0000b170       0x10 /Users/Max/android-ndk-r8e/sources/cxx-stl/gnu-libstdc++/4.4.3/libs/armeabi/libgnustl_static.a(guard.o)
                0x0000b170                _ZNK9__gnu_cxx24__concurrence_wait_error4whatEv
 .text._ZN12_GLOBAL__N_1L4initEv
                0x0000b180       0x38 /Users/Max/android-ndk-r8e/sources/cxx-stl/gnu-libstdc++/4.4.3/libs/armeabi/libgnustl_static.a(guard.o)
 .text._ZN12_GLOBAL__N_1L16init_static_condEv
                0x0000b1b8       0x38 /Users/Max/android-ndk-r8e/sources/cxx-stl/gnu-libstdc++/4.4.3/libs/armeabi/libgnustl_static.a(guard.o)
 .text._ZN9__gnu_cxx29__concurrence_broadcast_errorD1Ev
                0x0000b1f0       0x28 /Users/Max/android-ndk-r8e/sources/cxx-stl/gnu-libstdc++/4.4.3/libs/armeabi/libgnustl_static.a(guard.o)
                0x0000b1f0                _ZN9__gnu_cxx29__concurrence_broadcast_errorD1Ev
 .text._ZN9__gnu_cxx24__concurrence_wait_errorD1Ev
                0x0000b218       0x28 /Users/Max/android-ndk-r8e/sources/cxx-stl/gnu-libstdc++/4.4.3/libs/armeabi/libgnustl_static.a(guard.o)
                0x0000b218                _ZN9__gnu_cxx24__concurrence_wait_errorD1Ev
 .text._ZN9__gnu_cxx20recursive_init_errorD1Ev
                0x0000b240       0x28 /Users/Max/android-ndk-r8e/sources/cxx-stl/gnu-libstdc++/4.4.3/libs/armeabi/libgnustl_static.a(guard.o)
                0x0000b240                _ZN9__gnu_cxx20recursive_init_errorD1Ev
 .text._ZN9__gnu_cxx20recursive_init_errorD0Ev
                0x0000b268       0x1c /Users/Max/android-ndk-r8e/sources/cxx-stl/gnu-libstdc++/4.4.3/libs/armeabi/libgnustl_static.a(guard.o)
                0x0000b268                _ZN9__gnu_cxx20recursive_init_errorD0Ev
 .text._ZN9__gnu_cxx20recursive_init_errorD2Ev
                0x0000b284       0x28 /Users/Max/android-ndk-r8e/sources/cxx-stl/gnu-libstdc++/4.4.3/libs/armeabi/libgnustl_static.a(guard.o)
                0x0000b284                _ZN9__gnu_cxx20recursive_init_errorD2Ev
 .text._ZN12_GLOBAL__N_113mutex_wrapperD1Ev
                0x0000b2ac       0x6c /Users/Max/android-ndk-r8e/sources/cxx-stl/gnu-libstdc++/4.4.3/libs/armeabi/libgnustl_static.a(guard.o)
 .text._ZN9__gnu_cxx29__concurrence_broadcast_errorD0Ev
                0x0000b318       0x30 /Users/Max/android-ndk-r8e/sources/cxx-stl/gnu-libstdc++/4.4.3/libs/armeabi/libgnustl_static.a(guard.o)
                0x0000b318                _ZN9__gnu_cxx29__concurrence_broadcast_errorD0Ev
 .text._ZN9__gnu_cxx24__concurrence_wait_errorD0Ev
                0x0000b348       0x30 /Users/Max/android-ndk-r8e/sources/cxx-stl/gnu-libstdc++/4.4.3/libs/armeabi/libgnustl_static.a(guard.o)
                0x0000b348                _ZN9__gnu_cxx24__concurrence_wait_errorD0Ev
 .text.__cxa_guard_abort
                0x0000b378      0x168 /Users/Max/android-ndk-r8e/sources/cxx-stl/gnu-libstdc++/4.4.3/libs/armeabi/libgnustl_static.a(guard.o)
                0x0000b378                __cxa_guard_abort
 .text.__cxa_guard_release
                0x0000b4e0      0x16c /Users/Max/android-ndk-r8e/sources/cxx-stl/gnu-libstdc++/4.4.3/libs/armeabi/libgnustl_static.a(guard.o)
                0x0000b4e0                __cxa_guard_release
 .text.__cxa_guard_acquire
                0x0000b64c      0x1e8 /Users/Max/android-ndk-r8e/sources/cxx-stl/gnu-libstdc++/4.4.3/libs/armeabi/libgnustl_static.a(guard.o)
                0x0000b64c                __cxa_guard_acquire
 .text          0x0000b834        0x0 /Users/Max/android-ndk-r8e/sources/cxx-stl/gnu-libstdc++/4.4.3/libs/armeabi/libgnustl_static.a(new_op.o)
 .text._Znwj    0x0000b834       0xb4 /Users/Max/android-ndk-r8e/sources/cxx-stl/gnu-libstdc++/4.4.3/libs/armeabi/libgnustl_static.a(new_op.o)
                0x0000b834                _Znwj
 .text          0x0000b8e8        0x0 /Users/Max/android-ndk-r8e/sources/cxx-stl/gnu-libstdc++/4.4.3/libs/armeabi/libgnustl_static.a(pointer_type_info.o)
 .text._ZNK10__cxxabiv119__pointer_type_info14__is_pointer_pEv
                0x0000b8e8        0x8 /Users/Max/android-ndk-r8e/sources/cxx-stl/gnu-libstdc++/4.4.3/libs/armeabi/libgnustl_static.a(pointer_type_info.o)
                0x0000b8e8                _ZNK10__cxxabiv119__pointer_type_info14__is_pointer_pEv
 .text._ZNK10__cxxabiv119__pointer_type_info15__pointer_catchEPKNS_17__pbase_type_infoEPPvj
                0x0000b8f0       0x88 /Users/Max/android-ndk-r8e/sources/cxx-stl/gnu-libstdc++/4.4.3/libs/armeabi/libgnustl_static.a(pointer_type_info.o)
                0x0000b8f0                _ZNK10__cxxabiv119__pointer_type_info15__pointer_catchEPKNS_17__pbase_type_infoEPPvj
 .text._ZN10__cxxabiv119__pointer_type_infoD1Ev
                0x0000b978       0x34 /Users/Max/android-ndk-r8e/sources/cxx-stl/gnu-libstdc++/4.4.3/libs/armeabi/libgnustl_static.a(pointer_type_info.o)
                0x0000b978                _ZN10__cxxabiv119__pointer_type_infoD1Ev
 .text._ZN10__cxxabiv119__pointer_type_infoD0Ev
                0x0000b9ac       0x1c /Users/Max/android-ndk-r8e/sources/cxx-stl/gnu-libstdc++/4.4.3/libs/armeabi/libgnustl_static.a(pointer_type_info.o)
                0x0000b9ac                _ZN10__cxxabiv119__pointer_type_infoD0Ev
 .text._ZN10__cxxabiv119__pointer_type_infoD2Ev
                0x0000b9c8       0x34 /Users/Max/android-ndk-r8e/sources/cxx-stl/gnu-libstdc++/4.4.3/libs/armeabi/libgnustl_static.a(pointer_type_info.o)
                0x0000b9c8                _ZN10__cxxabiv119__pointer_type_infoD2Ev
 .text          0x0000b9fc        0x0 /Users/Max/android-ndk-r8e/sources/cxx-stl/gnu-libstdc++/4.4.3/libs/armeabi/libgnustl_static.a(pure.o)
 .text.__cxa_pure_virtual
                0x0000b9fc       0x20 /Users/Max/android-ndk-r8e/sources/cxx-stl/gnu-libstdc++/4.4.3/libs/armeabi/libgnustl_static.a(pure.o)
                0x0000b9fc                __cxa_pure_virtual
 .text          0x0000ba1c        0x0 /Users/Max/android-ndk-r8e/sources/cxx-stl/gnu-libstdc++/4.4.3/libs/armeabi/libgnustl_static.a(si_class_type_info.o)
 .text._ZNK10__cxxabiv120__si_class_type_info11__do_upcastEPKNS_17__class_type_infoEPKvRNS1_15__upcast_resultE
                0x0000ba1c       0x48 /Users/Max/android-ndk-r8e/sources/cxx-stl/gnu-libstdc++/4.4.3/libs/armeabi/libgnustl_static.a(si_class_type_info.o)
                0x0000ba1c                _ZNK10__cxxabiv120__si_class_type_info11__do_upcastEPKNS_17__class_type_infoEPKvRNS1_15__upcast_resultE
 .text._ZNK10__cxxabiv120__si_class_type_info12__do_dyncastEiNS_17__class_type_info10__sub_kindEPKS1_PKvS4_S6_RNS1_16__dyncast_resultE
                0x0000ba64       0xd0 /Users/Max/android-ndk-r8e/sources/cxx-stl/gnu-libstdc++/4.4.3/libs/armeabi/libgnustl_static.a(si_class_type_info.o)
                0x0000ba64                _ZNK10__cxxabiv120__si_class_type_info12__do_dyncastEiNS_17__class_type_info10__sub_kindEPKS1_PKvS4_S6_RNS1_16__dyncast_resultE
 .text._ZNK10__cxxabiv120__si_class_type_info20__do_find_public_srcEiPKvPKNS_17__class_type_infoES2_
                0x0000bb34       0x68 /Users/Max/android-ndk-r8e/sources/cxx-stl/gnu-libstdc++/4.4.3/libs/armeabi/libgnustl_static.a(si_class_type_info.o)
                0x0000bb34                _ZNK10__cxxabiv120__si_class_type_info20__do_find_public_srcEiPKvPKNS_17__class_type_infoES2_
 .text._ZN10__cxxabiv120__si_class_type_infoD1Ev
                0x0000bb9c       0x34 /Users/Max/android-ndk-r8e/sources/cxx-stl/gnu-libstdc++/4.4.3/libs/armeabi/libgnustl_static.a(si_class_type_info.o)
                0x0000bb9c                _ZN10__cxxabiv120__si_class_type_infoD1Ev
 .text._ZN10__cxxabiv120__si_class_type_infoD0Ev
                0x0000bbd0       0x1c /Users/Max/android-ndk-r8e/sources/cxx-stl/gnu-libstdc++/4.4.3/libs/armeabi/libgnustl_static.a(si_class_type_info.o)
                0x0000bbd0                _ZN10__cxxabiv120__si_class_type_infoD0Ev
 .text._ZN10__cxxabiv120__si_class_type_infoD2Ev
                0x0000bbec       0x34 /Users/Max/android-ndk-r8e/sources/cxx-stl/gnu-libstdc++/4.4.3/libs/armeabi/libgnustl_static.a(si_class_type_info.o)
                0x0000bbec                _ZN10__cxxabiv120__si_class_type_infoD2Ev
 .text          0x0000bc20        0x0 /Users/Max/android-ndk-r8e/sources/cxx-stl/gnu-libstdc++/4.4.3/libs/armeabi/libgnustl_static.a(tinfo.o)
 .text._ZNSt9type_infoD2Ev
                0x0000bc20        0x4 /Users/Max/android-ndk-r8e/sources/cxx-stl/gnu-libstdc++/4.4.3/libs/armeabi/libgnustl_static.a(tinfo.o)
                0x0000bc20                _ZNSt9type_infoD2Ev
 .text._ZNSt9type_infoD1Ev
                0x0000bc24        0x4 /Users/Max/android-ndk-r8e/sources/cxx-stl/gnu-libstdc++/4.4.3/libs/armeabi/libgnustl_static.a(tinfo.o)
                0x0000bc24                _ZNSt9type_infoD1Ev
 .text._ZNKSt9type_info14__is_pointer_pEv
                0x0000bc28        0x8 /Users/Max/android-ndk-r8e/sources/cxx-stl/gnu-libstdc++/4.4.3/libs/armeabi/libgnustl_static.a(tinfo.o)
                0x0000bc28                _ZNKSt9type_info14__is_pointer_pEv
 .text._ZNKSt9type_info15__is_function_pEv
                0x0000bc30        0x8 /Users/Max/android-ndk-r8e/sources/cxx-stl/gnu-libstdc++/4.4.3/libs/armeabi/libgnustl_static.a(tinfo.o)
                0x0000bc30                _ZNKSt9type_info15__is_function_pEv
 .text._ZNKSt9type_info11__do_upcastEPKN10__cxxabiv117__class_type_infoEPPv
                0x0000bc38        0x8 /Users/Max/android-ndk-r8e/sources/cxx-stl/gnu-libstdc++/4.4.3/libs/armeabi/libgnustl_static.a(tinfo.o)
                0x0000bc38                _ZNKSt9type_info11__do_upcastEPKN10__cxxabiv117__class_type_infoEPPv
 .text._ZNKSt9type_infoeqERKS_
                0x0000bc40       0x54 /Users/Max/android-ndk-r8e/sources/cxx-stl/gnu-libstdc++/4.4.3/libs/armeabi/libgnustl_static.a(tinfo.o)
                0x0000bc40                _ZNKSt9type_infoeqERKS_
 .text._ZNKSt9type_info10__do_catchEPKS_PPvj
                0x0000bc94        0x4 /Users/Max/android-ndk-r8e/sources/cxx-stl/gnu-libstdc++/4.4.3/libs/armeabi/libgnustl_static.a(tinfo.o)
                0x0000bc94                _ZNKSt9type_info10__do_catchEPKS_PPvj
 .text._ZNSt9type_infoD0Ev
                0x0000bc98       0x14 /Users/Max/android-ndk-r8e/sources/cxx-stl/gnu-libstdc++/4.4.3/libs/armeabi/libgnustl_static.a(tinfo.o)
                0x0000bc98                _ZNSt9type_infoD0Ev
 .text          0x0000bcac        0x0 /Users/Max/android-ndk-r8e/sources/cxx-stl/gnu-libstdc++/4.4.3/libs/armeabi/libgnustl_static.a(functexcept.o)
 .text._ZSt18__throw_bad_typeidv
                0x0000bcac       0x4c /Users/Max/android-ndk-r8e/sources/cxx-stl/gnu-libstdc++/4.4.3/libs/armeabi/libgnustl_static.a(functexcept.o)
                0x0000bcac                _ZSt18__throw_bad_typeidv
 .text._ZSt16__throw_bad_castv
                0x0000bcf8       0x4c /Users/Max/android-ndk-r8e/sources/cxx-stl/gnu-libstdc++/4.4.3/libs/armeabi/libgnustl_static.a(functexcept.o)
                0x0000bcf8                _ZSt16__throw_bad_castv
 .text._ZSt17__throw_bad_allocv
                0x0000bd44       0x4c /Users/Max/android-ndk-r8e/sources/cxx-stl/gnu-libstdc++/4.4.3/libs/armeabi/libgnustl_static.a(functexcept.o)
                0x0000bd44                _ZSt17__throw_bad_allocv
 .text._ZSt21__throw_bad_exceptionv
                0x0000bd90       0x4c /Users/Max/android-ndk-r8e/sources/cxx-stl/gnu-libstdc++/4.4.3/libs/armeabi/libgnustl_static.a(functexcept.o)
                0x0000bd90                _ZSt21__throw_bad_exceptionv
 .text._ZNSt15underflow_errorD1Ev
                0x0000bddc       0x2c /Users/Max/android-ndk-r8e/sources/cxx-stl/gnu-libstdc++/4.4.3/libs/armeabi/libgnustl_static.a(functexcept.o)
                0x0000bddc                _ZNSt15underflow_errorD1Ev
 .text._ZNSt14overflow_errorD1Ev
                0x0000be08       0x2c /Users/Max/android-ndk-r8e/sources/cxx-stl/gnu-libstdc++/4.4.3/libs/armeabi/libgnustl_static.a(functexcept.o)
                0x0000be08                _ZNSt14overflow_errorD1Ev
 .text._ZNSt11range_errorD1Ev
                0x0000be34       0x2c /Users/Max/android-ndk-r8e/sources/cxx-stl/gnu-libstdc++/4.4.3/libs/armeabi/libgnustl_static.a(functexcept.o)
                0x0000be34                _ZNSt11range_errorD1Ev
 .text._ZNSt12out_of_rangeD1Ev
                0x0000be60       0x2c /Users/Max/android-ndk-r8e/sources/cxx-stl/gnu-libstdc++/4.4.3/libs/armeabi/libgnustl_static.a(functexcept.o)
                0x0000be60                _ZNSt12out_of_rangeD1Ev
 .text._ZNSt12length_errorD1Ev
                0x0000be8c       0x2c /Users/Max/android-ndk-r8e/sources/cxx-stl/gnu-libstdc++/4.4.3/libs/armeabi/libgnustl_static.a(functexcept.o)
                0x0000be8c                _ZNSt12length_errorD1Ev
 .text._ZNSt16invalid_argumentD1Ev
                0x0000beb8       0x2c /Users/Max/android-ndk-r8e/sources/cxx-stl/gnu-libstdc++/4.4.3/libs/armeabi/libgnustl_static.a(functexcept.o)
                0x0000beb8                _ZNSt16invalid_argumentD1Ev
 .text._ZNSt12domain_errorD1Ev
                0x0000bee4       0x2c /Users/Max/android-ndk-r8e/sources/cxx-stl/gnu-libstdc++/4.4.3/libs/armeabi/libgnustl_static.a(functexcept.o)
                0x0000bee4                _ZNSt12domain_errorD1Ev
 .text._ZNSt15underflow_errorD0Ev
                0x0000bf10       0x34 /Users/Max/android-ndk-r8e/sources/cxx-stl/gnu-libstdc++/4.4.3/libs/armeabi/libgnustl_static.a(functexcept.o)
                0x0000bf10                _ZNSt15underflow_errorD0Ev
 .text._ZNSt12domain_errorD0Ev
                0x0000bf44       0x34 /Users/Max/android-ndk-r8e/sources/cxx-stl/gnu-libstdc++/4.4.3/libs/armeabi/libgnustl_static.a(functexcept.o)
                0x0000bf44                _ZNSt12domain_errorD0Ev
 .text._ZNSt16invalid_argumentD0Ev
                0x0000bf78       0x34 /Users/Max/android-ndk-r8e/sources/cxx-stl/gnu-libstdc++/4.4.3/libs/armeabi/libgnustl_static.a(functexcept.o)
                0x0000bf78                _ZNSt16invalid_argumentD0Ev
 .text._ZNSt12length_errorD0Ev
                0x0000bfac       0x34 /Users/Max/android-ndk-r8e/sources/cxx-stl/gnu-libstdc++/4.4.3/libs/armeabi/libgnustl_static.a(functexcept.o)
                0x0000bfac                _ZNSt12length_errorD0Ev
 .text._ZNSt12out_of_rangeD0Ev
                0x0000bfe0       0x34 /Users/Max/android-ndk-r8e/sources/cxx-stl/gnu-libstdc++/4.4.3/libs/armeabi/libgnustl_static.a(functexcept.o)
                0x0000bfe0                _ZNSt12out_of_rangeD0Ev
 .text._ZNSt11range_errorD0Ev
                0x0000c014       0x34 /Users/Max/android-ndk-r8e/sources/cxx-stl/gnu-libstdc++/4.4.3/libs/armeabi/libgnustl_static.a(functexcept.o)
                0x0000c014                _ZNSt11range_errorD0Ev
 .text._ZNSt14overflow_errorD0Ev
                0x0000c048       0x34 /Users/Max/android-ndk-r8e/sources/cxx-stl/gnu-libstdc++/4.4.3/libs/armeabi/libgnustl_static.a(functexcept.o)
                0x0000c048                _ZNSt14overflow_errorD0Ev
 .text._ZSt19__throw_ios_failurePKc
                0x0000c07c       0xa4 /Users/Max/android-ndk-r8e/sources/cxx-stl/gnu-libstdc++/4.4.3/libs/armeabi/libgnustl_static.a(functexcept.o)
                0x0000c07c                _ZSt19__throw_ios_failurePKc
 .text._ZSt20__throw_system_errori
                0x0000c120       0xfc /Users/Max/android-ndk-r8e/sources/cxx-stl/gnu-libstdc++/4.4.3/libs/armeabi/libgnustl_static.a(functexcept.o)
                0x0000c120                _ZSt20__throw_system_errori
 .text._ZSt20__throw_domain_errorPKc
                0x0000c21c       0xcc /Users/Max/android-ndk-r8e/sources/cxx-stl/gnu-libstdc++/4.4.3/libs/armeabi/libgnustl_static.a(functexcept.o)
                0x0000c21c                _ZSt20__throw_domain_errorPKc
 .text._ZSt24__throw_invalid_argumentPKc
                0x0000c2e8       0xcc /Users/Max/android-ndk-r8e/sources/cxx-stl/gnu-libstdc++/4.4.3/libs/armeabi/libgnustl_static.a(functexcept.o)
                0x0000c2e8                _ZSt24__throw_invalid_argumentPKc
 .text._ZSt20__throw_length_errorPKc
                0x0000c3b4       0xcc /Users/Max/android-ndk-r8e/sources/cxx-stl/gnu-libstdc++/4.4.3/libs/armeabi/libgnustl_static.a(functexcept.o)
                0x0000c3b4                _ZSt20__throw_length_errorPKc
 .text._ZSt21__throw_runtime_errorPKc
                0x0000c480       0xcc /Users/Max/android-ndk-r8e/sources/cxx-stl/gnu-libstdc++/4.4.3/libs/armeabi/libgnustl_static.a(functexcept.o)
                0x0000c480                _ZSt21__throw_runtime_errorPKc
 .text._ZSt23__throw_underflow_errorPKc
                0x0000c54c       0xcc /Users/Max/android-ndk-r8e/sources/cxx-stl/gnu-libstdc++/4.4.3/libs/armeabi/libgnustl_static.a(functexcept.o)
                0x0000c54c                _ZSt23__throw_underflow_errorPKc
 .text._ZSt19__throw_logic_errorPKc
                0x0000c618       0xcc /Users/Max/android-ndk-r8e/sources/cxx-stl/gnu-libstdc++/4.4.3/libs/armeabi/libgnustl_static.a(functexcept.o)
                0x0000c618                _ZSt19__throw_logic_errorPKc
 .text._ZSt20__throw_out_of_rangePKc
                0x0000c6e4       0xcc /Users/Max/android-ndk-r8e/sources/cxx-stl/gnu-libstdc++/4.4.3/libs/armeabi/libgnustl_static.a(functexcept.o)
                0x0000c6e4                _ZSt20__throw_out_of_rangePKc
 .text._ZSt22__throw_overflow_errorPKc
                0x0000c7b0       0xcc /Users/Max/android-ndk-r8e/sources/cxx-stl/gnu-libstdc++/4.4.3/libs/armeabi/libgnustl_static.a(functexcept.o)
                0x0000c7b0                _ZSt22__throw_overflow_errorPKc
 .text._ZSt19__throw_range_errorPKc
                0x0000c87c       0xcc /Users/Max/android-ndk-r8e/sources/cxx-stl/gnu-libstdc++/4.4.3/libs/armeabi/libgnustl_static.a(functexcept.o)
                0x0000c87c                _ZSt19__throw_range_errorPKc
 .text          0x0000c948        0x0 /Users/Max/android-ndk-r8e/sources/cxx-stl/gnu-libstdc++/4.4.3/libs/armeabi/libgnustl_static.a(ios_failure.o)
 .text._ZNKSt8ios_base7failure4whatEv
                0x0000c948        0x8 /Users/Max/android-ndk-r8e/sources/cxx-stl/gnu-libstdc++/4.4.3/libs/armeabi/libgnustl_static.a(ios_failure.o)
                0x0000c948                _ZNKSt8ios_base7failure4whatEv
 .text._ZNSt8ios_base7failureD1Ev
                0x0000c950       0x9c /Users/Max/android-ndk-r8e/sources/cxx-stl/gnu-libstdc++/4.4.3/libs/armeabi/libgnustl_static.a(ios_failure.o)
                0x0000c950                _ZNSt8ios_base7failureD1Ev
 .text._ZNSt8ios_base7failureD0Ev
                0x0000c9ec       0x1c /Users/Max/android-ndk-r8e/sources/cxx-stl/gnu-libstdc++/4.4.3/libs/armeabi/libgnustl_static.a(ios_failure.o)
                0x0000c9ec                _ZNSt8ios_base7failureD0Ev
 .text._ZNSt8ios_base7failureC1ERKSs
                0x0000ca08       0x50 /Users/Max/android-ndk-r8e/sources/cxx-stl/gnu-libstdc++/4.4.3/libs/armeabi/libgnustl_static.a(ios_failure.o)
                0x0000ca08                _ZNSt8ios_base7failureC1ERKSs
 .text._ZNSt8ios_base7failureC2ERKSs
                0x0000ca58       0x50 /Users/Max/android-ndk-r8e/sources/cxx-stl/gnu-libstdc++/4.4.3/libs/armeabi/libgnustl_static.a(ios_failure.o)
                0x0000ca58                _ZNSt8ios_base7failureC2ERKSs
 .text._ZNSt8ios_base7failureD2Ev
                0x0000caa8       0x9c /Users/Max/android-ndk-r8e/sources/cxx-stl/gnu-libstdc++/4.4.3/libs/armeabi/libgnustl_static.a(ios_failure.o)
                0x0000caa8                _ZNSt8ios_base7failureD2Ev
 .text          0x0000cb44        0x0 /Users/Max/android-ndk-r8e/sources/cxx-stl/gnu-libstdc++/4.4.3/libs/armeabi/libgnustl_static.a(stdexcept.o)
 .text._ZNKSt11logic_error4whatEv
                0x0000cb44        0x8 /Users/Max/android-ndk-r8e/sources/cxx-stl/gnu-libstdc++/4.4.3/libs/armeabi/libgnustl_static.a(stdexcept.o)
                0x0000cb44                _ZNKSt11logic_error4whatEv
 .text._ZNKSt13runtime_error4whatEv
                0x0000cb4c        0x8 /Users/Max/android-ndk-r8e/sources/cxx-stl/gnu-libstdc++/4.4.3/libs/armeabi/libgnustl_static.a(stdexcept.o)
                0x0000cb4c                _ZNKSt13runtime_error4whatEv
 .text._ZNSt13runtime_errorC1ERKSs
                0x0000cb54       0x3c /Users/Max/android-ndk-r8e/sources/cxx-stl/gnu-libstdc++/4.4.3/libs/armeabi/libgnustl_static.a(stdexcept.o)
                0x0000cb54                _ZNSt13runtime_errorC1ERKSs
 .text._ZNSt13runtime_errorC2ERKSs
                0x0000cb90       0x3c /Users/Max/android-ndk-r8e/sources/cxx-stl/gnu-libstdc++/4.4.3/libs/armeabi/libgnustl_static.a(stdexcept.o)
                0x0000cb90                _ZNSt13runtime_errorC2ERKSs
 .text._ZNSt15underflow_errorC1ERKSs
                0x0000cbcc       0x28 /Users/Max/android-ndk-r8e/sources/cxx-stl/gnu-libstdc++/4.4.3/libs/armeabi/libgnustl_static.a(stdexcept.o)
                0x0000cbcc                _ZNSt15underflow_errorC1ERKSs
 .text._ZNSt15underflow_errorC2ERKSs
                0x0000cbf4       0x28 /Users/Max/android-ndk-r8e/sources/cxx-stl/gnu-libstdc++/4.4.3/libs/armeabi/libgnustl_static.a(stdexcept.o)
                0x0000cbf4                _ZNSt15underflow_errorC2ERKSs
 .text._ZNSt14overflow_errorC1ERKSs
                0x0000cc1c       0x28 /Users/Max/android-ndk-r8e/sources/cxx-stl/gnu-libstdc++/4.4.3/libs/armeabi/libgnustl_static.a(stdexcept.o)
                0x0000cc1c                _ZNSt14overflow_errorC1ERKSs
 .text._ZNSt14overflow_errorC2ERKSs
                0x0000cc44       0x28 /Users/Max/android-ndk-r8e/sources/cxx-stl/gnu-libstdc++/4.4.3/libs/armeabi/libgnustl_static.a(stdexcept.o)
                0x0000cc44                _ZNSt14overflow_errorC2ERKSs
 .text._ZNSt11range_errorC1ERKSs
                0x0000cc6c       0x28 /Users/Max/android-ndk-r8e/sources/cxx-stl/gnu-libstdc++/4.4.3/libs/armeabi/libgnustl_static.a(stdexcept.o)
                0x0000cc6c                _ZNSt11range_errorC1ERKSs
 .text._ZNSt11range_errorC2ERKSs
                0x0000cc94       0x28 /Users/Max/android-ndk-r8e/sources/cxx-stl/gnu-libstdc++/4.4.3/libs/armeabi/libgnustl_static.a(stdexcept.o)
                0x0000cc94                _ZNSt11range_errorC2ERKSs
 .text._ZNSt11logic_errorC1ERKSs
                0x0000ccbc       0x3c /Users/Max/android-ndk-r8e/sources/cxx-stl/gnu-libstdc++/4.4.3/libs/armeabi/libgnustl_static.a(stdexcept.o)
                0x0000ccbc                _ZNSt11logic_errorC1ERKSs
 .text._ZNSt11logic_errorC2ERKSs
                0x0000ccf8       0x3c /Users/Max/android-ndk-r8e/sources/cxx-stl/gnu-libstdc++/4.4.3/libs/armeabi/libgnustl_static.a(stdexcept.o)
                0x0000ccf8                _ZNSt11logic_errorC2ERKSs
 .text._ZNSt12out_of_rangeC1ERKSs
                0x0000cd34       0x28 /Users/Max/android-ndk-r8e/sources/cxx-stl/gnu-libstdc++/4.4.3/libs/armeabi/libgnustl_static.a(stdexcept.o)
                0x0000cd34                _ZNSt12out_of_rangeC1ERKSs
 .text._ZNSt12out_of_rangeC2ERKSs
                0x0000cd5c       0x28 /Users/Max/android-ndk-r8e/sources/cxx-stl/gnu-libstdc++/4.4.3/libs/armeabi/libgnustl_static.a(stdexcept.o)
                0x0000cd5c                _ZNSt12out_of_rangeC2ERKSs
 .text._ZNSt12length_errorC1ERKSs
                0x0000cd84       0x28 /Users/Max/android-ndk-r8e/sources/cxx-stl/gnu-libstdc++/4.4.3/libs/armeabi/libgnustl_static.a(stdexcept.o)
                0x0000cd84                _ZNSt12length_errorC1ERKSs
 .text._ZNSt12length_errorC2ERKSs
                0x0000cdac       0x28 /Users/Max/android-ndk-r8e/sources/cxx-stl/gnu-libstdc++/4.4.3/libs/armeabi/libgnustl_static.a(stdexcept.o)
                0x0000cdac                _ZNSt12length_errorC2ERKSs
 .text._ZNSt16invalid_argumentC1ERKSs
                0x0000cdd4       0x28 /Users/Max/android-ndk-r8e/sources/cxx-stl/gnu-libstdc++/4.4.3/libs/armeabi/libgnustl_static.a(stdexcept.o)
                0x0000cdd4                _ZNSt16invalid_argumentC1ERKSs
 .text._ZNSt16invalid_argumentC2ERKSs
                0x0000cdfc       0x28 /Users/Max/android-ndk-r8e/sources/cxx-stl/gnu-libstdc++/4.4.3/libs/armeabi/libgnustl_static.a(stdexcept.o)
                0x0000cdfc                _ZNSt16invalid_argumentC2ERKSs
 .text._ZNSt12domain_errorC1ERKSs
                0x0000ce24       0x28 /Users/Max/android-ndk-r8e/sources/cxx-stl/gnu-libstdc++/4.4.3/libs/armeabi/libgnustl_static.a(stdexcept.o)
                0x0000ce24                _ZNSt12domain_errorC1ERKSs
 .text._ZNSt12domain_errorC2ERKSs
                0x0000ce4c       0x28 /Users/Max/android-ndk-r8e/sources/cxx-stl/gnu-libstdc++/4.4.3/libs/armeabi/libgnustl_static.a(stdexcept.o)
                0x0000ce4c                _ZNSt12domain_errorC2ERKSs
 .text._ZNSt13runtime_errorD2Ev
                0x0000ce74       0x9c /Users/Max/android-ndk-r8e/sources/cxx-stl/gnu-libstdc++/4.4.3/libs/armeabi/libgnustl_static.a(stdexcept.o)
                0x0000ce74                _ZNSt13runtime_errorD2Ev
 .text._ZNSt11logic_errorD1Ev
                0x0000cf10       0x9c /Users/Max/android-ndk-r8e/sources/cxx-stl/gnu-libstdc++/4.4.3/libs/armeabi/libgnustl_static.a(stdexcept.o)
                0x0000cf10                _ZNSt11logic_errorD1Ev
 .text._ZNSt11logic_errorD0Ev
                0x0000cfac       0x1c /Users/Max/android-ndk-r8e/sources/cxx-stl/gnu-libstdc++/4.4.3/libs/armeabi/libgnustl_static.a(stdexcept.o)
                0x0000cfac                _ZNSt11logic_errorD0Ev
 .text._ZNSt13runtime_errorD1Ev
                0x0000cfc8       0x9c /Users/Max/android-ndk-r8e/sources/cxx-stl/gnu-libstdc++/4.4.3/libs/armeabi/libgnustl_static.a(stdexcept.o)
                0x0000cfc8                _ZNSt13runtime_errorD1Ev
 .text._ZNSt13runtime_errorD0Ev
                0x0000d064       0x1c /Users/Max/android-ndk-r8e/sources/cxx-stl/gnu-libstdc++/4.4.3/libs/armeabi/libgnustl_static.a(stdexcept.o)
                0x0000d064                _ZNSt13runtime_errorD0Ev
 .text._ZNSt11logic_errorD2Ev
                0x0000d080       0x9c /Users/Max/android-ndk-r8e/sources/cxx-stl/gnu-libstdc++/4.4.3/libs/armeabi/libgnustl_static.a(stdexcept.o)
                0x0000d080                _ZNSt11logic_errorD2Ev
 .text          0x0000d11c        0x0 /Users/Max/android-ndk-r8e/sources/cxx-stl/gnu-libstdc++/4.4.3/libs/armeabi/libgnustl_static.a(system_error.o)
 .text._ZNSt14error_categoryD1Ev
                0x0000d11c        0x4 /Users/Max/android-ndk-r8e/sources/cxx-stl/gnu-libstdc++/4.4.3/libs/armeabi/libgnustl_static.a(system_error.o)
                0x0000d11c                _ZNSt14error_categoryD1Ev
 .text._ZNK12_GLOBAL__N_122generic_error_category4nameEv
                0x0000d120       0x10 /Users/Max/android-ndk-r8e/sources/cxx-stl/gnu-libstdc++/4.4.3/libs/armeabi/libgnustl_static.a(system_error.o)
 .text._ZNK12_GLOBAL__N_121system_error_category4nameEv
                0x0000d130       0x10 /Users/Max/android-ndk-r8e/sources/cxx-stl/gnu-libstdc++/4.4.3/libs/armeabi/libgnustl_static.a(system_error.o)
 .text._ZSt15system_categoryv
                0x0000d140       0x10 /Users/Max/android-ndk-r8e/sources/cxx-stl/gnu-libstdc++/4.4.3/libs/armeabi/libgnustl_static.a(system_error.o)
                0x0000d140                _ZSt15system_categoryv
 .text._ZSt16generic_categoryv
                0x0000d150       0x10 /Users/Max/android-ndk-r8e/sources/cxx-stl/gnu-libstdc++/4.4.3/libs/armeabi/libgnustl_static.a(system_error.o)
                0x0000d150                _ZSt16generic_categoryv
 .text._ZNKSt14error_category23default_error_conditionEi
                0x0000d160        0xc /Users/Max/android-ndk-r8e/sources/cxx-stl/gnu-libstdc++/4.4.3/libs/armeabi/libgnustl_static.a(system_error.o)
                0x0000d160                _ZNKSt14error_category23default_error_conditionEi
 .text._ZNKSt14error_category10equivalentEiRKSt15error_condition
                0x0000d16c       0x5c /Users/Max/android-ndk-r8e/sources/cxx-stl/gnu-libstdc++/4.4.3/libs/armeabi/libgnustl_static.a(system_error.o)
                0x0000d16c                _ZNKSt14error_category10equivalentEiRKSt15error_condition
 .text._ZNKSt14error_category10equivalentERKSt10error_codei
                0x0000d1c8       0x24 /Users/Max/android-ndk-r8e/sources/cxx-stl/gnu-libstdc++/4.4.3/libs/armeabi/libgnustl_static.a(system_error.o)
                0x0000d1c8                _ZNKSt14error_category10equivalentERKSt10error_codei
 .text._ZNKSt10error_code23default_error_conditionEv
                0x0000d1ec       0x28 /Users/Max/android-ndk-r8e/sources/cxx-stl/gnu-libstdc++/4.4.3/libs/armeabi/libgnustl_static.a(system_error.o)
                0x0000d1ec                _ZNKSt10error_code23default_error_conditionEv
 .text._ZN12_GLOBAL__N_122generic_error_categoryD1Ev
                0x0000d214        0x4 /Users/Max/android-ndk-r8e/sources/cxx-stl/gnu-libstdc++/4.4.3/libs/armeabi/libgnustl_static.a(system_error.o)
 .text._ZN12_GLOBAL__N_121system_error_categoryD1Ev
                0x0000d218        0x4 /Users/Max/android-ndk-r8e/sources/cxx-stl/gnu-libstdc++/4.4.3/libs/armeabi/libgnustl_static.a(system_error.o)
 .text._ZNSt14error_categoryD0Ev
                0x0000d21c       0x14 /Users/Max/android-ndk-r8e/sources/cxx-stl/gnu-libstdc++/4.4.3/libs/armeabi/libgnustl_static.a(system_error.o)
                0x0000d21c                _ZNSt14error_categoryD0Ev
 .text._ZN12_GLOBAL__N_121system_error_categoryD0Ev
                0x0000d230       0x14 /Users/Max/android-ndk-r8e/sources/cxx-stl/gnu-libstdc++/4.4.3/libs/armeabi/libgnustl_static.a(system_error.o)
 .text._ZN12_GLOBAL__N_122generic_error_categoryD0Ev
                0x0000d244       0x14 /Users/Max/android-ndk-r8e/sources/cxx-stl/gnu-libstdc++/4.4.3/libs/armeabi/libgnustl_static.a(system_error.o)
 .text._GLOBAL__I_system_error.cc
                0x0000d258       0x7c /Users/Max/android-ndk-r8e/sources/cxx-stl/gnu-libstdc++/4.4.3/libs/armeabi/libgnustl_static.a(system_error.o)
 .text._ZNK12_GLOBAL__N_122generic_error_category7messageEi
                0x0000d2d4       0x34 /Users/Max/android-ndk-r8e/sources/cxx-stl/gnu-libstdc++/4.4.3/libs/armeabi/libgnustl_static.a(system_error.o)
 .text._ZNK12_GLOBAL__N_121system_error_category7messageEi
                0x0000d308       0x34 /Users/Max/android-ndk-r8e/sources/cxx-stl/gnu-libstdc++/4.4.3/libs/armeabi/libgnustl_static.a(system_error.o)
 .text._ZNSt12system_errorD1Ev
                0x0000d33c       0x28 /Users/Max/android-ndk-r8e/sources/cxx-stl/gnu-libstdc++/4.4.3/libs/armeabi/libgnustl_static.a(system_error.o)
                0x0000d33c                _ZNSt12system_errorD1Ev
 .text._ZNSt12system_errorD0Ev
                0x0000d364       0x1c /Users/Max/android-ndk-r8e/sources/cxx-stl/gnu-libstdc++/4.4.3/libs/armeabi/libgnustl_static.a(system_error.o)
                0x0000d364                _ZNSt12system_errorD0Ev
 .text._ZNSt12system_errorD2Ev
                0x0000d380       0x28 /Users/Max/android-ndk-r8e/sources/cxx-stl/gnu-libstdc++/4.4.3/libs/armeabi/libgnustl_static.a(system_error.o)
                0x0000d380                _ZNSt12system_errorD2Ev
 .text          0x0000d3a8        0x0 /Users/Max/android-ndk-r8e/sources/cxx-stl/gnu-libstdc++/4.4.3/libs/armeabi/libgnustl_static.a(bad_cast.o)
 .text._ZNKSt8bad_cast4whatEv
                0x0000d3a8       0x10 /Users/Max/android-ndk-r8e/sources/cxx-stl/gnu-libstdc++/4.4.3/libs/armeabi/libgnustl_static.a(bad_cast.o)
                0x0000d3a8                _ZNKSt8bad_cast4whatEv
 .text._ZNSt8bad_castD1Ev
                0x0000d3b8       0x34 /Users/Max/android-ndk-r8e/sources/cxx-stl/gnu-libstdc++/4.4.3/libs/armeabi/libgnustl_static.a(bad_cast.o)
                0x0000d3b8                _ZNSt8bad_castD1Ev
 .text._ZNSt8bad_castD0Ev
                0x0000d3ec       0x1c /Users/Max/android-ndk-r8e/sources/cxx-stl/gnu-libstdc++/4.4.3/libs/armeabi/libgnustl_static.a(bad_cast.o)
                0x0000d3ec                _ZNSt8bad_castD0Ev
 .text._ZNSt8bad_castD2Ev
                0x0000d408       0x34 /Users/Max/android-ndk-r8e/sources/cxx-stl/gnu-libstdc++/4.4.3/libs/armeabi/libgnustl_static.a(bad_cast.o)
                0x0000d408                _ZNSt8bad_castD2Ev
 .text          0x0000d43c        0x0 /Users/Max/android-ndk-r8e/sources/cxx-stl/gnu-libstdc++/4.4.3/libs/armeabi/libgnustl_static.a(bad_typeid.o)
 .text._ZNKSt10bad_typeid4whatEv
                0x0000d43c       0x10 /Users/Max/android-ndk-r8e/sources/cxx-stl/gnu-libstdc++/4.4.3/libs/armeabi/libgnustl_static.a(bad_typeid.o)
                0x0000d43c                _ZNKSt10bad_typeid4whatEv
 .text._ZNSt10bad_typeidD1Ev
                0x0000d44c       0x34 /Users/Max/android-ndk-r8e/sources/cxx-stl/gnu-libstdc++/4.4.3/libs/armeabi/libgnustl_static.a(bad_typeid.o)
                0x0000d44c                _ZNSt10bad_typeidD1Ev
 .text._ZNSt10bad_typeidD0Ev
                0x0000d480       0x1c /Users/Max/android-ndk-r8e/sources/cxx-stl/gnu-libstdc++/4.4.3/libs/armeabi/libgnustl_static.a(bad_typeid.o)
                0x0000d480                _ZNSt10bad_typeidD0Ev
 .text._ZNSt10bad_typeidD2Ev
                0x0000d49c       0x34 /Users/Max/android-ndk-r8e/sources/cxx-stl/gnu-libstdc++/4.4.3/libs/armeabi/libgnustl_static.a(bad_typeid.o)
                0x0000d49c                _ZNSt10bad_typeidD2Ev
 .text          0x0000d4d0        0x0 /Users/Max/android-ndk-r8e/sources/cxx-stl/gnu-libstdc++/4.4.3/libs/armeabi/libgnustl_static.a(class_type_info.o)
 .text._ZNK10__cxxabiv117__class_type_info11__do_upcastEPKS0_PPv
                0x0000d4d0       0x5c /Users/Max/android-ndk-r8e/sources/cxx-stl/gnu-libstdc++/4.4.3/libs/armeabi/libgnustl_static.a(class_type_info.o)
                0x0000d4d0                _ZNK10__cxxabiv117__class_type_info11__do_upcastEPKS0_PPv
 .text._ZNK10__cxxabiv117__class_type_info20__do_find_public_srcEiPKvPKS0_S2_
                0x0000d52c       0x14 /Users/Max/android-ndk-r8e/sources/cxx-stl/gnu-libstdc++/4.4.3/libs/armeabi/libgnustl_static.a(class_type_info.o)
                0x0000d52c                _ZNK10__cxxabiv117__class_type_info20__do_find_public_srcEiPKvPKS0_S2_
 .text._ZNK10__cxxabiv117__class_type_info11__do_upcastEPKS0_PKvRNS0_15__upcast_resultE
                0x0000d540       0x34 /Users/Max/android-ndk-r8e/sources/cxx-stl/gnu-libstdc++/4.4.3/libs/armeabi/libgnustl_static.a(class_type_info.o)
                0x0000d540                _ZNK10__cxxabiv117__class_type_info11__do_upcastEPKS0_PKvRNS0_15__upcast_resultE
 .text._ZNK10__cxxabiv117__class_type_info12__do_dyncastEiNS0_10__sub_kindEPKS0_PKvS3_S5_RNS0_16__dyncast_resultE
                0x0000d574       0x6c /Users/Max/android-ndk-r8e/sources/cxx-stl/gnu-libstdc++/4.4.3/libs/armeabi/libgnustl_static.a(class_type_info.o)
                0x0000d574                _ZNK10__cxxabiv117__class_type_info12__do_dyncastEiNS0_10__sub_kindEPKS0_PKvS3_S5_RNS0_16__dyncast_resultE
 .text._ZNK10__cxxabiv117__class_type_info10__do_catchEPKSt9type_infoPPvj
                0x0000d5e0       0x48 /Users/Max/android-ndk-r8e/sources/cxx-stl/gnu-libstdc++/4.4.3/libs/armeabi/libgnustl_static.a(class_type_info.o)
                0x0000d5e0                _ZNK10__cxxabiv117__class_type_info10__do_catchEPKSt9type_infoPPvj
 .text._ZN10__cxxabiv117__class_type_infoD1Ev
                0x0000d628       0x34 /Users/Max/android-ndk-r8e/sources/cxx-stl/gnu-libstdc++/4.4.3/libs/armeabi/libgnustl_static.a(class_type_info.o)
                0x0000d628                _ZN10__cxxabiv117__class_type_infoD1Ev
 .text._ZN10__cxxabiv117__class_type_infoD0Ev
                0x0000d65c       0x1c /Users/Max/android-ndk-r8e/sources/cxx-stl/gnu-libstdc++/4.4.3/libs/armeabi/libgnustl_static.a(class_type_info.o)
                0x0000d65c                _ZN10__cxxabiv117__class_type_infoD0Ev
 .text._ZN10__cxxabiv117__class_type_infoD2Ev
                0x0000d678       0x34 /Users/Max/android-ndk-r8e/sources/cxx-stl/gnu-libstdc++/4.4.3/libs/armeabi/libgnustl_static.a(class_type_info.o)
                0x0000d678                _ZN10__cxxabiv117__class_type_infoD2Ev
 .text          0x0000d6ac        0x0 /Users/Max/android-ndk-r8e/sources/cxx-stl/gnu-libstdc++/4.4.3/libs/armeabi/libgnustl_static.a(eh_term_handler.o)
 .text          0x0000d6ac        0x0 /Users/Max/android-ndk-r8e/sources/cxx-stl/gnu-libstdc++/4.4.3/libs/armeabi/libgnustl_static.a(new_handler.o)
 .text._ZSt15set_new_handlerPFvvE
                0x0000d6ac       0x1c /Users/Max/android-ndk-r8e/sources/cxx-stl/gnu-libstdc++/4.4.3/libs/armeabi/libgnustl_static.a(new_handler.o)
                0x0000d6ac                _ZSt15set_new_handlerPFvvE
 .text._ZNKSt9bad_alloc4whatEv
                0x0000d6c8       0x10 /Users/Max/android-ndk-r8e/sources/cxx-stl/gnu-libstdc++/4.4.3/libs/armeabi/libgnustl_static.a(new_handler.o)
                0x0000d6c8                _ZNKSt9bad_alloc4whatEv
 .text._ZNSt9bad_allocD1Ev
                0x0000d6d8       0x34 /Users/Max/android-ndk-r8e/sources/cxx-stl/gnu-libstdc++/4.4.3/libs/armeabi/libgnustl_static.a(new_handler.o)
                0x0000d6d8                _ZNSt9bad_allocD1Ev
 .text._ZNSt9bad_allocD0Ev
                0x0000d70c       0x1c /Users/Max/android-ndk-r8e/sources/cxx-stl/gnu-libstdc++/4.4.3/libs/armeabi/libgnustl_static.a(new_handler.o)
                0x0000d70c                _ZNSt9bad_allocD0Ev
 .text._ZNSt9bad_allocD2Ev
                0x0000d728       0x34 /Users/Max/android-ndk-r8e/sources/cxx-stl/gnu-libstdc++/4.4.3/libs/armeabi/libgnustl_static.a(new_handler.o)
                0x0000d728                _ZNSt9bad_allocD2Ev
 .text          0x0000d75c        0x0 /Users/Max/android-ndk-r8e/sources/cxx-stl/gnu-libstdc++/4.4.3/libs/armeabi/libgnustl_static.a(pbase_type_info.o)
 .text._ZNK10__cxxabiv117__pbase_type_info15__pointer_catchEPKS0_PPvj
                0x0000d75c       0x24 /Users/Max/android-ndk-r8e/sources/cxx-stl/gnu-libstdc++/4.4.3/libs/armeabi/libgnustl_static.a(pbase_type_info.o)
                0x0000d75c                _ZNK10__cxxabiv117__pbase_type_info15__pointer_catchEPKS0_PPvj
 .text._ZNK10__cxxabiv117__pbase_type_info10__do_catchEPKSt9type_infoPPvj
                0x0000d780       0x94 /Users/Max/android-ndk-r8e/sources/cxx-stl/gnu-libstdc++/4.4.3/libs/armeabi/libgnustl_static.a(pbase_type_info.o)
                0x0000d780                _ZNK10__cxxabiv117__pbase_type_info10__do_catchEPKSt9type_infoPPvj
 .text._ZN10__cxxabiv117__pbase_type_infoD1Ev
                0x0000d814       0x34 /Users/Max/android-ndk-r8e/sources/cxx-stl/gnu-libstdc++/4.4.3/libs/armeabi/libgnustl_static.a(pbase_type_info.o)
                0x0000d814                _ZN10__cxxabiv117__pbase_type_infoD1Ev
 .text._ZN10__cxxabiv117__pbase_type_infoD0Ev
                0x0000d848       0x1c /Users/Max/android-ndk-r8e/sources/cxx-stl/gnu-libstdc++/4.4.3/libs/armeabi/libgnustl_static.a(pbase_type_info.o)
                0x0000d848                _ZN10__cxxabiv117__pbase_type_infoD0Ev
 .text._ZN10__cxxabiv117__pbase_type_infoD2Ev
                0x0000d864       0x34 /Users/Max/android-ndk-r8e/sources/cxx-stl/gnu-libstdc++/4.4.3/libs/armeabi/libgnustl_static.a(pbase_type_info.o)
                0x0000d864                _ZN10__cxxabiv117__pbase_type_infoD2Ev
 .text          0x0000d898        0x0 /Users/Max/android-ndk-r8e/sources/cxx-stl/gnu-libstdc++/4.4.3/libs/armeabi/libgnustl_static.a(vterminate.o)
 .text._ZN9__gnu_cxx27__verbose_terminate_handlerEv
                0x0000d898      0x1c4 /Users/Max/android-ndk-r8e/sources/cxx-stl/gnu-libstdc++/4.4.3/libs/armeabi/libgnustl_static.a(vterminate.o)
                0x0000d898                _ZN9__gnu_cxx27__verbose_terminate_handlerEv
 .text          0x0000da5c     0x4974 /Users/Max/android-ndk-r8e/sources/cxx-stl/gnu-libstdc++/4.4.3/libs/armeabi/libgnustl_static.a(cp-demangle.o)
                0x000117a8                __cxa_demangle
                0x00011774                __gcclibcxx_demangle_callback
 .text          0x000123d0        0x0 /Users/Max/android-ndk-r8e/sources/cxx-stl/gnu-libstdc++/4.4.3/libs/armeabi/libgnustl_static.a(eh_type.o)
 .text.__cxa_current_exception_type
                0x000123d0       0x2c /Users/Max/android-ndk-r8e/sources/cxx-stl/gnu-libstdc++/4.4.3/libs/armeabi/libgnustl_static.a(eh_type.o)
                0x000123d0                __cxa_current_exception_type
 .text          0x000123fc      0xec4 /Users/Max/android-ndk-r8e/toolchains/arm-linux-androideabi-4.4.3/prebuilt/darwin-x86/bin/../lib/gcc/arm-linux-androideabi/4.4.3/libgcc.a(unwind-arm.o)
                0x00012e24                __gnu_Unwind_RaiseException
                0x0001297c                __aeabi_unwind_cpp_pr0
                0x000124ac                _Unwind_GetCFA
                0x00012448                _Unwind_VRS_Set
                0x00012bc0                __gnu_Unwind_Backtrace
                0x00012f54                _Unwind_VRS_Pop
                0x0001296c                __aeabi_unwind_cpp_pr2
                0x000124b8                _Unwind_DeleteException
                0x000124b4                _Unwind_Complete
                0x00012ee8                __gnu_Unwind_Resume
                0x00012db0                __gnu_Unwind_ForcedUnwind
                0x00012ec8                __gnu_Unwind_Resume_or_Rethrow
                0x000123fc                _Unwind_VRS_Get
                0x00012974                __aeabi_unwind_cpp_pr1
 .text          0x000132c0      0x1a8 /Users/Max/android-ndk-r8e/toolchains/arm-linux-androideabi-4.4.3/prebuilt/darwin-x86/bin/../lib/gcc/arm-linux-androideabi/4.4.3/libgcc.a(libunwind.o)
                0x00013420                ___Unwind_ForcedUnwind
                0x000132dc                __gnu_Unwind_Save_VFP
                0x000133fc                _Unwind_Resume_or_Rethrow
                0x000133fc                ___Unwind_Resume_or_Rethrow
                0x00013444                _Unwind_Backtrace
                0x000132c0                __restore_core_regs
                0x000132fc                __gnu_Unwind_Save_VFP_D_16_to_31
                0x000132ec                __gnu_Unwind_Save_VFP_D
                0x00013444                ___Unwind_Backtrace
                0x000133b4                ___Unwind_RaiseException
                0x000133d8                ___Unwind_Resume
                0x00013304                __gnu_Unwind_Restore_WMMXD
                0x000132d4                __gnu_Unwind_Restore_VFP
                0x000133d8                _Unwind_Resume
                0x000132e4                __gnu_Unwind_Restore_VFP_D
                0x000132f4                __gnu_Unwind_Restore_VFP_D_16_to_31
                0x000133b4                _Unwind_RaiseException
                0x000132c0                restore_core_regs
                0x000133a0                __gnu_Unwind_Save_WMMXC
                0x0001338c                __gnu_Unwind_Restore_WMMXC
                0x00013420                _Unwind_ForcedUnwind
                0x00013348                __gnu_Unwind_Save_WMMXD
 .text          0x00013468      0x484 /Users/Max/android-ndk-r8e/toolchains/arm-linux-androideabi-4.4.3/prebuilt/darwin-x86/bin/../lib/gcc/arm-linux-androideabi/4.4.3/libgcc.a(pr-support.o)
                0x00013508                _Unwind_GetRegionStart
                0x00013534                __gnu_unwind_execute
                0x000134c0                _Unwind_GetTextRelBase
                0x000134d0                _Unwind_GetLanguageSpecificData
                0x000138ac                __gnu_unwind_frame
                0x000134c8                _Unwind_GetDataRelBase
 .text          0x000138ec        0x0 /Users/Max/android-ndk-r8e/platforms/android-9/arch-arm/usr/lib/crtend_so.o
 *(.gnu.warning)
 *(.glue_7t)
 .glue_7t       0x00000000        0x0 linker stubs
 *(.glue_7)
 .glue_7        0x00000000        0x0 linker stubs
 *(.vfp11_veneer)
 .vfp11_veneer  0x00000000        0x0 linker stubs
 *(.v4_bx)
 .v4_bx         0x00000000        0x0 linker stubs

.fini
 *(.fini)
                0x000138ec                PROVIDE (__etext, .)
                0x000138ec                PROVIDE (_etext, .)
                0x000138ec                PROVIDE (etext, .)

.rodata         0x000138ec     0x1144
 *(.rodata .rodata.* .gnu.linkonce.r.*)
 .rodata.str1.4
                0x000138ec      0x310 release/s3ePushWoosh_platform.os
 .rodata.str1.4
                0x00013bfc        0xd release/s3ePushWoosh_register.os
                                 0x10 (size before relaxing)
 *fill*         0x00013c09        0x3 00
 .rodata._ZNSs4nposE
                0x00013c0c        0x4 /Users/Max/android-ndk-r8e/sources/cxx-stl/gnu-libstdc++/4.4.3/libs/armeabi/libgnustl_static.a(string-inst.o)
                0x00013c0c                _ZNSs4nposE
 .rodata._ZNSs4_Rep11_S_max_sizeE
                0x00013c10        0x4 /Users/Max/android-ndk-r8e/sources/cxx-stl/gnu-libstdc++/4.4.3/libs/armeabi/libgnustl_static.a(string-inst.o)
                0x00013c10                _ZNSs4_Rep11_S_max_sizeE
 .rodata._ZNSs4_Rep11_S_terminalE
                0x00013c14        0x1 /Users/Max/android-ndk-r8e/sources/cxx-stl/gnu-libstdc++/4.4.3/libs/armeabi/libgnustl_static.a(string-inst.o)
                0x00013c14                _ZNSs4_Rep11_S_terminalE
 *fill*         0x00013c15        0x3 00
 .rodata.str1.4
                0x00013c18      0x161 /Users/Max/android-ndk-r8e/sources/cxx-stl/gnu-libstdc++/4.4.3/libs/armeabi/libgnustl_static.a(string-inst.o)
                                0x164 (size before relaxing)
 *fill*         0x00013d79        0x3 00
 .rodata._ZTSN9__gnu_cxx24__concurrence_lock_errorE
                0x00013d7c       0x28 /Users/Max/android-ndk-r8e/sources/cxx-stl/gnu-libstdc++/4.4.3/libs/armeabi/libgnustl_static.a(atomicity.o)
                0x00013d7c                _ZTSN9__gnu_cxx24__concurrence_lock_errorE
 .rodata._ZTSN9__gnu_cxx26__concurrence_unlock_errorE
                0x00013da4       0x2c /Users/Max/android-ndk-r8e/sources/cxx-stl/gnu-libstdc++/4.4.3/libs/armeabi/libgnustl_static.a(atomicity.o)
                0x00013da4                _ZTSN9__gnu_cxx26__concurrence_unlock_errorE
 .rodata.str1.4
                0x00013dd0       0x4a /Users/Max/android-ndk-r8e/sources/cxx-stl/gnu-libstdc++/4.4.3/libs/armeabi/libgnustl_static.a(atomicity.o)
                                 0x4c (size before relaxing)
 .rodata.str1.4
                0x00000000       0x4c /Users/Max/android-ndk-r8e/sources/cxx-stl/gnu-libstdc++/4.4.3/libs/armeabi/libgnustl_static.a(eh_alloc.o)
 *fill*         0x00013e1a        0x2 00
 .rodata._ZTSN10__cxxabiv115__forced_unwindE
                0x00013e1c       0x20 /Users/Max/android-ndk-r8e/sources/cxx-stl/gnu-libstdc++/4.4.3/libs/armeabi/libgnustl_static.a(eh_exception.o)
                0x00013e1c                _ZTSN10__cxxabiv115__forced_unwindE
 .rodata._ZTSN10__cxxabiv119__foreign_exceptionE
                0x00013e3c       0x24 /Users/Max/android-ndk-r8e/sources/cxx-stl/gnu-libstdc++/4.4.3/libs/armeabi/libgnustl_static.a(eh_exception.o)
                0x00013e3c                _ZTSN10__cxxabiv119__foreign_exceptionE
 .rodata.str1.4
                0x00013e60       0x23 /Users/Max/android-ndk-r8e/sources/cxx-stl/gnu-libstdc++/4.4.3/libs/armeabi/libgnustl_static.a(eh_exception.o)
                                 0x24 (size before relaxing)
 *fill*         0x00013e83        0x1 00
 .rodata._ZTSSt9exception
                0x00013e84       0x10 /Users/Max/android-ndk-r8e/sources/cxx-stl/gnu-libstdc++/4.4.3/libs/armeabi/libgnustl_static.a(eh_exception.o)
                0x00013e84                _ZTSSt9exception
 .rodata._ZTSSt13bad_exception
                0x00013e94       0x14 /Users/Max/android-ndk-r8e/sources/cxx-stl/gnu-libstdc++/4.4.3/libs/armeabi/libgnustl_static.a(eh_exception.o)
                0x00013e94                _ZTSSt13bad_exception
 .rodata._ZTSPKe
                0x00013ea8        0x4 /Users/Max/android-ndk-r8e/sources/cxx-stl/gnu-libstdc++/4.4.3/libs/armeabi/libgnustl_static.a(fundamental_type_info.o)
                0x00013ea8                _ZTSPKe
 .rodata._ZTSPe
                0x00013eac        0x4 /Users/Max/android-ndk-r8e/sources/cxx-stl/gnu-libstdc++/4.4.3/libs/armeabi/libgnustl_static.a(fundamental_type_info.o)
                0x00013eac                _ZTSPe
 .rodata._ZTSe  0x00013eb0        0x4 /Users/Max/android-ndk-r8e/sources/cxx-stl/gnu-libstdc++/4.4.3/libs/armeabi/libgnustl_static.a(fundamental_type_info.o)
                0x00013eb0                _ZTSe
 .rodata._ZTSPKd
                0x00013eb4        0x4 /Users/Max/android-ndk-r8e/sources/cxx-stl/gnu-libstdc++/4.4.3/libs/armeabi/libgnustl_static.a(fundamental_type_info.o)
                0x00013eb4                _ZTSPKd
 .rodata._ZTSPd
                0x00013eb8        0x4 /Users/Max/android-ndk-r8e/sources/cxx-stl/gnu-libstdc++/4.4.3/libs/armeabi/libgnustl_static.a(fundamental_type_info.o)
                0x00013eb8                _ZTSPd
 .rodata._ZTSd  0x00013ebc        0x4 /Users/Max/android-ndk-r8e/sources/cxx-stl/gnu-libstdc++/4.4.3/libs/armeabi/libgnustl_static.a(fundamental_type_info.o)
                0x00013ebc                _ZTSd
 .rodata._ZTSPKf
                0x00013ec0        0x4 /Users/Max/android-ndk-r8e/sources/cxx-stl/gnu-libstdc++/4.4.3/libs/armeabi/libgnustl_static.a(fundamental_type_info.o)
                0x00013ec0                _ZTSPKf
 .rodata._ZTSPf
                0x00013ec4        0x4 /Users/Max/android-ndk-r8e/sources/cxx-stl/gnu-libstdc++/4.4.3/libs/armeabi/libgnustl_static.a(fundamental_type_info.o)
                0x00013ec4                _ZTSPf
 .rodata._ZTSf  0x00013ec8        0x4 /Users/Max/android-ndk-r8e/sources/cxx-stl/gnu-libstdc++/4.4.3/libs/armeabi/libgnustl_static.a(fundamental_type_info.o)
                0x00013ec8                _ZTSf
 .rodata._ZTSPKy
                0x00013ecc        0x4 /Users/Max/android-ndk-r8e/sources/cxx-stl/gnu-libstdc++/4.4.3/libs/armeabi/libgnustl_static.a(fundamental_type_info.o)
                0x00013ecc                _ZTSPKy
 .rodata._ZTSPy
                0x00013ed0        0x4 /Users/Max/android-ndk-r8e/sources/cxx-stl/gnu-libstdc++/4.4.3/libs/armeabi/libgnustl_static.a(fundamental_type_info.o)
                0x00013ed0                _ZTSPy
 .rodata._ZTSy  0x00013ed4        0x4 /Users/Max/android-ndk-r8e/sources/cxx-stl/gnu-libstdc++/4.4.3/libs/armeabi/libgnustl_static.a(fundamental_type_info.o)
                0x00013ed4                _ZTSy
 .rodata._ZTSPKx
                0x00013ed8        0x4 /Users/Max/android-ndk-r8e/sources/cxx-stl/gnu-libstdc++/4.4.3/libs/armeabi/libgnustl_static.a(fundamental_type_info.o)
                0x00013ed8                _ZTSPKx
 .rodata._ZTSPx
                0x00013edc        0x4 /Users/Max/android-ndk-r8e/sources/cxx-stl/gnu-libstdc++/4.4.3/libs/armeabi/libgnustl_static.a(fundamental_type_info.o)
                0x00013edc                _ZTSPx
 .rodata._ZTSx  0x00013ee0        0x4 /Users/Max/android-ndk-r8e/sources/cxx-stl/gnu-libstdc++/4.4.3/libs/armeabi/libgnustl_static.a(fundamental_type_info.o)
                0x00013ee0                _ZTSx
 .rodata._ZTSPKm
                0x00013ee4        0x4 /Users/Max/android-ndk-r8e/sources/cxx-stl/gnu-libstdc++/4.4.3/libs/armeabi/libgnustl_static.a(fundamental_type_info.o)
                0x00013ee4                _ZTSPKm
 .rodata._ZTSPm
                0x00013ee8        0x4 /Users/Max/android-ndk-r8e/sources/cxx-stl/gnu-libstdc++/4.4.3/libs/armeabi/libgnustl_static.a(fundamental_type_info.o)
                0x00013ee8                _ZTSPm
 .rodata._ZTSm  0x00013eec        0x4 /Users/Max/android-ndk-r8e/sources/cxx-stl/gnu-libstdc++/4.4.3/libs/armeabi/libgnustl_static.a(fundamental_type_info.o)
                0x00013eec                _ZTSm
 .rodata._ZTSPKl
                0x00013ef0        0x4 /Users/Max/android-ndk-r8e/sources/cxx-stl/gnu-libstdc++/4.4.3/libs/armeabi/libgnustl_static.a(fundamental_type_info.o)
                0x00013ef0                _ZTSPKl
 .rodata._ZTSPl
                0x00013ef4        0x4 /Users/Max/android-ndk-r8e/sources/cxx-stl/gnu-libstdc++/4.4.3/libs/armeabi/libgnustl_static.a(fundamental_type_info.o)
                0x00013ef4                _ZTSPl
 .rodata._ZTSl  0x00013ef8        0x4 /Users/Max/android-ndk-r8e/sources/cxx-stl/gnu-libstdc++/4.4.3/libs/armeabi/libgnustl_static.a(fundamental_type_info.o)
                0x00013ef8                _ZTSl
 .rodata._ZTSPKj
                0x00013efc        0x4 /Users/Max/android-ndk-r8e/sources/cxx-stl/gnu-libstdc++/4.4.3/libs/armeabi/libgnustl_static.a(fundamental_type_info.o)
                0x00013efc                _ZTSPKj
 .rodata._ZTSPj
                0x00013f00        0x4 /Users/Max/android-ndk-r8e/sources/cxx-stl/gnu-libstdc++/4.4.3/libs/armeabi/libgnustl_static.a(fundamental_type_info.o)
                0x00013f00                _ZTSPj
 .rodata._ZTSj  0x00013f04        0x4 /Users/Max/android-ndk-r8e/sources/cxx-stl/gnu-libstdc++/4.4.3/libs/armeabi/libgnustl_static.a(fundamental_type_info.o)
                0x00013f04                _ZTSj
 .rodata._ZTSPKi
                0x00013f08        0x4 /Users/Max/android-ndk-r8e/sources/cxx-stl/gnu-libstdc++/4.4.3/libs/armeabi/libgnustl_static.a(fundamental_type_info.o)
                0x00013f08                _ZTSPKi
 .rodata._ZTSPi
                0x00013f0c        0x4 /Users/Max/android-ndk-r8e/sources/cxx-stl/gnu-libstdc++/4.4.3/libs/armeabi/libgnustl_static.a(fundamental_type_info.o)
                0x00013f0c                _ZTSPi
 .rodata._ZTSi  0x00013f10        0x4 /Users/Max/android-ndk-r8e/sources/cxx-stl/gnu-libstdc++/4.4.3/libs/armeabi/libgnustl_static.a(fundamental_type_info.o)
                0x00013f10                _ZTSi
 .rodata._ZTSPKt
                0x00013f14        0x4 /Users/Max/android-ndk-r8e/sources/cxx-stl/gnu-libstdc++/4.4.3/libs/armeabi/libgnustl_static.a(fundamental_type_info.o)
                0x00013f14                _ZTSPKt
 .rodata._ZTSPt
                0x00013f18        0x4 /Users/Max/android-ndk-r8e/sources/cxx-stl/gnu-libstdc++/4.4.3/libs/armeabi/libgnustl_static.a(fundamental_type_info.o)
                0x00013f18                _ZTSPt
 .rodata._ZTSt  0x00013f1c        0x4 /Users/Max/android-ndk-r8e/sources/cxx-stl/gnu-libstdc++/4.4.3/libs/armeabi/libgnustl_static.a(fundamental_type_info.o)
                0x00013f1c                _ZTSt
 .rodata._ZTSPKs
                0x00013f20        0x4 /Users/Max/android-ndk-r8e/sources/cxx-stl/gnu-libstdc++/4.4.3/libs/armeabi/libgnustl_static.a(fundamental_type_info.o)
                0x00013f20                _ZTSPKs
 .rodata._ZTSPs
                0x00013f24        0x4 /Users/Max/android-ndk-r8e/sources/cxx-stl/gnu-libstdc++/4.4.3/libs/armeabi/libgnustl_static.a(fundamental_type_info.o)
                0x00013f24                _ZTSPs
 .rodata._ZTSs  0x00013f28        0x4 /Users/Max/android-ndk-r8e/sources/cxx-stl/gnu-libstdc++/4.4.3/libs/armeabi/libgnustl_static.a(fundamental_type_info.o)
                0x00013f28                _ZTSs
 .rodata._ZTSPKh
                0x00013f2c        0x4 /Users/Max/android-ndk-r8e/sources/cxx-stl/gnu-libstdc++/4.4.3/libs/armeabi/libgnustl_static.a(fundamental_type_info.o)
                0x00013f2c                _ZTSPKh
 .rodata._ZTSPh
                0x00013f30        0x4 /Users/Max/android-ndk-r8e/sources/cxx-stl/gnu-libstdc++/4.4.3/libs/armeabi/libgnustl_static.a(fundamental_type_info.o)
                0x00013f30                _ZTSPh
 .rodata._ZTSh  0x00013f34        0x4 /Users/Max/android-ndk-r8e/sources/cxx-stl/gnu-libstdc++/4.4.3/libs/armeabi/libgnustl_static.a(fundamental_type_info.o)
                0x00013f34                _ZTSh
 .rodata._ZTSPKa
                0x00013f38        0x4 /Users/Max/android-ndk-r8e/sources/cxx-stl/gnu-libstdc++/4.4.3/libs/armeabi/libgnustl_static.a(fundamental_type_info.o)
                0x00013f38                _ZTSPKa
 .rodata._ZTSPa
                0x00013f3c        0x4 /Users/Max/android-ndk-r8e/sources/cxx-stl/gnu-libstdc++/4.4.3/libs/armeabi/libgnustl_static.a(fundamental_type_info.o)
                0x00013f3c                _ZTSPa
 .rodata._ZTSa  0x00013f40        0x4 /Users/Max/android-ndk-r8e/sources/cxx-stl/gnu-libstdc++/4.4.3/libs/armeabi/libgnustl_static.a(fundamental_type_info.o)
                0x00013f40                _ZTSa
 .rodata._ZTSPKc
                0x00013f44        0x4 /Users/Max/android-ndk-r8e/sources/cxx-stl/gnu-libstdc++/4.4.3/libs/armeabi/libgnustl_static.a(fundamental_type_info.o)
                0x00013f44                _ZTSPKc
 .rodata._ZTSPc
                0x00013f48        0x4 /Users/Max/android-ndk-r8e/sources/cxx-stl/gnu-libstdc++/4.4.3/libs/armeabi/libgnustl_static.a(fundamental_type_info.o)
                0x00013f48                _ZTSPc
 .rodata._ZTSc  0x00013f4c        0x4 /Users/Max/android-ndk-r8e/sources/cxx-stl/gnu-libstdc++/4.4.3/libs/armeabi/libgnustl_static.a(fundamental_type_info.o)
                0x00013f4c                _ZTSc
 .rodata._ZTSPKDi
                0x00013f50        0x8 /Users/Max/android-ndk-r8e/sources/cxx-stl/gnu-libstdc++/4.4.3/libs/armeabi/libgnustl_static.a(fundamental_type_info.o)
                0x00013f50                _ZTSPKDi
 .rodata._ZTSPDi
                0x00013f58        0x4 /Users/Max/android-ndk-r8e/sources/cxx-stl/gnu-libstdc++/4.4.3/libs/armeabi/libgnustl_static.a(fundamental_type_info.o)
                0x00013f58                _ZTSPDi
 .rodata._ZTSDi
                0x00013f5c        0x4 /Users/Max/android-ndk-r8e/sources/cxx-stl/gnu-libstdc++/4.4.3/libs/armeabi/libgnustl_static.a(fundamental_type_info.o)
                0x00013f5c                _ZTSDi
 .rodata._ZTSPKDs
                0x00013f60        0x8 /Users/Max/android-ndk-r8e/sources/cxx-stl/gnu-libstdc++/4.4.3/libs/armeabi/libgnustl_static.a(fundamental_type_info.o)
                0x00013f60                _ZTSPKDs
 .rodata._ZTSPDs
                0x00013f68        0x4 /Users/Max/android-ndk-r8e/sources/cxx-stl/gnu-libstdc++/4.4.3/libs/armeabi/libgnustl_static.a(fundamental_type_info.o)
                0x00013f68                _ZTSPDs
 .rodata._ZTSDs
                0x00013f6c        0x4 /Users/Max/android-ndk-r8e/sources/cxx-stl/gnu-libstdc++/4.4.3/libs/armeabi/libgnustl_static.a(fundamental_type_info.o)
                0x00013f6c                _ZTSDs
 .rodata._ZTSPKw
                0x00013f70        0x4 /Users/Max/android-ndk-r8e/sources/cxx-stl/gnu-libstdc++/4.4.3/libs/armeabi/libgnustl_static.a(fundamental_type_info.o)
                0x00013f70                _ZTSPKw
 .rodata._ZTSPw
                0x00013f74        0x4 /Users/Max/android-ndk-r8e/sources/cxx-stl/gnu-libstdc++/4.4.3/libs/armeabi/libgnustl_static.a(fundamental_type_info.o)
                0x00013f74                _ZTSPw
 .rodata._ZTSw  0x00013f78        0x4 /Users/Max/android-ndk-r8e/sources/cxx-stl/gnu-libstdc++/4.4.3/libs/armeabi/libgnustl_static.a(fundamental_type_info.o)
                0x00013f78                _ZTSw
 .rodata._ZTSPKb
                0x00013f7c        0x4 /Users/Max/android-ndk-r8e/sources/cxx-stl/gnu-libstdc++/4.4.3/libs/armeabi/libgnustl_static.a(fundamental_type_info.o)
                0x00013f7c                _ZTSPKb
 .rodata._ZTSPb
                0x00013f80        0x4 /Users/Max/android-ndk-r8e/sources/cxx-stl/gnu-libstdc++/4.4.3/libs/armeabi/libgnustl_static.a(fundamental_type_info.o)
                0x00013f80                _ZTSPb
 .rodata._ZTSb  0x00013f84        0x4 /Users/Max/android-ndk-r8e/sources/cxx-stl/gnu-libstdc++/4.4.3/libs/armeabi/libgnustl_static.a(fundamental_type_info.o)
                0x00013f84                _ZTSb
 .rodata._ZTSPKv
                0x00013f88        0x4 /Users/Max/android-ndk-r8e/sources/cxx-stl/gnu-libstdc++/4.4.3/libs/armeabi/libgnustl_static.a(fundamental_type_info.o)
                0x00013f88                _ZTSPKv
 .rodata._ZTSPv
                0x00013f8c        0x4 /Users/Max/android-ndk-r8e/sources/cxx-stl/gnu-libstdc++/4.4.3/libs/armeabi/libgnustl_static.a(fundamental_type_info.o)
                0x00013f8c                _ZTSPv
 .rodata._ZTSv  0x00013f90        0x4 /Users/Max/android-ndk-r8e/sources/cxx-stl/gnu-libstdc++/4.4.3/libs/armeabi/libgnustl_static.a(fundamental_type_info.o)
                0x00013f90                _ZTSv
 .rodata._ZTSN10__cxxabiv123__fundamental_type_infoE
                0x00013f94       0x28 /Users/Max/android-ndk-r8e/sources/cxx-stl/gnu-libstdc++/4.4.3/libs/armeabi/libgnustl_static.a(fundamental_type_info.o)
                0x00013f94                _ZTSN10__cxxabiv123__fundamental_type_infoE
 .rodata._ZTSN9__gnu_cxx29__concurrence_broadcast_errorE
                0x00013fbc       0x2c /Users/Max/android-ndk-r8e/sources/cxx-stl/gnu-libstdc++/4.4.3/libs/armeabi/libgnustl_static.a(guard.o)
                0x00013fbc                _ZTSN9__gnu_cxx29__concurrence_broadcast_errorE
 .rodata._ZTSN9__gnu_cxx24__concurrence_wait_errorE
                0x00013fe8       0x28 /Users/Max/android-ndk-r8e/sources/cxx-stl/gnu-libstdc++/4.4.3/libs/armeabi/libgnustl_static.a(guard.o)
                0x00013fe8                _ZTSN9__gnu_cxx24__concurrence_wait_errorE
 .rodata._ZTSN9__gnu_cxx20recursive_init_errorE
                0x00014010       0x24 /Users/Max/android-ndk-r8e/sources/cxx-stl/gnu-libstdc++/4.4.3/libs/armeabi/libgnustl_static.a(guard.o)
                0x00014010                _ZTSN9__gnu_cxx20recursive_init_errorE
 .rodata.str1.4
                0x00014034       0x50 /Users/Max/android-ndk-r8e/sources/cxx-stl/gnu-libstdc++/4.4.3/libs/armeabi/libgnustl_static.a(guard.o)
                                 0x9c (size before relaxing)
 .rodata._ZTSN10__cxxabiv119__pointer_type_infoE
                0x00014084       0x24 /Users/Max/android-ndk-r8e/sources/cxx-stl/gnu-libstdc++/4.4.3/libs/armeabi/libgnustl_static.a(pointer_type_info.o)
                0x00014084                _ZTSN10__cxxabiv119__pointer_type_infoE
 .rodata.str1.4
                0x000140a8       0x1c /Users/Max/android-ndk-r8e/sources/cxx-stl/gnu-libstdc++/4.4.3/libs/armeabi/libgnustl_static.a(pure.o)
 .rodata._ZTSN10__cxxabiv120__si_class_type_infoE
                0x000140c4       0x28 /Users/Max/android-ndk-r8e/sources/cxx-stl/gnu-libstdc++/4.4.3/libs/armeabi/libgnustl_static.a(si_class_type_info.o)
                0x000140c4                _ZTSN10__cxxabiv120__si_class_type_infoE
 .rodata._ZTSSt9type_info
                0x000140ec       0x10 /Users/Max/android-ndk-r8e/sources/cxx-stl/gnu-libstdc++/4.4.3/libs/armeabi/libgnustl_static.a(tinfo.o)
                0x000140ec                _ZTSSt9type_info
 .rodata._ZTSSt15underflow_error
                0x000140fc       0x14 /Users/Max/android-ndk-r8e/sources/cxx-stl/gnu-libstdc++/4.4.3/libs/armeabi/libgnustl_static.a(functexcept.o)
                0x000140fc                _ZTSSt15underflow_error
 .rodata._ZTSSt14overflow_error
                0x00014110       0x14 /Users/Max/android-ndk-r8e/sources/cxx-stl/gnu-libstdc++/4.4.3/libs/armeabi/libgnustl_static.a(functexcept.o)
                0x00014110                _ZTSSt14overflow_error
 .rodata._ZTSSt11range_error
                0x00014124       0x10 /Users/Max/android-ndk-r8e/sources/cxx-stl/gnu-libstdc++/4.4.3/libs/armeabi/libgnustl_static.a(functexcept.o)
                0x00014124                _ZTSSt11range_error
 .rodata._ZTSSt12out_of_range
                0x00014134       0x14 /Users/Max/android-ndk-r8e/sources/cxx-stl/gnu-libstdc++/4.4.3/libs/armeabi/libgnustl_static.a(functexcept.o)
                0x00014134                _ZTSSt12out_of_range
 .rodata._ZTSSt12length_error
                0x00014148       0x14 /Users/Max/android-ndk-r8e/sources/cxx-stl/gnu-libstdc++/4.4.3/libs/armeabi/libgnustl_static.a(functexcept.o)
                0x00014148                _ZTSSt12length_error
 .rodata._ZTSSt16invalid_argument
                0x0001415c       0x18 /Users/Max/android-ndk-r8e/sources/cxx-stl/gnu-libstdc++/4.4.3/libs/armeabi/libgnustl_static.a(functexcept.o)
                0x0001415c                _ZTSSt16invalid_argument
 .rodata._ZTSSt12domain_error
                0x00014174       0x14 /Users/Max/android-ndk-r8e/sources/cxx-stl/gnu-libstdc++/4.4.3/libs/armeabi/libgnustl_static.a(functexcept.o)
                0x00014174                _ZTSSt12domain_error
 .rodata.str1.4
                0x00000000       0x1c /Users/Max/android-ndk-r8e/sources/cxx-stl/gnu-libstdc++/4.4.3/libs/armeabi/libgnustl_static.a(functexcept.o)
                                  0x4 (size before relaxing)
 .rodata._ZTSNSt8ios_base7failureE
                0x00014188       0x18 /Users/Max/android-ndk-r8e/sources/cxx-stl/gnu-libstdc++/4.4.3/libs/armeabi/libgnustl_static.a(ios_failure.o)
                0x00014188                _ZTSNSt8ios_base7failureE
 .rodata._ZTSSt13runtime_error
                0x000141a0       0x14 /Users/Max/android-ndk-r8e/sources/cxx-stl/gnu-libstdc++/4.4.3/libs/armeabi/libgnustl_static.a(stdexcept.o)
                0x000141a0                _ZTSSt13runtime_error
 .rodata._ZTSSt11logic_error
                0x000141b4       0x10 /Users/Max/android-ndk-r8e/sources/cxx-stl/gnu-libstdc++/4.4.3/libs/armeabi/libgnustl_static.a(stdexcept.o)
                0x000141b4                _ZTSSt11logic_error
 .rodata._ZTSN12_GLOBAL__N_121system_error_categoryE
                0x000141c4       0x28 /Users/Max/android-ndk-r8e/sources/cxx-stl/gnu-libstdc++/4.4.3/libs/armeabi/libgnustl_static.a(system_error.o)
 .rodata._ZTSN12_GLOBAL__N_122generic_error_categoryE
                0x000141ec       0x2c /Users/Max/android-ndk-r8e/sources/cxx-stl/gnu-libstdc++/4.4.3/libs/armeabi/libgnustl_static.a(system_error.o)
 .rodata._ZTSSt14error_category
                0x00014218       0x14 /Users/Max/android-ndk-r8e/sources/cxx-stl/gnu-libstdc++/4.4.3/libs/armeabi/libgnustl_static.a(system_error.o)
                0x00014218                _ZTSSt14error_category
 .rodata.str1.4
                0x0001422c        0xf /Users/Max/android-ndk-r8e/sources/cxx-stl/gnu-libstdc++/4.4.3/libs/armeabi/libgnustl_static.a(system_error.o)
                                 0x10 (size before relaxing)
 *fill*         0x0001423b        0x1 00
 .rodata._ZTSSt12system_error
                0x0001423c       0x14 /Users/Max/android-ndk-r8e/sources/cxx-stl/gnu-libstdc++/4.4.3/libs/armeabi/libgnustl_static.a(system_error.o)
                0x0001423c                _ZTSSt12system_error
 .rodata._ZTSSt8bad_cast
                0x00014250        0xc /Users/Max/android-ndk-r8e/sources/cxx-stl/gnu-libstdc++/4.4.3/libs/armeabi/libgnustl_static.a(bad_cast.o)
                0x00014250                _ZTSSt8bad_cast
 .rodata.str1.4
                0x0001425c        0xe /Users/Max/android-ndk-r8e/sources/cxx-stl/gnu-libstdc++/4.4.3/libs/armeabi/libgnustl_static.a(bad_cast.o)
                                 0x10 (size before relaxing)
 *fill*         0x0001426a        0x2 00
 .rodata.str1.4
                0x0001426c       0x10 /Users/Max/android-ndk-r8e/sources/cxx-stl/gnu-libstdc++/4.4.3/libs/armeabi/libgnustl_static.a(bad_typeid.o)
 .rodata._ZTSSt10bad_typeid
                0x0001427c       0x10 /Users/Max/android-ndk-r8e/sources/cxx-stl/gnu-libstdc++/4.4.3/libs/armeabi/libgnustl_static.a(bad_typeid.o)
                0x0001427c                _ZTSSt10bad_typeid
 .rodata._ZTSN10__cxxabiv117__class_type_infoE
                0x0001428c       0x24 /Users/Max/android-ndk-r8e/sources/cxx-stl/gnu-libstdc++/4.4.3/libs/armeabi/libgnustl_static.a(class_type_info.o)
                0x0001428c                _ZTSN10__cxxabiv117__class_type_infoE
 .rodata._ZTSSt9bad_alloc
                0x000142b0       0x10 /Users/Max/android-ndk-r8e/sources/cxx-stl/gnu-libstdc++/4.4.3/libs/armeabi/libgnustl_static.a(new_handler.o)
                0x000142b0                _ZTSSt9bad_alloc
 .rodata.str1.4
                0x000142c0        0xf /Users/Max/android-ndk-r8e/sources/cxx-stl/gnu-libstdc++/4.4.3/libs/armeabi/libgnustl_static.a(new_handler.o)
                                 0x10 (size before relaxing)
 *fill*         0x000142cf        0x1 00
 .rodata._ZSt7nothrow
                0x000142d0        0x4 /Users/Max/android-ndk-r8e/sources/cxx-stl/gnu-libstdc++/4.4.3/libs/armeabi/libgnustl_static.a(new_handler.o)
                0x000142d0                _ZSt7nothrow
 .rodata._ZTSN10__cxxabiv117__pbase_type_infoE
                0x000142d4       0x24 /Users/Max/android-ndk-r8e/sources/cxx-stl/gnu-libstdc++/4.4.3/libs/armeabi/libgnustl_static.a(pbase_type_info.o)
                0x000142d4                _ZTSN10__cxxabiv117__pbase_type_infoE
 .rodata.str1.4
                0x000142f8       0x92 /Users/Max/android-ndk-r8e/sources/cxx-stl/gnu-libstdc++/4.4.3/libs/armeabi/libgnustl_static.a(vterminate.o)
                                 0x94 (size before relaxing)
 *fill*         0x0001438a        0x2 00
 .rodata.str1.4
                0x0001438c      0x6a4 /Users/Max/android-ndk-r8e/sources/cxx-stl/gnu-libstdc++/4.4.3/libs/armeabi/libgnustl_static.a(cp-demangle.o)
                                0x6d0 (size before relaxing)

.rodata1
 *(.rodata1)

.ARM.extab      0x00014a30      0x9d0
 *(.ARM.extab* .gnu.linkonce.armextab.*)
 .ARM.extab.text._ZNKSs7_M_dataEv
                0x00014a30        0x0 /Users/Max/android-ndk-r8e/sources/cxx-stl/gnu-libstdc++/4.4.3/libs/armeabi/libgnustl_static.a(string-inst.o)
 .ARM.extab.text._ZNSs7_M_dataEPc
                0x00014a30        0x0 /Users/Max/android-ndk-r8e/sources/cxx-stl/gnu-libstdc++/4.4.3/libs/armeabi/libgnustl_static.a(string-inst.o)
 .ARM.extab.text._ZNKSs6_M_repEv
                0x00014a30        0x0 /Users/Max/android-ndk-r8e/sources/cxx-stl/gnu-libstdc++/4.4.3/libs/armeabi/libgnustl_static.a(string-inst.o)
 .ARM.extab.text._ZNKSs9_M_ibeginEv
                0x00014a30        0x0 /Users/Max/android-ndk-r8e/sources/cxx-stl/gnu-libstdc++/4.4.3/libs/armeabi/libgnustl_static.a(string-inst.o)
 .ARM.extab.text._ZNKSs7_M_iendEv
                0x00014a30        0x0 /Users/Max/android-ndk-r8e/sources/cxx-stl/gnu-libstdc++/4.4.3/libs/armeabi/libgnustl_static.a(string-inst.o)
 .ARM.extab.text._ZNKSs8_M_limitEjj
                0x00014a30        0x0 /Users/Max/android-ndk-r8e/sources/cxx-stl/gnu-libstdc++/4.4.3/libs/armeabi/libgnustl_static.a(string-inst.o)
 .ARM.extab.text._ZNKSs11_M_disjunctEPKc
                0x00014a30        0x0 /Users/Max/android-ndk-r8e/sources/cxx-stl/gnu-libstdc++/4.4.3/libs/armeabi/libgnustl_static.a(string-inst.o)
 .ARM.extab.text._ZNSs10_S_compareEjj
                0x00014a30        0x0 /Users/Max/android-ndk-r8e/sources/cxx-stl/gnu-libstdc++/4.4.3/libs/armeabi/libgnustl_static.a(string-inst.o)
 .ARM.extab.text._ZNSs12_S_empty_repEv
                0x00014a30        0x0 /Users/Max/android-ndk-r8e/sources/cxx-stl/gnu-libstdc++/4.4.3/libs/armeabi/libgnustl_static.a(string-inst.o)
 .ARM.extab.text._ZNSsC2Ev
                0x00014a30        0x0 /Users/Max/android-ndk-r8e/sources/cxx-stl/gnu-libstdc++/4.4.3/libs/armeabi/libgnustl_static.a(string-inst.o)
 .ARM.extab.text._ZNSsC1Ev
                0x00014a30        0x0 /Users/Max/android-ndk-r8e/sources/cxx-stl/gnu-libstdc++/4.4.3/libs/armeabi/libgnustl_static.a(string-inst.o)
 .ARM.extab.text._ZNKSs5beginEv
                0x00014a30        0x0 /Users/Max/android-ndk-r8e/sources/cxx-stl/gnu-libstdc++/4.4.3/libs/armeabi/libgnustl_static.a(string-inst.o)
 .ARM.extab.text._ZNKSs3endEv
                0x00014a30        0x0 /Users/Max/android-ndk-r8e/sources/cxx-stl/gnu-libstdc++/4.4.3/libs/armeabi/libgnustl_static.a(string-inst.o)
 .ARM.extab.text._ZNKSs6rbeginEv
                0x00014a30        0x0 /Users/Max/android-ndk-r8e/sources/cxx-stl/gnu-libstdc++/4.4.3/libs/armeabi/libgnustl_static.a(string-inst.o)
 .ARM.extab.text._ZNKSs4rendEv
                0x00014a30        0x0 /Users/Max/android-ndk-r8e/sources/cxx-stl/gnu-libstdc++/4.4.3/libs/armeabi/libgnustl_static.a(string-inst.o)
 .ARM.extab.text._ZNKSs4sizeEv
                0x00014a30        0x0 /Users/Max/android-ndk-r8e/sources/cxx-stl/gnu-libstdc++/4.4.3/libs/armeabi/libgnustl_static.a(string-inst.o)
 .ARM.extab.text._ZNKSs6lengthEv
                0x00014a30        0x0 /Users/Max/android-ndk-r8e/sources/cxx-stl/gnu-libstdc++/4.4.3/libs/armeabi/libgnustl_static.a(string-inst.o)
 .ARM.extab.text._ZNKSs8max_sizeEv
                0x00014a30        0x0 /Users/Max/android-ndk-r8e/sources/cxx-stl/gnu-libstdc++/4.4.3/libs/armeabi/libgnustl_static.a(string-inst.o)
 .ARM.extab.text._ZNKSs8capacityEv
                0x00014a30        0x0 /Users/Max/android-ndk-r8e/sources/cxx-stl/gnu-libstdc++/4.4.3/libs/armeabi/libgnustl_static.a(string-inst.o)
 .ARM.extab.text._ZNKSs5emptyEv
                0x00014a30        0x0 /Users/Max/android-ndk-r8e/sources/cxx-stl/gnu-libstdc++/4.4.3/libs/armeabi/libgnustl_static.a(string-inst.o)
 .ARM.extab.text._ZNKSsixEj
                0x00014a30        0x0 /Users/Max/android-ndk-r8e/sources/cxx-stl/gnu-libstdc++/4.4.3/libs/armeabi/libgnustl_static.a(string-inst.o)
 .ARM.extab.text._ZNSs4swapERSs
                0x00014a30        0x0 /Users/Max/android-ndk-r8e/sources/cxx-stl/gnu-libstdc++/4.4.3/libs/armeabi/libgnustl_static.a(string-inst.o)
 .ARM.extab.text._ZNKSs5c_strEv
                0x00014a30        0x0 /Users/Max/android-ndk-r8e/sources/cxx-stl/gnu-libstdc++/4.4.3/libs/armeabi/libgnustl_static.a(string-inst.o)
 .ARM.extab.text._ZNKSs4dataEv
                0x00014a30        0x0 /Users/Max/android-ndk-r8e/sources/cxx-stl/gnu-libstdc++/4.4.3/libs/armeabi/libgnustl_static.a(string-inst.o)
 .ARM.extab.text._ZNKSs13get_allocatorEv
                0x00014a30        0x0 /Users/Max/android-ndk-r8e/sources/cxx-stl/gnu-libstdc++/4.4.3/libs/armeabi/libgnustl_static.a(string-inst.o)
 .ARM.extab.text._ZNKSs5rfindEcj
                0x00014a30        0x0 /Users/Max/android-ndk-r8e/sources/cxx-stl/gnu-libstdc++/4.4.3/libs/armeabi/libgnustl_static.a(string-inst.o)
 .ARM.extab.text._ZNKSs12find_last_ofEcj
                0x00014a30        0x0 /Users/Max/android-ndk-r8e/sources/cxx-stl/gnu-libstdc++/4.4.3/libs/armeabi/libgnustl_static.a(string-inst.o)
 .ARM.extab.text._ZNKSs17find_first_not_ofEcj
                0x00014a30        0x0 /Users/Max/android-ndk-r8e/sources/cxx-stl/gnu-libstdc++/4.4.3/libs/armeabi/libgnustl_static.a(string-inst.o)
 .ARM.extab.text._ZNKSs16find_last_not_ofEcj
                0x00014a30        0x0 /Users/Max/android-ndk-r8e/sources/cxx-stl/gnu-libstdc++/4.4.3/libs/armeabi/libgnustl_static.a(string-inst.o)
 .ARM.extab.text._ZNSs12_Alloc_hiderC2EPcRKSaIcE
                0x00014a30        0x0 /Users/Max/android-ndk-r8e/sources/cxx-stl/gnu-libstdc++/4.4.3/libs/armeabi/libgnustl_static.a(string-inst.o)
 .ARM.extab.text._ZNSs12_Alloc_hiderC1EPcRKSaIcE
                0x00014a30        0x0 /Users/Max/android-ndk-r8e/sources/cxx-stl/gnu-libstdc++/4.4.3/libs/armeabi/libgnustl_static.a(string-inst.o)
 .ARM.extab.text._ZNSs4_Rep12_S_empty_repEv
                0x00014a30        0x0 /Users/Max/android-ndk-r8e/sources/cxx-stl/gnu-libstdc++/4.4.3/libs/armeabi/libgnustl_static.a(string-inst.o)
 .ARM.extab.text._ZNKSs4_Rep12_M_is_leakedEv
                0x00014a30        0x0 /Users/Max/android-ndk-r8e/sources/cxx-stl/gnu-libstdc++/4.4.3/libs/armeabi/libgnustl_static.a(string-inst.o)
 .ARM.extab.text._ZNKSs4_Rep12_M_is_sharedEv
                0x00014a30        0x0 /Users/Max/android-ndk-r8e/sources/cxx-stl/gnu-libstdc++/4.4.3/libs/armeabi/libgnustl_static.a(string-inst.o)
 .ARM.extab.text._ZNSs4_Rep13_M_set_leakedEv
                0x00014a30        0x0 /Users/Max/android-ndk-r8e/sources/cxx-stl/gnu-libstdc++/4.4.3/libs/armeabi/libgnustl_static.a(string-inst.o)
 .ARM.extab.text._ZNSs4_Rep15_M_set_sharableEv
                0x00014a30        0x0 /Users/Max/android-ndk-r8e/sources/cxx-stl/gnu-libstdc++/4.4.3/libs/armeabi/libgnustl_static.a(string-inst.o)
 .ARM.extab.text._ZNSs4_Rep26_M_set_length_and_sharableEj
                0x00014a30        0x0 /Users/Max/android-ndk-r8e/sources/cxx-stl/gnu-libstdc++/4.4.3/libs/armeabi/libgnustl_static.a(string-inst.o)
 .ARM.extab.text._ZNSs4_Rep10_M_refdataEv
                0x00014a30        0x0 /Users/Max/android-ndk-r8e/sources/cxx-stl/gnu-libstdc++/4.4.3/libs/armeabi/libgnustl_static.a(string-inst.o)
 .ARM.extab.text._ZN9__gnu_cxxeqIPcSsEEbRKNS_17__normal_iteratorIT_T0_EES7_
                0x00014a30        0x0 /Users/Max/android-ndk-r8e/sources/cxx-stl/gnu-libstdc++/4.4.3/libs/armeabi/libgnustl_static.a(string-inst.o)
 .ARM.extab.text._ZN9__gnu_cxxeqIPKcSsEEbRKNS_17__normal_iteratorIT_T0_EES8_
                0x00014a30        0x0 /Users/Max/android-ndk-r8e/sources/cxx-stl/gnu-libstdc++/4.4.3/libs/armeabi/libgnustl_static.a(string-inst.o)
 .ARM.extab.text._ZNSs4_Rep10_M_refcopyEv
                0x00014a30       0x1c /Users/Max/android-ndk-r8e/sources/cxx-stl/gnu-libstdc++/4.4.3/libs/armeabi/libgnustl_static.a(string-inst.o)
 .ARM.extab.text._ZNSs4_Rep10_M_destroyERKSaIcE
                0x00014a4c        0x0 /Users/Max/android-ndk-r8e/sources/cxx-stl/gnu-libstdc++/4.4.3/libs/armeabi/libgnustl_static.a(string-inst.o)
 .ARM.extab.text._ZNSs4_Rep10_M_disposeERKSaIcE
                0x00014a4c        0x0 /Users/Max/android-ndk-r8e/sources/cxx-stl/gnu-libstdc++/4.4.3/libs/armeabi/libgnustl_static.a(string-inst.o)
 .ARM.extab.text._ZNKSs15_M_check_lengthEjjPKc
                0x00014a4c        0x0 /Users/Max/android-ndk-r8e/sources/cxx-stl/gnu-libstdc++/4.4.3/libs/armeabi/libgnustl_static.a(string-inst.o)
 .ARM.extab.text._ZNSs4_Rep9_S_createEjjRKSaIcE
                0x00014a4c       0x18 /Users/Max/android-ndk-r8e/sources/cxx-stl/gnu-libstdc++/4.4.3/libs/armeabi/libgnustl_static.a(string-inst.o)
 .ARM.extab.text._ZNKSs16find_last_not_ofEPKcjj
                0x00014a64        0x0 /Users/Max/android-ndk-r8e/sources/cxx-stl/gnu-libstdc++/4.4.3/libs/armeabi/libgnustl_static.a(string-inst.o)
 .ARM.extab.text._ZNKSs16find_last_not_ofERKSsj
                0x00014a64        0x0 /Users/Max/android-ndk-r8e/sources/cxx-stl/gnu-libstdc++/4.4.3/libs/armeabi/libgnustl_static.a(string-inst.o)
 .ARM.extab.text._ZNKSs17find_first_not_ofEPKcjj
                0x00014a64        0x0 /Users/Max/android-ndk-r8e/sources/cxx-stl/gnu-libstdc++/4.4.3/libs/armeabi/libgnustl_static.a(string-inst.o)
 .ARM.extab.text._ZNKSs17find_first_not_ofERKSsj
                0x00014a64        0x0 /Users/Max/android-ndk-r8e/sources/cxx-stl/gnu-libstdc++/4.4.3/libs/armeabi/libgnustl_static.a(string-inst.o)
 .ARM.extab.text._ZNKSs12find_last_ofEPKcjj
                0x00014a64        0x0 /Users/Max/android-ndk-r8e/sources/cxx-stl/gnu-libstdc++/4.4.3/libs/armeabi/libgnustl_static.a(string-inst.o)
 .ARM.extab.text._ZNKSs12find_last_ofERKSsj
                0x00014a64        0x0 /Users/Max/android-ndk-r8e/sources/cxx-stl/gnu-libstdc++/4.4.3/libs/armeabi/libgnustl_static.a(string-inst.o)
 .ARM.extab.text._ZNKSs13find_first_ofEPKcjj
                0x00014a64        0x0 /Users/Max/android-ndk-r8e/sources/cxx-stl/gnu-libstdc++/4.4.3/libs/armeabi/libgnustl_static.a(string-inst.o)
 .ARM.extab.text._ZNKSs13find_first_ofERKSsj
                0x00014a64        0x0 /Users/Max/android-ndk-r8e/sources/cxx-stl/gnu-libstdc++/4.4.3/libs/armeabi/libgnustl_static.a(string-inst.o)
 .ARM.extab.text._ZNKSs4findEcj
                0x00014a64        0x0 /Users/Max/android-ndk-r8e/sources/cxx-stl/gnu-libstdc++/4.4.3/libs/armeabi/libgnustl_static.a(string-inst.o)
 .ARM.extab.text._ZNKSs13find_first_ofEcj
                0x00014a64        0x0 /Users/Max/android-ndk-r8e/sources/cxx-stl/gnu-libstdc++/4.4.3/libs/armeabi/libgnustl_static.a(string-inst.o)
 .ARM.extab.text._ZNKSs2atEj
                0x00014a64        0x0 /Users/Max/android-ndk-r8e/sources/cxx-stl/gnu-libstdc++/4.4.3/libs/armeabi/libgnustl_static.a(string-inst.o)
 .ARM.extab.text._ZNKSs8_M_checkEjPKc
                0x00014a64        0x0 /Users/Max/android-ndk-r8e/sources/cxx-stl/gnu-libstdc++/4.4.3/libs/armeabi/libgnustl_static.a(string-inst.o)
 .ARM.extab.text._ZNKSs7compareEjjRKSsjj
                0x00014a64        0x0 /Users/Max/android-ndk-r8e/sources/cxx-stl/gnu-libstdc++/4.4.3/libs/armeabi/libgnustl_static.a(string-inst.o)
 .ARM.extab.text._ZNSs9_M_assignEPcjc
                0x00014a64        0x0 /Users/Max/android-ndk-r8e/sources/cxx-stl/gnu-libstdc++/4.4.3/libs/armeabi/libgnustl_static.a(string-inst.o)
 .ARM.extab.text._ZNSs7_M_moveEPcPKcj
                0x00014a64        0x0 /Users/Max/android-ndk-r8e/sources/cxx-stl/gnu-libstdc++/4.4.3/libs/armeabi/libgnustl_static.a(string-inst.o)
 .ARM.extab.text._ZNSs7_M_copyEPcPKcj
                0x00014a64        0x0 /Users/Max/android-ndk-r8e/sources/cxx-stl/gnu-libstdc++/4.4.3/libs/armeabi/libgnustl_static.a(string-inst.o)
 .ARM.extab.text._ZNKSs5rfindEPKcjj
                0x00014a64        0x0 /Users/Max/android-ndk-r8e/sources/cxx-stl/gnu-libstdc++/4.4.3/libs/armeabi/libgnustl_static.a(string-inst.o)
 .ARM.extab.text._ZNKSs5rfindERKSsj
                0x00014a64        0x0 /Users/Max/android-ndk-r8e/sources/cxx-stl/gnu-libstdc++/4.4.3/libs/armeabi/libgnustl_static.a(string-inst.o)
 .ARM.extab.text._ZNKSs7compareERKSs
                0x00014a64        0x0 /Users/Max/android-ndk-r8e/sources/cxx-stl/gnu-libstdc++/4.4.3/libs/armeabi/libgnustl_static.a(string-inst.o)
 .ARM.extab.text._ZNKSs7compareEjjPKcj
                0x00014a64        0x0 /Users/Max/android-ndk-r8e/sources/cxx-stl/gnu-libstdc++/4.4.3/libs/armeabi/libgnustl_static.a(string-inst.o)
 .ARM.extab.text._ZNKSs7compareEjjRKSs
                0x00014a64        0x0 /Users/Max/android-ndk-r8e/sources/cxx-stl/gnu-libstdc++/4.4.3/libs/armeabi/libgnustl_static.a(string-inst.o)
 .ARM.extab.text._ZNKSs4findEPKcjj
                0x00014a64        0x0 /Users/Max/android-ndk-r8e/sources/cxx-stl/gnu-libstdc++/4.4.3/libs/armeabi/libgnustl_static.a(string-inst.o)
 .ARM.extab.text._ZNKSs4findERKSsj
                0x00014a64        0x0 /Users/Max/android-ndk-r8e/sources/cxx-stl/gnu-libstdc++/4.4.3/libs/armeabi/libgnustl_static.a(string-inst.o)
 .ARM.extab.text._ZNKSs5rfindEPKcj
                0x00014a64        0x0 /Users/Max/android-ndk-r8e/sources/cxx-stl/gnu-libstdc++/4.4.3/libs/armeabi/libgnustl_static.a(string-inst.o)
 .ARM.extab.text._ZNKSs4findEPKcj
                0x00014a64        0x0 /Users/Max/android-ndk-r8e/sources/cxx-stl/gnu-libstdc++/4.4.3/libs/armeabi/libgnustl_static.a(string-inst.o)
 .ARM.extab.text._ZNKSs16find_last_not_ofEPKcj
                0x00014a64        0x0 /Users/Max/android-ndk-r8e/sources/cxx-stl/gnu-libstdc++/4.4.3/libs/armeabi/libgnustl_static.a(string-inst.o)
 .ARM.extab.text._ZNKSs17find_first_not_ofEPKcj
                0x00014a64        0x0 /Users/Max/android-ndk-r8e/sources/cxx-stl/gnu-libstdc++/4.4.3/libs/armeabi/libgnustl_static.a(string-inst.o)
 .ARM.extab.text._ZNKSs13find_first_ofEPKcj
                0x00014a64        0x0 /Users/Max/android-ndk-r8e/sources/cxx-stl/gnu-libstdc++/4.4.3/libs/armeabi/libgnustl_static.a(string-inst.o)
 .ARM.extab.text._ZNKSs12find_last_ofEPKcj
                0x00014a64        0x0 /Users/Max/android-ndk-r8e/sources/cxx-stl/gnu-libstdc++/4.4.3/libs/armeabi/libgnustl_static.a(string-inst.o)
 .ARM.extab.text._ZNKSs7compareEPKc
                0x00014a64        0x0 /Users/Max/android-ndk-r8e/sources/cxx-stl/gnu-libstdc++/4.4.3/libs/armeabi/libgnustl_static.a(string-inst.o)
 .ARM.extab.text._ZNKSs7compareEjjPKc
                0x00014a64        0x0 /Users/Max/android-ndk-r8e/sources/cxx-stl/gnu-libstdc++/4.4.3/libs/armeabi/libgnustl_static.a(string-inst.o)
 .ARM.extab.text._ZNSs13_S_copy_charsEPcPKcS1_
                0x00014a64        0x0 /Users/Max/android-ndk-r8e/sources/cxx-stl/gnu-libstdc++/4.4.3/libs/armeabi/libgnustl_static.a(string-inst.o)
 .ARM.extab.text._ZNSs13_S_copy_charsEPcN9__gnu_cxx17__normal_iteratorIPKcSsEES4_
                0x00014a64        0x0 /Users/Max/android-ndk-r8e/sources/cxx-stl/gnu-libstdc++/4.4.3/libs/armeabi/libgnustl_static.a(string-inst.o)
 .ARM.extab.text._ZNSs13_S_copy_charsEPcS_S_
                0x00014a64        0x0 /Users/Max/android-ndk-r8e/sources/cxx-stl/gnu-libstdc++/4.4.3/libs/armeabi/libgnustl_static.a(string-inst.o)
 .ARM.extab.text._ZNSs13_S_copy_charsEPcN9__gnu_cxx17__normal_iteratorIS_SsEES2_
                0x00014a64        0x0 /Users/Max/android-ndk-r8e/sources/cxx-stl/gnu-libstdc++/4.4.3/libs/armeabi/libgnustl_static.a(string-inst.o)
 .ARM.extab.text._ZNSs12_S_constructIPKcEEPcT_S3_RKSaIcESt20forward_iterator_tag
                0x00014a64        0x0 /Users/Max/android-ndk-r8e/sources/cxx-stl/gnu-libstdc++/4.4.3/libs/armeabi/libgnustl_static.a(string-inst.o)
 .ARM.extab.text._ZNSsC1IPKcEET_S2_RKSaIcE
                0x00014a64        0x0 /Users/Max/android-ndk-r8e/sources/cxx-stl/gnu-libstdc++/4.4.3/libs/armeabi/libgnustl_static.a(string-inst.o)
 .ARM.extab.text._ZNSsC2IPKcEET_S2_RKSaIcE
                0x00014a64        0x0 /Users/Max/android-ndk-r8e/sources/cxx-stl/gnu-libstdc++/4.4.3/libs/armeabi/libgnustl_static.a(string-inst.o)
 .ARM.extab.text._ZNSsC1ESt16initializer_listIcERKSaIcE
                0x00014a64        0x0 /Users/Max/android-ndk-r8e/sources/cxx-stl/gnu-libstdc++/4.4.3/libs/armeabi/libgnustl_static.a(string-inst.o)
 .ARM.extab.text._ZNSsC2ESt16initializer_listIcERKSaIcE
                0x00014a64        0x0 /Users/Max/android-ndk-r8e/sources/cxx-stl/gnu-libstdc++/4.4.3/libs/armeabi/libgnustl_static.a(string-inst.o)
 .ARM.extab.text._ZNSsC1EPKcRKSaIcE
                0x00014a64        0x0 /Users/Max/android-ndk-r8e/sources/cxx-stl/gnu-libstdc++/4.4.3/libs/armeabi/libgnustl_static.a(string-inst.o)
 .ARM.extab.text._ZNSsC2EPKcRKSaIcE
                0x00014a64        0x0 /Users/Max/android-ndk-r8e/sources/cxx-stl/gnu-libstdc++/4.4.3/libs/armeabi/libgnustl_static.a(string-inst.o)
 .ARM.extab.text._ZNSsC1EPKcjRKSaIcE
                0x00014a64        0x0 /Users/Max/android-ndk-r8e/sources/cxx-stl/gnu-libstdc++/4.4.3/libs/armeabi/libgnustl_static.a(string-inst.o)
 .ARM.extab.text._ZNSsC2EPKcjRKSaIcE
                0x00014a64        0x0 /Users/Max/android-ndk-r8e/sources/cxx-stl/gnu-libstdc++/4.4.3/libs/armeabi/libgnustl_static.a(string-inst.o)
 .ARM.extab.text._ZNSs12_S_constructIPcEES0_T_S1_RKSaIcESt20forward_iterator_tag
                0x00014a64        0x0 /Users/Max/android-ndk-r8e/sources/cxx-stl/gnu-libstdc++/4.4.3/libs/armeabi/libgnustl_static.a(string-inst.o)
 .ARM.extab.text._ZNSsC1IPcEET_S1_RKSaIcE
                0x00014a64        0x0 /Users/Max/android-ndk-r8e/sources/cxx-stl/gnu-libstdc++/4.4.3/libs/armeabi/libgnustl_static.a(string-inst.o)
 .ARM.extab.text._ZNSsC2IPcEET_S1_RKSaIcE
                0x00014a64        0x0 /Users/Max/android-ndk-r8e/sources/cxx-stl/gnu-libstdc++/4.4.3/libs/armeabi/libgnustl_static.a(string-inst.o)
 .ARM.extab.text._ZNSsC1ERKSsjjRKSaIcE
                0x00014a64        0x0 /Users/Max/android-ndk-r8e/sources/cxx-stl/gnu-libstdc++/4.4.3/libs/armeabi/libgnustl_static.a(string-inst.o)
 .ARM.extab.text._ZNSsC2ERKSsjjRKSaIcE
                0x00014a64        0x0 /Users/Max/android-ndk-r8e/sources/cxx-stl/gnu-libstdc++/4.4.3/libs/armeabi/libgnustl_static.a(string-inst.o)
 .ARM.extab.text._ZNSsC1ERKSsjj
                0x00014a64       0x14 /Users/Max/android-ndk-r8e/sources/cxx-stl/gnu-libstdc++/4.4.3/libs/armeabi/libgnustl_static.a(string-inst.o)
 .ARM.extab.text._ZNKSs6substrEjj
                0x00014a78        0x0 /Users/Max/android-ndk-r8e/sources/cxx-stl/gnu-libstdc++/4.4.3/libs/armeabi/libgnustl_static.a(string-inst.o)
 .ARM.extab.text._ZNSsC2ERKSsjj
                0x00014a78       0x14 /Users/Max/android-ndk-r8e/sources/cxx-stl/gnu-libstdc++/4.4.3/libs/armeabi/libgnustl_static.a(string-inst.o)
 .ARM.extab.text._ZNSsD1Ev
                0x00014a8c       0x14 /Users/Max/android-ndk-r8e/sources/cxx-stl/gnu-libstdc++/4.4.3/libs/armeabi/libgnustl_static.a(string-inst.o)
 .ARM.extab.text._ZNSsD2Ev
                0x00014aa0       0x14 /Users/Max/android-ndk-r8e/sources/cxx-stl/gnu-libstdc++/4.4.3/libs/armeabi/libgnustl_static.a(string-inst.o)
 .ARM.extab.text._ZNSs12_S_constructIN9__gnu_cxx17__normal_iteratorIPcSsEEEES2_T_S4_RKSaIcESt20forward_iterator_tag
                0x00014ab4        0x0 /Users/Max/android-ndk-r8e/sources/cxx-stl/gnu-libstdc++/4.4.3/libs/armeabi/libgnustl_static.a(string-inst.o)
 .ARM.extab.text._ZNSsC1IN9__gnu_cxx17__normal_iteratorIPcSsEEEET_S4_RKSaIcE
                0x00014ab4        0x0 /Users/Max/android-ndk-r8e/sources/cxx-stl/gnu-libstdc++/4.4.3/libs/armeabi/libgnustl_static.a(string-inst.o)
 .ARM.extab.text._ZNSsC2IN9__gnu_cxx17__normal_iteratorIPcSsEEEET_S4_RKSaIcE
                0x00014ab4        0x0 /Users/Max/android-ndk-r8e/sources/cxx-stl/gnu-libstdc++/4.4.3/libs/armeabi/libgnustl_static.a(string-inst.o)
 .ARM.extab.text._ZNKSs4copyEPcjj
                0x00014ab4        0x0 /Users/Max/android-ndk-r8e/sources/cxx-stl/gnu-libstdc++/4.4.3/libs/armeabi/libgnustl_static.a(string-inst.o)
 .ARM.extab.text._ZNSs4_Rep8_M_cloneERKSaIcEj
                0x00014ab4        0x0 /Users/Max/android-ndk-r8e/sources/cxx-stl/gnu-libstdc++/4.4.3/libs/armeabi/libgnustl_static.a(string-inst.o)
 .ARM.extab.text._ZNSs7reserveEj
                0x00014ab4       0x18 /Users/Max/android-ndk-r8e/sources/cxx-stl/gnu-libstdc++/4.4.3/libs/armeabi/libgnustl_static.a(string-inst.o)
 .ARM.extab.text._ZNSs9push_backEc
                0x00014acc        0x0 /Users/Max/android-ndk-r8e/sources/cxx-stl/gnu-libstdc++/4.4.3/libs/armeabi/libgnustl_static.a(string-inst.o)
 .ARM.extab.text._ZNSs6appendEjc
                0x00014acc        0x0 /Users/Max/android-ndk-r8e/sources/cxx-stl/gnu-libstdc++/4.4.3/libs/armeabi/libgnustl_static.a(string-inst.o)
 .ARM.extab.text._ZNSs6appendEPKcj
                0x00014acc        0x0 /Users/Max/android-ndk-r8e/sources/cxx-stl/gnu-libstdc++/4.4.3/libs/armeabi/libgnustl_static.a(string-inst.o)
 .ARM.extab.text._ZNSs6appendEPKc
                0x00014acc        0x0 /Users/Max/android-ndk-r8e/sources/cxx-stl/gnu-libstdc++/4.4.3/libs/armeabi/libgnustl_static.a(string-inst.o)
 .ARM.extab.text._ZNSspLEPKc
                0x00014acc        0x0 /Users/Max/android-ndk-r8e/sources/cxx-stl/gnu-libstdc++/4.4.3/libs/armeabi/libgnustl_static.a(string-inst.o)
 .ARM.extab.text._ZNSs6appendERKSsjj
                0x00014acc        0x0 /Users/Max/android-ndk-r8e/sources/cxx-stl/gnu-libstdc++/4.4.3/libs/armeabi/libgnustl_static.a(string-inst.o)
 .ARM.extab.text._ZNSs6appendERKSs
                0x00014acc        0x0 /Users/Max/android-ndk-r8e/sources/cxx-stl/gnu-libstdc++/4.4.3/libs/armeabi/libgnustl_static.a(string-inst.o)
 .ARM.extab.text._ZNSspLERKSs
                0x00014acc        0x0 /Users/Max/android-ndk-r8e/sources/cxx-stl/gnu-libstdc++/4.4.3/libs/armeabi/libgnustl_static.a(string-inst.o)
 .ARM.extab.text._ZStplIcSt11char_traitsIcESaIcEESbIT_T0_T1_ES3_RKS6_
                0x00014acc       0x14 /Users/Max/android-ndk-r8e/sources/cxx-stl/gnu-libstdc++/4.4.3/libs/armeabi/libgnustl_static.a(string-inst.o)
 .ARM.extab.text._ZStplIcSt11char_traitsIcESaIcEESbIT_T0_T1_EPKS3_RKS6_
                0x00014ae0       0x14 /Users/Max/android-ndk-r8e/sources/cxx-stl/gnu-libstdc++/4.4.3/libs/armeabi/libgnustl_static.a(string-inst.o)
 .ARM.extab.text._ZNSspLEc
                0x00014af4        0x0 /Users/Max/android-ndk-r8e/sources/cxx-stl/gnu-libstdc++/4.4.3/libs/armeabi/libgnustl_static.a(string-inst.o)
 .ARM.extab.text._ZNSsC2ERKSs
                0x00014af4       0x28 /Users/Max/android-ndk-r8e/sources/cxx-stl/gnu-libstdc++/4.4.3/libs/armeabi/libgnustl_static.a(string-inst.o)
 .ARM.extab.text._ZNSs4_Rep7_M_grabERKSaIcES2_
                0x00014b1c       0x20 /Users/Max/android-ndk-r8e/sources/cxx-stl/gnu-libstdc++/4.4.3/libs/armeabi/libgnustl_static.a(string-inst.o)
 .ARM.extab.text._ZNSsC1ERKSs
                0x00014b3c       0x28 /Users/Max/android-ndk-r8e/sources/cxx-stl/gnu-libstdc++/4.4.3/libs/armeabi/libgnustl_static.a(string-inst.o)
 .ARM.extab.text._ZStplIcSt11char_traitsIcESaIcEESbIT_T0_T1_ERKS6_S8_
                0x00014b64       0x18 /Users/Max/android-ndk-r8e/sources/cxx-stl/gnu-libstdc++/4.4.3/libs/armeabi/libgnustl_static.a(string-inst.o)
 .ARM.extab.text._ZNSs6assignERKSs
                0x00014b7c       0x34 /Users/Max/android-ndk-r8e/sources/cxx-stl/gnu-libstdc++/4.4.3/libs/armeabi/libgnustl_static.a(string-inst.o)
 .ARM.extab.text._ZNSsaSERKSs
                0x00014bb0        0x0 /Users/Max/android-ndk-r8e/sources/cxx-stl/gnu-libstdc++/4.4.3/libs/armeabi/libgnustl_static.a(string-inst.o)
 .ARM.extab.text._ZNSs9_M_mutateEjjj
                0x00014bb0       0x18 /Users/Max/android-ndk-r8e/sources/cxx-stl/gnu-libstdc++/4.4.3/libs/armeabi/libgnustl_static.a(string-inst.o)
 .ARM.extab.text._ZNSs14_M_replace_auxEjjjc
                0x00014bc8        0x0 /Users/Max/android-ndk-r8e/sources/cxx-stl/gnu-libstdc++/4.4.3/libs/armeabi/libgnustl_static.a(string-inst.o)
 .ARM.extab.text._ZNSs7replaceEN9__gnu_cxx17__normal_iteratorIPcSsEES2_jc
                0x00014bc8        0x0 /Users/Max/android-ndk-r8e/sources/cxx-stl/gnu-libstdc++/4.4.3/libs/armeabi/libgnustl_static.a(string-inst.o)
 .ARM.extab.text._ZNSs7replaceEjjjc
                0x00014bc8        0x0 /Users/Max/android-ndk-r8e/sources/cxx-stl/gnu-libstdc++/4.4.3/libs/armeabi/libgnustl_static.a(string-inst.o)
 .ARM.extab.text._ZNSs6insertEN9__gnu_cxx17__normal_iteratorIPcSsEEc
                0x00014bc8        0x0 /Users/Max/android-ndk-r8e/sources/cxx-stl/gnu-libstdc++/4.4.3/libs/armeabi/libgnustl_static.a(string-inst.o)
 .ARM.extab.text._ZNSs6insertEjjc
                0x00014bc8        0x0 /Users/Max/android-ndk-r8e/sources/cxx-stl/gnu-libstdc++/4.4.3/libs/armeabi/libgnustl_static.a(string-inst.o)
 .ARM.extab.text._ZNSs6assignEjc
                0x00014bc8        0x0 /Users/Max/android-ndk-r8e/sources/cxx-stl/gnu-libstdc++/4.4.3/libs/armeabi/libgnustl_static.a(string-inst.o)
 .ARM.extab.text._ZNSs6insertEN9__gnu_cxx17__normal_iteratorIPcSsEEjc
                0x00014bc8        0x0 /Users/Max/android-ndk-r8e/sources/cxx-stl/gnu-libstdc++/4.4.3/libs/armeabi/libgnustl_static.a(string-inst.o)
 .ARM.extab.text._ZNSsaSEc
                0x00014bc8        0x0 /Users/Max/android-ndk-r8e/sources/cxx-stl/gnu-libstdc++/4.4.3/libs/armeabi/libgnustl_static.a(string-inst.o)
 .ARM.extab.text._ZNSs5eraseEN9__gnu_cxx17__normal_iteratorIPcSsEES2_
                0x00014bc8        0x0 /Users/Max/android-ndk-r8e/sources/cxx-stl/gnu-libstdc++/4.4.3/libs/armeabi/libgnustl_static.a(string-inst.o)
 .ARM.extab.text._ZNSs5eraseEN9__gnu_cxx17__normal_iteratorIPcSsEE
                0x00014bc8        0x0 /Users/Max/android-ndk-r8e/sources/cxx-stl/gnu-libstdc++/4.4.3/libs/armeabi/libgnustl_static.a(string-inst.o)
 .ARM.extab.text._ZNSs5eraseEjj
                0x00014bc8        0x0 /Users/Max/android-ndk-r8e/sources/cxx-stl/gnu-libstdc++/4.4.3/libs/armeabi/libgnustl_static.a(string-inst.o)
 .ARM.extab.text._ZNSs5clearEv
                0x00014bc8        0x0 /Users/Max/android-ndk-r8e/sources/cxx-stl/gnu-libstdc++/4.4.3/libs/armeabi/libgnustl_static.a(string-inst.o)
 .ARM.extab.text._ZNSs12_M_leak_hardEv
                0x00014bc8        0x0 /Users/Max/android-ndk-r8e/sources/cxx-stl/gnu-libstdc++/4.4.3/libs/armeabi/libgnustl_static.a(string-inst.o)
 .ARM.extab.text._ZNSs7_M_leakEv
                0x00014bc8        0x0 /Users/Max/android-ndk-r8e/sources/cxx-stl/gnu-libstdc++/4.4.3/libs/armeabi/libgnustl_static.a(string-inst.o)
 .ARM.extab.text._ZNSsixEj
                0x00014bc8        0x0 /Users/Max/android-ndk-r8e/sources/cxx-stl/gnu-libstdc++/4.4.3/libs/armeabi/libgnustl_static.a(string-inst.o)
 .ARM.extab.text._ZNSs5beginEv
                0x00014bc8        0x0 /Users/Max/android-ndk-r8e/sources/cxx-stl/gnu-libstdc++/4.4.3/libs/armeabi/libgnustl_static.a(string-inst.o)
 .ARM.extab.text._ZNSs4rendEv
                0x00014bc8        0x0 /Users/Max/android-ndk-r8e/sources/cxx-stl/gnu-libstdc++/4.4.3/libs/armeabi/libgnustl_static.a(string-inst.o)
 .ARM.extab.text._ZNSs3endEv
                0x00014bc8        0x0 /Users/Max/android-ndk-r8e/sources/cxx-stl/gnu-libstdc++/4.4.3/libs/armeabi/libgnustl_static.a(string-inst.o)
 .ARM.extab.text._ZNSs2atEj
                0x00014bc8        0x0 /Users/Max/android-ndk-r8e/sources/cxx-stl/gnu-libstdc++/4.4.3/libs/armeabi/libgnustl_static.a(string-inst.o)
 .ARM.extab.text._ZNSs6rbeginEv
                0x00014bc8        0x0 /Users/Max/android-ndk-r8e/sources/cxx-stl/gnu-libstdc++/4.4.3/libs/armeabi/libgnustl_static.a(string-inst.o)
 .ARM.extab.text._ZNSs15_M_replace_safeEjjPKcj
                0x00014bc8        0x0 /Users/Max/android-ndk-r8e/sources/cxx-stl/gnu-libstdc++/4.4.3/libs/armeabi/libgnustl_static.a(string-inst.o)
 .ARM.extab.text._ZNSs6assignEPKcj
                0x00014bc8        0x0 /Users/Max/android-ndk-r8e/sources/cxx-stl/gnu-libstdc++/4.4.3/libs/armeabi/libgnustl_static.a(string-inst.o)
 .ARM.extab.text._ZNSs6assignEPKc
                0x00014bc8        0x0 /Users/Max/android-ndk-r8e/sources/cxx-stl/gnu-libstdc++/4.4.3/libs/armeabi/libgnustl_static.a(string-inst.o)
 .ARM.extab.text._ZNSs6assignERKSsjj
                0x00014bc8        0x0 /Users/Max/android-ndk-r8e/sources/cxx-stl/gnu-libstdc++/4.4.3/libs/armeabi/libgnustl_static.a(string-inst.o)
 .ARM.extab.text._ZNSsaSEPKc
                0x00014bc8        0x0 /Users/Max/android-ndk-r8e/sources/cxx-stl/gnu-libstdc++/4.4.3/libs/armeabi/libgnustl_static.a(string-inst.o)
 .ARM.extab.text._ZNSs6insertEjPKcj
                0x00014bc8        0x0 /Users/Max/android-ndk-r8e/sources/cxx-stl/gnu-libstdc++/4.4.3/libs/armeabi/libgnustl_static.a(string-inst.o)
 .ARM.extab.text._ZNSs6insertEjPKc
                0x00014bc8        0x0 /Users/Max/android-ndk-r8e/sources/cxx-stl/gnu-libstdc++/4.4.3/libs/armeabi/libgnustl_static.a(string-inst.o)
 .ARM.extab.text._ZNSs6insertEjRKSsjj
                0x00014bc8        0x0 /Users/Max/android-ndk-r8e/sources/cxx-stl/gnu-libstdc++/4.4.3/libs/armeabi/libgnustl_static.a(string-inst.o)
 .ARM.extab.text._ZNSs6insertEjRKSs
                0x00014bc8        0x0 /Users/Max/android-ndk-r8e/sources/cxx-stl/gnu-libstdc++/4.4.3/libs/armeabi/libgnustl_static.a(string-inst.o)
 .ARM.extab.text._ZNSs6resizeEjc
                0x00014bc8        0x0 /Users/Max/android-ndk-r8e/sources/cxx-stl/gnu-libstdc++/4.4.3/libs/armeabi/libgnustl_static.a(string-inst.o)
 .ARM.extab.text._ZNSs6resizeEj
                0x00014bc8        0x0 /Users/Max/android-ndk-r8e/sources/cxx-stl/gnu-libstdc++/4.4.3/libs/armeabi/libgnustl_static.a(string-inst.o)
 .ARM.extab.text._ZNSs12_S_constructEjcRKSaIcE
                0x00014bc8        0x0 /Users/Max/android-ndk-r8e/sources/cxx-stl/gnu-libstdc++/4.4.3/libs/armeabi/libgnustl_static.a(string-inst.o)
 .ARM.extab.text._ZNSsC1EjcRKSaIcE
                0x00014bc8        0x0 /Users/Max/android-ndk-r8e/sources/cxx-stl/gnu-libstdc++/4.4.3/libs/armeabi/libgnustl_static.a(string-inst.o)
 .ARM.extab.text._ZNSsC2EjcRKSaIcE
                0x00014bc8        0x0 /Users/Max/android-ndk-r8e/sources/cxx-stl/gnu-libstdc++/4.4.3/libs/armeabi/libgnustl_static.a(string-inst.o)
 .ARM.extab.text._ZNSsC1ERKSaIcE
                0x00014bc8        0x0 /Users/Max/android-ndk-r8e/sources/cxx-stl/gnu-libstdc++/4.4.3/libs/armeabi/libgnustl_static.a(string-inst.o)
 .ARM.extab.text._ZNSsC2ERKSaIcE
                0x00014bc8        0x0 /Users/Max/android-ndk-r8e/sources/cxx-stl/gnu-libstdc++/4.4.3/libs/armeabi/libgnustl_static.a(string-inst.o)
 .ARM.extab.text._ZNSs7replaceEjjPKcj
                0x00014bc8       0x2c /Users/Max/android-ndk-r8e/sources/cxx-stl/gnu-libstdc++/4.4.3/libs/armeabi/libgnustl_static.a(string-inst.o)
 .ARM.extab.text._ZNSs7replaceEN9__gnu_cxx17__normal_iteratorIPcSsEES2_NS0_IPKcSsEES5_
                0x00014bf4        0x0 /Users/Max/android-ndk-r8e/sources/cxx-stl/gnu-libstdc++/4.4.3/libs/armeabi/libgnustl_static.a(string-inst.o)
 .ARM.extab.text._ZNSs7replaceEN9__gnu_cxx17__normal_iteratorIPcSsEES2_S2_S2_
                0x00014bf4        0x0 /Users/Max/android-ndk-r8e/sources/cxx-stl/gnu-libstdc++/4.4.3/libs/armeabi/libgnustl_static.a(string-inst.o)
 .ARM.extab.text._ZNSs7replaceEN9__gnu_cxx17__normal_iteratorIPcSsEES2_PKcS4_
                0x00014bf4        0x0 /Users/Max/android-ndk-r8e/sources/cxx-stl/gnu-libstdc++/4.4.3/libs/armeabi/libgnustl_static.a(string-inst.o)
 .ARM.extab.text._ZNSs7replaceEN9__gnu_cxx17__normal_iteratorIPcSsEES2_S1_S1_
                0x00014bf4        0x0 /Users/Max/android-ndk-r8e/sources/cxx-stl/gnu-libstdc++/4.4.3/libs/armeabi/libgnustl_static.a(string-inst.o)
 .ARM.extab.text._ZNSs7replaceEN9__gnu_cxx17__normal_iteratorIPcSsEES2_PKcj
                0x00014bf4        0x0 /Users/Max/android-ndk-r8e/sources/cxx-stl/gnu-libstdc++/4.4.3/libs/armeabi/libgnustl_static.a(string-inst.o)
 .ARM.extab.text._ZNSs7replaceEjjPKc
                0x00014bf4        0x0 /Users/Max/android-ndk-r8e/sources/cxx-stl/gnu-libstdc++/4.4.3/libs/armeabi/libgnustl_static.a(string-inst.o)
 .ARM.extab.text._ZNSs7replaceEjjRKSsjj
                0x00014bf4        0x0 /Users/Max/android-ndk-r8e/sources/cxx-stl/gnu-libstdc++/4.4.3/libs/armeabi/libgnustl_static.a(string-inst.o)
 .ARM.extab.text._ZNSs7replaceEjjRKSs
                0x00014bf4        0x0 /Users/Max/android-ndk-r8e/sources/cxx-stl/gnu-libstdc++/4.4.3/libs/armeabi/libgnustl_static.a(string-inst.o)
 .ARM.extab.text._ZNSs7replaceEN9__gnu_cxx17__normal_iteratorIPcSsEES2_RKSs
                0x00014bf4        0x0 /Users/Max/android-ndk-r8e/sources/cxx-stl/gnu-libstdc++/4.4.3/libs/armeabi/libgnustl_static.a(string-inst.o)
 .ARM.extab.text._ZNSs7replaceEN9__gnu_cxx17__normal_iteratorIPcSsEES2_PKc
                0x00014bf4        0x0 /Users/Max/android-ndk-r8e/sources/cxx-stl/gnu-libstdc++/4.4.3/libs/armeabi/libgnustl_static.a(string-inst.o)
 .ARM.extab.text._ZNSs7replaceEN9__gnu_cxx17__normal_iteratorIPcSsEES2_St16initializer_listIcE
                0x00014bf4        0x0 /Users/Max/android-ndk-r8e/sources/cxx-stl/gnu-libstdc++/4.4.3/libs/armeabi/libgnustl_static.a(string-inst.o)
 .ARM.extab.text._ZNSs6insertEN9__gnu_cxx17__normal_iteratorIPcSsEESt16initializer_listIcE
                0x00014bf4        0x0 /Users/Max/android-ndk-r8e/sources/cxx-stl/gnu-libstdc++/4.4.3/libs/armeabi/libgnustl_static.a(string-inst.o)
 .ARM.extab.text._ZNSs6assignESt16initializer_listIcE
                0x00014bf4        0x0 /Users/Max/android-ndk-r8e/sources/cxx-stl/gnu-libstdc++/4.4.3/libs/armeabi/libgnustl_static.a(string-inst.o)
 .ARM.extab.text._ZNSsaSESt16initializer_listIcE
                0x00014bf4        0x0 /Users/Max/android-ndk-r8e/sources/cxx-stl/gnu-libstdc++/4.4.3/libs/armeabi/libgnustl_static.a(string-inst.o)
 .ARM.extab.text._ZNSs6appendESt16initializer_listIcE
                0x00014bf4        0x0 /Users/Max/android-ndk-r8e/sources/cxx-stl/gnu-libstdc++/4.4.3/libs/armeabi/libgnustl_static.a(string-inst.o)
 .ARM.extab.text._ZNSspLESt16initializer_listIcE
                0x00014bf4        0x0 /Users/Max/android-ndk-r8e/sources/cxx-stl/gnu-libstdc++/4.4.3/libs/armeabi/libgnustl_static.a(string-inst.o)
 .ARM.extab.text._ZNK9__gnu_cxx24__concurrence_lock_error4whatEv
                0x00014bf4        0x0 /Users/Max/android-ndk-r8e/sources/cxx-stl/gnu-libstdc++/4.4.3/libs/armeabi/libgnustl_static.a(atomicity.o)
 .ARM.extab.text._ZNK9__gnu_cxx26__concurrence_unlock_error4whatEv
                0x00014bf4        0x0 /Users/Max/android-ndk-r8e/sources/cxx-stl/gnu-libstdc++/4.4.3/libs/armeabi/libgnustl_static.a(atomicity.o)
 .ARM.extab.text._ZN9__gnu_cxx24__concurrence_lock_errorD1Ev
                0x00014bf4        0x0 /Users/Max/android-ndk-r8e/sources/cxx-stl/gnu-libstdc++/4.4.3/libs/armeabi/libgnustl_static.a(atomicity.o)
 .ARM.extab.text._ZN9__gnu_cxx26__concurrence_unlock_errorD1Ev
                0x00014bf4        0x0 /Users/Max/android-ndk-r8e/sources/cxx-stl/gnu-libstdc++/4.4.3/libs/armeabi/libgnustl_static.a(atomicity.o)
 .ARM.extab.text._ZN9__gnu_cxx18__exchange_and_addEPVii
                0x00014bf4       0x2c /Users/Max/android-ndk-r8e/sources/cxx-stl/gnu-libstdc++/4.4.3/libs/armeabi/libgnustl_static.a(atomicity.o)
 .ARM.extab.text._ZN9__gnu_cxx12__atomic_addEPVii
                0x00014c20        0x0 /Users/Max/android-ndk-r8e/sources/cxx-stl/gnu-libstdc++/4.4.3/libs/armeabi/libgnustl_static.a(atomicity.o)
 .ARM.extab.text._ZN9__gnu_cxx26__concurrence_unlock_errorD0Ev
                0x00014c20        0x0 /Users/Max/android-ndk-r8e/sources/cxx-stl/gnu-libstdc++/4.4.3/libs/armeabi/libgnustl_static.a(atomicity.o)
 .ARM.extab.text._ZN9__gnu_cxx24__concurrence_lock_errorD0Ev
                0x00014c20        0x0 /Users/Max/android-ndk-r8e/sources/cxx-stl/gnu-libstdc++/4.4.3/libs/armeabi/libgnustl_static.a(atomicity.o)
 .ARM.extab.text.__aeabi_atexit
                0x00014c20        0x0 /Users/Max/android-ndk-r8e/sources/cxx-stl/gnu-libstdc++/4.4.3/libs/armeabi/libgnustl_static.a(atexit_arm.o)
 .ARM.extab.text._ZdlPv
                0x00014c20        0x0 /Users/Max/android-ndk-r8e/sources/cxx-stl/gnu-libstdc++/4.4.3/libs/armeabi/libgnustl_static.a(del_op.o)
 .ARM.extab.text._GLOBAL__I_eh_alloc.cc
                0x00014c20        0x0 /Users/Max/android-ndk-r8e/sources/cxx-stl/gnu-libstdc++/4.4.3/libs/armeabi/libgnustl_static.a(eh_alloc.o)
 .ARM.extab.text._ZN9__gnu_cxx13__scoped_lockD1Ev
                0x00014c20       0x1c /Users/Max/android-ndk-r8e/sources/cxx-stl/gnu-libstdc++/4.4.3/libs/armeabi/libgnustl_static.a(eh_alloc.o)
 .ARM.extab.text.__cxa_free_dependent_exception
                0x00014c3c       0x38 /Users/Max/android-ndk-r8e/sources/cxx-stl/gnu-libstdc++/4.4.3/libs/armeabi/libgnustl_static.a(eh_alloc.o)
 .ARM.extab.text.__cxa_free_exception
                0x00014c74       0x38 /Users/Max/android-ndk-r8e/sources/cxx-stl/gnu-libstdc++/4.4.3/libs/armeabi/libgnustl_static.a(eh_alloc.o)
 .ARM.extab.text.__cxa_allocate_dependent_exception
                0x00014cac       0x34 /Users/Max/android-ndk-r8e/sources/cxx-stl/gnu-libstdc++/4.4.3/libs/armeabi/libgnustl_static.a(eh_alloc.o)
 .ARM.extab.text.__cxa_allocate_exception
                0x00014ce0       0x40 /Users/Max/android-ndk-r8e/sources/cxx-stl/gnu-libstdc++/4.4.3/libs/armeabi/libgnustl_static.a(eh_alloc.o)
 .ARM.extab.text.__cxa_type_match
                0x00014d20        0x0 /Users/Max/android-ndk-r8e/sources/cxx-stl/gnu-libstdc++/4.4.3/libs/armeabi/libgnustl_static.a(eh_arm.o)
 .ARM.extab.text.__cxa_begin_cleanup
                0x00014d20        0x0 /Users/Max/android-ndk-r8e/sources/cxx-stl/gnu-libstdc++/4.4.3/libs/armeabi/libgnustl_static.a(eh_arm.o)
 .ARM.extab.text.__gnu_end_cleanup
                0x00014d20        0x0 /Users/Max/android-ndk-r8e/sources/cxx-stl/gnu-libstdc++/4.4.3/libs/armeabi/libgnustl_static.a(eh_arm.o)
 .ARM.extab.text.__cxa_bad_typeid
                0x00014d20        0x0 /Users/Max/android-ndk-r8e/sources/cxx-stl/gnu-libstdc++/4.4.3/libs/armeabi/libgnustl_static.a(eh_aux_runtime.o)
 .ARM.extab.text.__cxa_bad_cast
                0x00014d20        0x0 /Users/Max/android-ndk-r8e/sources/cxx-stl/gnu-libstdc++/4.4.3/libs/armeabi/libgnustl_static.a(eh_aux_runtime.o)
 .ARM.extab.text.__cxa_call_terminate
                0x00014d20        0x0 /Users/Max/android-ndk-r8e/sources/cxx-stl/gnu-libstdc++/4.4.3/libs/armeabi/libgnustl_static.a(eh_call.o)
 .ARM.extab.text.__cxa_call_unexpected
                0x00014d20       0x2c /Users/Max/android-ndk-r8e/sources/cxx-stl/gnu-libstdc++/4.4.3/libs/armeabi/libgnustl_static.a(eh_call.o)
 .ARM.extab.text.__cxa_get_exception_ptr
                0x00014d4c        0x0 /Users/Max/android-ndk-r8e/sources/cxx-stl/gnu-libstdc++/4.4.3/libs/armeabi/libgnustl_static.a(eh_catch.o)
 .ARM.extab.text._ZSt18uncaught_exceptionv
                0x00014d4c        0x0 /Users/Max/android-ndk-r8e/sources/cxx-stl/gnu-libstdc++/4.4.3/libs/armeabi/libgnustl_static.a(eh_catch.o)
 .ARM.extab.text.__cxa_end_catch
                0x00014d4c        0x0 /Users/Max/android-ndk-r8e/sources/cxx-stl/gnu-libstdc++/4.4.3/libs/armeabi/libgnustl_static.a(eh_catch.o)
 .ARM.extab.text.__cxa_begin_catch
                0x00014d4c       0x20 /Users/Max/android-ndk-r8e/sources/cxx-stl/gnu-libstdc++/4.4.3/libs/armeabi/libgnustl_static.a(eh_catch.o)
 .ARM.extab.text._ZNSt9exceptionD2Ev
                0x00014d6c        0x0 /Users/Max/android-ndk-r8e/sources/cxx-stl/gnu-libstdc++/4.4.3/libs/armeabi/libgnustl_static.a(eh_exception.o)
 .ARM.extab.text._ZNSt9exceptionD1Ev
                0x00014d6c        0x0 /Users/Max/android-ndk-r8e/sources/cxx-stl/gnu-libstdc++/4.4.3/libs/armeabi/libgnustl_static.a(eh_exception.o)
 .ARM.extab.text._ZNSt13bad_exceptionD2Ev
                0x00014d6c        0x0 /Users/Max/android-ndk-r8e/sources/cxx-stl/gnu-libstdc++/4.4.3/libs/armeabi/libgnustl_static.a(eh_exception.o)
 .ARM.extab.text._ZNSt13bad_exceptionD1Ev
                0x00014d6c        0x0 /Users/Max/android-ndk-r8e/sources/cxx-stl/gnu-libstdc++/4.4.3/libs/armeabi/libgnustl_static.a(eh_exception.o)
 .ARM.extab.text._ZN10__cxxabiv115__forced_unwindD2Ev
                0x00014d6c        0x0 /Users/Max/android-ndk-r8e/sources/cxx-stl/gnu-libstdc++/4.4.3/libs/armeabi/libgnustl_static.a(eh_exception.o)
 .ARM.extab.text._ZN10__cxxabiv115__forced_unwindD1Ev
                0x00014d6c        0x0 /Users/Max/android-ndk-r8e/sources/cxx-stl/gnu-libstdc++/4.4.3/libs/armeabi/libgnustl_static.a(eh_exception.o)
 .ARM.extab.text._ZN10__cxxabiv119__foreign_exceptionD2Ev
                0x00014d6c        0x0 /Users/Max/android-ndk-r8e/sources/cxx-stl/gnu-libstdc++/4.4.3/libs/armeabi/libgnustl_static.a(eh_exception.o)
 .ARM.extab.text._ZN10__cxxabiv119__foreign_exceptionD1Ev
                0x00014d6c        0x0 /Users/Max/android-ndk-r8e/sources/cxx-stl/gnu-libstdc++/4.4.3/libs/armeabi/libgnustl_static.a(eh_exception.o)
 .ARM.extab.text._ZNKSt9exception4whatEv
                0x00014d6c        0x0 /Users/Max/android-ndk-r8e/sources/cxx-stl/gnu-libstdc++/4.4.3/libs/armeabi/libgnustl_static.a(eh_exception.o)
 .ARM.extab.text._ZNKSt13bad_exception4whatEv
                0x00014d6c        0x0 /Users/Max/android-ndk-r8e/sources/cxx-stl/gnu-libstdc++/4.4.3/libs/armeabi/libgnustl_static.a(eh_exception.o)
 .ARM.extab.text._ZN10__cxxabiv119__foreign_exceptionD0Ev
                0x00014d6c        0x0 /Users/Max/android-ndk-r8e/sources/cxx-stl/gnu-libstdc++/4.4.3/libs/armeabi/libgnustl_static.a(eh_exception.o)
 .ARM.extab.text._ZN10__cxxabiv115__forced_unwindD0Ev
                0x00014d6c        0x0 /Users/Max/android-ndk-r8e/sources/cxx-stl/gnu-libstdc++/4.4.3/libs/armeabi/libgnustl_static.a(eh_exception.o)
 .ARM.extab.text._ZNSt9exceptionD0Ev
                0x00014d6c        0x0 /Users/Max/android-ndk-r8e/sources/cxx-stl/gnu-libstdc++/4.4.3/libs/armeabi/libgnustl_static.a(eh_exception.o)
 .ARM.extab.text._ZNSt13bad_exceptionD0Ev
                0x00014d6c        0x0 /Users/Max/android-ndk-r8e/sources/cxx-stl/gnu-libstdc++/4.4.3/libs/armeabi/libgnustl_static.a(eh_exception.o)
 .ARM.extab.text._GLOBAL__I_eh_globals.cc
                0x00014d6c        0x0 /Users/Max/android-ndk-r8e/sources/cxx-stl/gnu-libstdc++/4.4.3/libs/armeabi/libgnustl_static.a(eh_globals.o)
 .ARM.extab.text._ZL15eh_globals_dtorPv
                0x00014d6c        0x0 /Users/Max/android-ndk-r8e/sources/cxx-stl/gnu-libstdc++/4.4.3/libs/armeabi/libgnustl_static.a(eh_globals.o)
 .ARM.extab.text._ZN17__eh_globals_initD1Ev
                0x00014d6c        0x0 /Users/Max/android-ndk-r8e/sources/cxx-stl/gnu-libstdc++/4.4.3/libs/armeabi/libgnustl_static.a(eh_globals.o)
 .ARM.extab.text.__cxa_get_globals_fast
                0x00014d6c       0x1c /Users/Max/android-ndk-r8e/sources/cxx-stl/gnu-libstdc++/4.4.3/libs/armeabi/libgnustl_static.a(eh_globals.o)
 .ARM.extab.text.__cxa_get_globals
                0x00014d88       0x1c /Users/Max/android-ndk-r8e/sources/cxx-stl/gnu-libstdc++/4.4.3/libs/armeabi/libgnustl_static.a(eh_globals.o)
 .ARM.extab.text._ZL12read_sleb128PKhPl
                0x00014da4        0x0 /Users/Max/android-ndk-r8e/sources/cxx-stl/gnu-libstdc++/4.4.3/libs/armeabi/libgnustl_static.a(eh_personality.o)
 .ARM.extab.text._ZL21base_of_encoded_valuehP15_Unwind_Context
                0x00014da4        0x0 /Users/Max/android-ndk-r8e/sources/cxx-stl/gnu-libstdc++/4.4.3/libs/armeabi/libgnustl_static.a(eh_personality.o)
 .ARM.extab.text._ZL17parse_lsda_headerP15_Unwind_ContextPKhP16lsda_header_info
                0x00014da4        0x0 /Users/Max/android-ndk-r8e/sources/cxx-stl/gnu-libstdc++/4.4.3/libs/armeabi/libgnustl_static.a(eh_personality.o)
 .ARM.extab.text.__gxx_personality_v0
                0x00014da4       0x30 /Users/Max/android-ndk-r8e/sources/cxx-stl/gnu-libstdc++/4.4.3/libs/armeabi/libgnustl_static.a(eh_personality.o)
 .ARM.extab.text._ZSt13set_terminatePFvvE
                0x00014dd4        0x0 /Users/Max/android-ndk-r8e/sources/cxx-stl/gnu-libstdc++/4.4.3/libs/armeabi/libgnustl_static.a(eh_terminate.o)
 .ARM.extab.text._ZSt14set_unexpectedPFvvE
                0x00014dd4        0x0 /Users/Max/android-ndk-r8e/sources/cxx-stl/gnu-libstdc++/4.4.3/libs/armeabi/libgnustl_static.a(eh_terminate.o)
 .ARM.extab.text._ZN10__cxxabiv111__terminateEPFvvE
                0x00014dd4       0x24 /Users/Max/android-ndk-r8e/sources/cxx-stl/gnu-libstdc++/4.4.3/libs/armeabi/libgnustl_static.a(eh_terminate.o)
 .ARM.extab.text._ZSt9terminatev
                0x00014df8        0xc /Users/Max/android-ndk-r8e/sources/cxx-stl/gnu-libstdc++/4.4.3/libs/armeabi/libgnustl_static.a(eh_terminate.o)
 .ARM.extab.text._ZN10__cxxabiv112__unexpectedEPFvvE
                0x00014e04        0xc /Users/Max/android-ndk-r8e/sources/cxx-stl/gnu-libstdc++/4.4.3/libs/armeabi/libgnustl_static.a(eh_terminate.o)
 .ARM.extab.text._ZSt10unexpectedv
                0x00014e10        0xc /Users/Max/android-ndk-r8e/sources/cxx-stl/gnu-libstdc++/4.4.3/libs/armeabi/libgnustl_static.a(eh_terminate.o)
 .ARM.extab.text.__cxa_rethrow
                0x00014e1c        0xc /Users/Max/android-ndk-r8e/sources/cxx-stl/gnu-libstdc++/4.4.3/libs/armeabi/libgnustl_static.a(eh_throw.o)
 .ARM.extab.text.__cxa_throw
                0x00014e28        0xc /Users/Max/android-ndk-r8e/sources/cxx-stl/gnu-libstdc++/4.4.3/libs/armeabi/libgnustl_static.a(eh_throw.o)
 .ARM.extab.text._ZL23__gxx_exception_cleanup19_Unwind_Reason_CodeP21_Unwind_Control_Block
                0x00014e34        0xc /Users/Max/android-ndk-r8e/sources/cxx-stl/gnu-libstdc++/4.4.3/libs/armeabi/libgnustl_static.a(eh_throw.o)
 .ARM.extab.text._ZN10__cxxabiv123__fundamental_type_infoD1Ev
                0x00014e40        0x0 /Users/Max/android-ndk-r8e/sources/cxx-stl/gnu-libstdc++/4.4.3/libs/armeabi/libgnustl_static.a(fundamental_type_info.o)
 .ARM.extab.text._ZN10__cxxabiv123__fundamental_type_infoD0Ev
                0x00014e40        0x0 /Users/Max/android-ndk-r8e/sources/cxx-stl/gnu-libstdc++/4.4.3/libs/armeabi/libgnustl_static.a(fundamental_type_info.o)
 .ARM.extab.text._ZN10__cxxabiv123__fundamental_type_infoD2Ev
                0x00014e40        0x0 /Users/Max/android-ndk-r8e/sources/cxx-stl/gnu-libstdc++/4.4.3/libs/armeabi/libgnustl_static.a(fundamental_type_info.o)
 .ARM.extab.text._ZNK9__gnu_cxx29__concurrence_broadcast_error4whatEv
                0x00014e40        0x0 /Users/Max/android-ndk-r8e/sources/cxx-stl/gnu-libstdc++/4.4.3/libs/armeabi/libgnustl_static.a(guard.o)
 .ARM.extab.text._ZNK9__gnu_cxx24__concurrence_wait_error4whatEv
                0x00014e40        0x0 /Users/Max/android-ndk-r8e/sources/cxx-stl/gnu-libstdc++/4.4.3/libs/armeabi/libgnustl_static.a(guard.o)
 .ARM.extab.text._ZN12_GLOBAL__N_1L4initEv
                0x00014e40        0x0 /Users/Max/android-ndk-r8e/sources/cxx-stl/gnu-libstdc++/4.4.3/libs/armeabi/libgnustl_static.a(guard.o)
 .ARM.extab.text._ZN12_GLOBAL__N_1L16init_static_condEv
                0x00014e40        0x0 /Users/Max/android-ndk-r8e/sources/cxx-stl/gnu-libstdc++/4.4.3/libs/armeabi/libgnustl_static.a(guard.o)
 .ARM.extab.text._ZN9__gnu_cxx29__concurrence_broadcast_errorD1Ev
                0x00014e40        0x0 /Users/Max/android-ndk-r8e/sources/cxx-stl/gnu-libstdc++/4.4.3/libs/armeabi/libgnustl_static.a(guard.o)
 .ARM.extab.text._ZN9__gnu_cxx24__concurrence_wait_errorD1Ev
                0x00014e40        0x0 /Users/Max/android-ndk-r8e/sources/cxx-stl/gnu-libstdc++/4.4.3/libs/armeabi/libgnustl_static.a(guard.o)
 .ARM.extab.text._ZN9__gnu_cxx20recursive_init_errorD1Ev
                0x00014e40        0x0 /Users/Max/android-ndk-r8e/sources/cxx-stl/gnu-libstdc++/4.4.3/libs/armeabi/libgnustl_static.a(guard.o)
 .ARM.extab.text._ZN9__gnu_cxx20recursive_init_errorD0Ev
                0x00014e40        0x0 /Users/Max/android-ndk-r8e/sources/cxx-stl/gnu-libstdc++/4.4.3/libs/armeabi/libgnustl_static.a(guard.o)
 .ARM.extab.text._ZN9__gnu_cxx20recursive_init_errorD2Ev
                0x00014e40        0x0 /Users/Max/android-ndk-r8e/sources/cxx-stl/gnu-libstdc++/4.4.3/libs/armeabi/libgnustl_static.a(guard.o)
 .ARM.extab.text._ZN12_GLOBAL__N_113mutex_wrapperD1Ev
                0x00014e40        0x0 /Users/Max/android-ndk-r8e/sources/cxx-stl/gnu-libstdc++/4.4.3/libs/armeabi/libgnustl_static.a(guard.o)
 .ARM.extab.text._ZN9__gnu_cxx29__concurrence_broadcast_errorD0Ev
                0x00014e40        0x0 /Users/Max/android-ndk-r8e/sources/cxx-stl/gnu-libstdc++/4.4.3/libs/armeabi/libgnustl_static.a(guard.o)
 .ARM.extab.text._ZN9__gnu_cxx24__concurrence_wait_errorD0Ev
                0x00014e40        0x0 /Users/Max/android-ndk-r8e/sources/cxx-stl/gnu-libstdc++/4.4.3/libs/armeabi/libgnustl_static.a(guard.o)
 .ARM.extab.text.__cxa_guard_abort
                0x00014e40       0x2c /Users/Max/android-ndk-r8e/sources/cxx-stl/gnu-libstdc++/4.4.3/libs/armeabi/libgnustl_static.a(guard.o)
 .ARM.extab.text.__cxa_guard_release
                0x00014e6c       0x2c /Users/Max/android-ndk-r8e/sources/cxx-stl/gnu-libstdc++/4.4.3/libs/armeabi/libgnustl_static.a(guard.o)
 .ARM.extab.text.__cxa_guard_acquire
                0x00014e98       0x2c /Users/Max/android-ndk-r8e/sources/cxx-stl/gnu-libstdc++/4.4.3/libs/armeabi/libgnustl_static.a(guard.o)
 .ARM.extab.text._Znwj
                0x00014ec4       0x24 /Users/Max/android-ndk-r8e/sources/cxx-stl/gnu-libstdc++/4.4.3/libs/armeabi/libgnustl_static.a(new_op.o)
 .ARM.extab.text._ZNK10__cxxabiv119__pointer_type_info14__is_pointer_pEv
                0x00014ee8        0x0 /Users/Max/android-ndk-r8e/sources/cxx-stl/gnu-libstdc++/4.4.3/libs/armeabi/libgnustl_static.a(pointer_type_info.o)
 .ARM.extab.text._ZNK10__cxxabiv119__pointer_type_info15__pointer_catchEPKNS_17__pbase_type_infoEPPvj
                0x00014ee8        0x0 /Users/Max/android-ndk-r8e/sources/cxx-stl/gnu-libstdc++/4.4.3/libs/armeabi/libgnustl_static.a(pointer_type_info.o)
 .ARM.extab.text._ZN10__cxxabiv119__pointer_type_infoD1Ev
                0x00014ee8        0x0 /Users/Max/android-ndk-r8e/sources/cxx-stl/gnu-libstdc++/4.4.3/libs/armeabi/libgnustl_static.a(pointer_type_info.o)
 .ARM.extab.text._ZN10__cxxabiv119__pointer_type_infoD0Ev
                0x00014ee8        0x0 /Users/Max/android-ndk-r8e/sources/cxx-stl/gnu-libstdc++/4.4.3/libs/armeabi/libgnustl_static.a(pointer_type_info.o)
 .ARM.extab.text._ZN10__cxxabiv119__pointer_type_infoD2Ev
                0x00014ee8        0x0 /Users/Max/android-ndk-r8e/sources/cxx-stl/gnu-libstdc++/4.4.3/libs/armeabi/libgnustl_static.a(pointer_type_info.o)
 .ARM.extab.text.__cxa_pure_virtual
                0x00014ee8        0x0 /Users/Max/android-ndk-r8e/sources/cxx-stl/gnu-libstdc++/4.4.3/libs/armeabi/libgnustl_static.a(pure.o)
 .ARM.extab.text._ZNK10__cxxabiv120__si_class_type_info11__do_upcastEPKNS_17__class_type_infoEPKvRNS1_15__upcast_resultE
                0x00014ee8        0x0 /Users/Max/android-ndk-r8e/sources/cxx-stl/gnu-libstdc++/4.4.3/libs/armeabi/libgnustl_static.a(si_class_type_info.o)
 .ARM.extab.text._ZNK10__cxxabiv120__si_class_type_info12__do_dyncastEiNS_17__class_type_info10__sub_kindEPKS1_PKvS4_S6_RNS1_16__dyncast_resultE
                0x00014ee8        0x0 /Users/Max/android-ndk-r8e/sources/cxx-stl/gnu-libstdc++/4.4.3/libs/armeabi/libgnustl_static.a(si_class_type_info.o)
 .ARM.extab.text._ZNK10__cxxabiv120__si_class_type_info20__do_find_public_srcEiPKvPKNS_17__class_type_infoES2_
                0x00014ee8        0x0 /Users/Max/android-ndk-r8e/sources/cxx-stl/gnu-libstdc++/4.4.3/libs/armeabi/libgnustl_static.a(si_class_type_info.o)
 .ARM.extab.text._ZN10__cxxabiv120__si_class_type_infoD1Ev
                0x00014ee8        0x0 /Users/Max/android-ndk-r8e/sources/cxx-stl/gnu-libstdc++/4.4.3/libs/armeabi/libgnustl_static.a(si_class_type_info.o)
 .ARM.extab.text._ZN10__cxxabiv120__si_class_type_infoD0Ev
                0x00014ee8        0x0 /Users/Max/android-ndk-r8e/sources/cxx-stl/gnu-libstdc++/4.4.3/libs/armeabi/libgnustl_static.a(si_class_type_info.o)
 .ARM.extab.text._ZN10__cxxabiv120__si_class_type_infoD2Ev
                0x00014ee8        0x0 /Users/Max/android-ndk-r8e/sources/cxx-stl/gnu-libstdc++/4.4.3/libs/armeabi/libgnustl_static.a(si_class_type_info.o)
 .ARM.extab.text._ZNSt9type_infoD2Ev
                0x00014ee8        0x0 /Users/Max/android-ndk-r8e/sources/cxx-stl/gnu-libstdc++/4.4.3/libs/armeabi/libgnustl_static.a(tinfo.o)
 .ARM.extab.text._ZNSt9type_infoD1Ev
                0x00014ee8        0x0 /Users/Max/android-ndk-r8e/sources/cxx-stl/gnu-libstdc++/4.4.3/libs/armeabi/libgnustl_static.a(tinfo.o)
 .ARM.extab.text._ZNKSt9type_info14__is_pointer_pEv
                0x00014ee8        0x0 /Users/Max/android-ndk-r8e/sources/cxx-stl/gnu-libstdc++/4.4.3/libs/armeabi/libgnustl_static.a(tinfo.o)
 .ARM.extab.text._ZNKSt9type_info15__is_function_pEv
                0x00014ee8        0x0 /Users/Max/android-ndk-r8e/sources/cxx-stl/gnu-libstdc++/4.4.3/libs/armeabi/libgnustl_static.a(tinfo.o)
 .ARM.extab.text._ZNKSt9type_info11__do_upcastEPKN10__cxxabiv117__class_type_infoEPPv
                0x00014ee8        0x0 /Users/Max/android-ndk-r8e/sources/cxx-stl/gnu-libstdc++/4.4.3/libs/armeabi/libgnustl_static.a(tinfo.o)
 .ARM.extab.text._ZNKSt9type_infoeqERKS_
                0x00014ee8        0x0 /Users/Max/android-ndk-r8e/sources/cxx-stl/gnu-libstdc++/4.4.3/libs/armeabi/libgnustl_static.a(tinfo.o)
 .ARM.extab.text._ZNKSt9type_info10__do_catchEPKS_PPvj
                0x00014ee8        0x0 /Users/Max/android-ndk-r8e/sources/cxx-stl/gnu-libstdc++/4.4.3/libs/armeabi/libgnustl_static.a(tinfo.o)
 .ARM.extab.text._ZNSt9type_infoD0Ev
                0x00014ee8        0x0 /Users/Max/android-ndk-r8e/sources/cxx-stl/gnu-libstdc++/4.4.3/libs/armeabi/libgnustl_static.a(tinfo.o)
 .ARM.extab.text._ZSt18__throw_bad_typeidv
                0x00014ee8        0xc /Users/Max/android-ndk-r8e/sources/cxx-stl/gnu-libstdc++/4.4.3/libs/armeabi/libgnustl_static.a(functexcept.o)
 .ARM.extab.text._ZSt16__throw_bad_castv
                0x00014ef4        0xc /Users/Max/android-ndk-r8e/sources/cxx-stl/gnu-libstdc++/4.4.3/libs/armeabi/libgnustl_static.a(functexcept.o)
 .ARM.extab.text._ZSt17__throw_bad_allocv
                0x00014f00        0xc /Users/Max/android-ndk-r8e/sources/cxx-stl/gnu-libstdc++/4.4.3/libs/armeabi/libgnustl_static.a(functexcept.o)
 .ARM.extab.text._ZSt21__throw_bad_exceptionv
                0x00014f0c        0xc /Users/Max/android-ndk-r8e/sources/cxx-stl/gnu-libstdc++/4.4.3/libs/armeabi/libgnustl_static.a(functexcept.o)
 .ARM.extab.text._ZNSt15underflow_errorD1Ev
                0x00014f18        0xc /Users/Max/android-ndk-r8e/sources/cxx-stl/gnu-libstdc++/4.4.3/libs/armeabi/libgnustl_static.a(functexcept.o)
 .ARM.extab.text._ZNSt14overflow_errorD1Ev
                0x00014f24        0xc /Users/Max/android-ndk-r8e/sources/cxx-stl/gnu-libstdc++/4.4.3/libs/armeabi/libgnustl_static.a(functexcept.o)
 .ARM.extab.text._ZNSt11range_errorD1Ev
                0x00014f30        0xc /Users/Max/android-ndk-r8e/sources/cxx-stl/gnu-libstdc++/4.4.3/libs/armeabi/libgnustl_static.a(functexcept.o)
 .ARM.extab.text._ZNSt12out_of_rangeD1Ev
                0x00014f3c        0xc /Users/Max/android-ndk-r8e/sources/cxx-stl/gnu-libstdc++/4.4.3/libs/armeabi/libgnustl_static.a(functexcept.o)
 .ARM.extab.text._ZNSt12length_errorD1Ev
                0x00014f48        0xc /Users/Max/android-ndk-r8e/sources/cxx-stl/gnu-libstdc++/4.4.3/libs/armeabi/libgnustl_static.a(functexcept.o)
 .ARM.extab.text._ZNSt16invalid_argumentD1Ev
                0x00014f54        0xc /Users/Max/android-ndk-r8e/sources/cxx-stl/gnu-libstdc++/4.4.3/libs/armeabi/libgnustl_static.a(functexcept.o)
 .ARM.extab.text._ZNSt12domain_errorD1Ev
                0x00014f60        0xc /Users/Max/android-ndk-r8e/sources/cxx-stl/gnu-libstdc++/4.4.3/libs/armeabi/libgnustl_static.a(functexcept.o)
 .ARM.extab.text._ZNSt15underflow_errorD0Ev
                0x00014f6c        0xc /Users/Max/android-ndk-r8e/sources/cxx-stl/gnu-libstdc++/4.4.3/libs/armeabi/libgnustl_static.a(functexcept.o)
 .ARM.extab.text._ZNSt12domain_errorD0Ev
                0x00014f78        0xc /Users/Max/android-ndk-r8e/sources/cxx-stl/gnu-libstdc++/4.4.3/libs/armeabi/libgnustl_static.a(functexcept.o)
 .ARM.extab.text._ZNSt16invalid_argumentD0Ev
                0x00014f84        0xc /Users/Max/android-ndk-r8e/sources/cxx-stl/gnu-libstdc++/4.4.3/libs/armeabi/libgnustl_static.a(functexcept.o)
 .ARM.extab.text._ZNSt12length_errorD0Ev
                0x00014f90        0xc /Users/Max/android-ndk-r8e/sources/cxx-stl/gnu-libstdc++/4.4.3/libs/armeabi/libgnustl_static.a(functexcept.o)
 .ARM.extab.text._ZNSt12out_of_rangeD0Ev
                0x00014f9c        0xc /Users/Max/android-ndk-r8e/sources/cxx-stl/gnu-libstdc++/4.4.3/libs/armeabi/libgnustl_static.a(functexcept.o)
 .ARM.extab.text._ZNSt11range_errorD0Ev
                0x00014fa8        0xc /Users/Max/android-ndk-r8e/sources/cxx-stl/gnu-libstdc++/4.4.3/libs/armeabi/libgnustl_static.a(functexcept.o)
 .ARM.extab.text._ZNSt14overflow_errorD0Ev
                0x00014fb4        0xc /Users/Max/android-ndk-r8e/sources/cxx-stl/gnu-libstdc++/4.4.3/libs/armeabi/libgnustl_static.a(functexcept.o)
 .ARM.extab.text._ZSt19__throw_ios_failurePKc
                0x00014fc0       0x2c /Users/Max/android-ndk-r8e/sources/cxx-stl/gnu-libstdc++/4.4.3/libs/armeabi/libgnustl_static.a(functexcept.o)
 .ARM.extab.text._ZSt20__throw_system_errori
                0x00014fec       0x30 /Users/Max/android-ndk-r8e/sources/cxx-stl/gnu-libstdc++/4.4.3/libs/armeabi/libgnustl_static.a(functexcept.o)
 .ARM.extab.text._ZSt20__throw_domain_errorPKc
                0x0001501c       0x38 /Users/Max/android-ndk-r8e/sources/cxx-stl/gnu-libstdc++/4.4.3/libs/armeabi/libgnustl_static.a(functexcept.o)
 .ARM.extab.text._ZSt24__throw_invalid_argumentPKc
                0x00015054       0x38 /Users/Max/android-ndk-r8e/sources/cxx-stl/gnu-libstdc++/4.4.3/libs/armeabi/libgnustl_static.a(functexcept.o)
 .ARM.extab.text._ZSt20__throw_length_errorPKc
                0x0001508c       0x38 /Users/Max/android-ndk-r8e/sources/cxx-stl/gnu-libstdc++/4.4.3/libs/armeabi/libgnustl_static.a(functexcept.o)
 .ARM.extab.text._ZSt21__throw_runtime_errorPKc
                0x000150c4       0x38 /Users/Max/android-ndk-r8e/sources/cxx-stl/gnu-libstdc++/4.4.3/libs/armeabi/libgnustl_static.a(functexcept.o)
 .ARM.extab.text._ZSt23__throw_underflow_errorPKc
                0x000150fc       0x38 /Users/Max/android-ndk-r8e/sources/cxx-stl/gnu-libstdc++/4.4.3/libs/armeabi/libgnustl_static.a(functexcept.o)
 .ARM.extab.text._ZSt19__throw_logic_errorPKc
                0x00015134       0x38 /Users/Max/android-ndk-r8e/sources/cxx-stl/gnu-libstdc++/4.4.3/libs/armeabi/libgnustl_static.a(functexcept.o)
 .ARM.extab.text._ZSt20__throw_out_of_rangePKc
                0x0001516c       0x38 /Users/Max/android-ndk-r8e/sources/cxx-stl/gnu-libstdc++/4.4.3/libs/armeabi/libgnustl_static.a(functexcept.o)
 .ARM.extab.text._ZSt22__throw_overflow_errorPKc
                0x000151a4       0x38 /Users/Max/android-ndk-r8e/sources/cxx-stl/gnu-libstdc++/4.4.3/libs/armeabi/libgnustl_static.a(functexcept.o)
 .ARM.extab.text._ZSt19__throw_range_errorPKc
                0x000151dc       0x38 /Users/Max/android-ndk-r8e/sources/cxx-stl/gnu-libstdc++/4.4.3/libs/armeabi/libgnustl_static.a(functexcept.o)
 .ARM.extab.text._ZNKSt8ios_base7failure4whatEv
                0x00015214        0x0 /Users/Max/android-ndk-r8e/sources/cxx-stl/gnu-libstdc++/4.4.3/libs/armeabi/libgnustl_static.a(ios_failure.o)
 .ARM.extab.text._ZNSt8ios_base7failureD1Ev
                0x00015214       0x20 /Users/Max/android-ndk-r8e/sources/cxx-stl/gnu-libstdc++/4.4.3/libs/armeabi/libgnustl_static.a(ios_failure.o)
 .ARM.extab.text._ZNSt8ios_base7failureD0Ev
                0x00015234        0x0 /Users/Max/android-ndk-r8e/sources/cxx-stl/gnu-libstdc++/4.4.3/libs/armeabi/libgnustl_static.a(ios_failure.o)
 .ARM.extab.text._ZNSt8ios_base7failureC1ERKSs
                0x00015234       0x20 /Users/Max/android-ndk-r8e/sources/cxx-stl/gnu-libstdc++/4.4.3/libs/armeabi/libgnustl_static.a(ios_failure.o)
 .ARM.extab.text._ZNSt8ios_base7failureC2ERKSs
                0x00015254       0x20 /Users/Max/android-ndk-r8e/sources/cxx-stl/gnu-libstdc++/4.4.3/libs/armeabi/libgnustl_static.a(ios_failure.o)
 .ARM.extab.text._ZNSt8ios_base7failureD2Ev
                0x00015274       0x20 /Users/Max/android-ndk-r8e/sources/cxx-stl/gnu-libstdc++/4.4.3/libs/armeabi/libgnustl_static.a(ios_failure.o)
 .ARM.extab.text._ZNKSt11logic_error4whatEv
                0x00015294        0x0 /Users/Max/android-ndk-r8e/sources/cxx-stl/gnu-libstdc++/4.4.3/libs/armeabi/libgnustl_static.a(stdexcept.o)
 .ARM.extab.text._ZNKSt13runtime_error4whatEv
                0x00015294        0x0 /Users/Max/android-ndk-r8e/sources/cxx-stl/gnu-libstdc++/4.4.3/libs/armeabi/libgnustl_static.a(stdexcept.o)
 .ARM.extab.text._ZNSt13runtime_errorC1ERKSs
                0x00015294       0x14 /Users/Max/android-ndk-r8e/sources/cxx-stl/gnu-libstdc++/4.4.3/libs/armeabi/libgnustl_static.a(stdexcept.o)
 .ARM.extab.text._ZNSt13runtime_errorC2ERKSs
                0x000152a8       0x14 /Users/Max/android-ndk-r8e/sources/cxx-stl/gnu-libstdc++/4.4.3/libs/armeabi/libgnustl_static.a(stdexcept.o)
 .ARM.extab.text._ZNSt15underflow_errorC1ERKSs
                0x000152bc        0x0 /Users/Max/android-ndk-r8e/sources/cxx-stl/gnu-libstdc++/4.4.3/libs/armeabi/libgnustl_static.a(stdexcept.o)
 .ARM.extab.text._ZNSt15underflow_errorC2ERKSs
                0x000152bc        0x0 /Users/Max/android-ndk-r8e/sources/cxx-stl/gnu-libstdc++/4.4.3/libs/armeabi/libgnustl_static.a(stdexcept.o)
 .ARM.extab.text._ZNSt14overflow_errorC1ERKSs
                0x000152bc        0x0 /Users/Max/android-ndk-r8e/sources/cxx-stl/gnu-libstdc++/4.4.3/libs/armeabi/libgnustl_static.a(stdexcept.o)
 .ARM.extab.text._ZNSt14overflow_errorC2ERKSs
                0x000152bc        0x0 /Users/Max/android-ndk-r8e/sources/cxx-stl/gnu-libstdc++/4.4.3/libs/armeabi/libgnustl_static.a(stdexcept.o)
 .ARM.extab.text._ZNSt11range_errorC1ERKSs
                0x000152bc        0x0 /Users/Max/android-ndk-r8e/sources/cxx-stl/gnu-libstdc++/4.4.3/libs/armeabi/libgnustl_static.a(stdexcept.o)
 .ARM.extab.text._ZNSt11range_errorC2ERKSs
                0x000152bc        0x0 /Users/Max/android-ndk-r8e/sources/cxx-stl/gnu-libstdc++/4.4.3/libs/armeabi/libgnustl_static.a(stdexcept.o)
 .ARM.extab.text._ZNSt11logic_errorC1ERKSs
                0x000152bc       0x14 /Users/Max/android-ndk-r8e/sources/cxx-stl/gnu-libstdc++/4.4.3/libs/armeabi/libgnustl_static.a(stdexcept.o)
 .ARM.extab.text._ZNSt11logic_errorC2ERKSs
                0x000152d0       0x14 /Users/Max/android-ndk-r8e/sources/cxx-stl/gnu-libstdc++/4.4.3/libs/armeabi/libgnustl_static.a(stdexcept.o)
 .ARM.extab.text._ZNSt12out_of_rangeC1ERKSs
                0x000152e4        0x0 /Users/Max/android-ndk-r8e/sources/cxx-stl/gnu-libstdc++/4.4.3/libs/armeabi/libgnustl_static.a(stdexcept.o)
 .ARM.extab.text._ZNSt12out_of_rangeC2ERKSs
                0x000152e4        0x0 /Users/Max/android-ndk-r8e/sources/cxx-stl/gnu-libstdc++/4.4.3/libs/armeabi/libgnustl_static.a(stdexcept.o)
 .ARM.extab.text._ZNSt12length_errorC1ERKSs
                0x000152e4        0x0 /Users/Max/android-ndk-r8e/sources/cxx-stl/gnu-libstdc++/4.4.3/libs/armeabi/libgnustl_static.a(stdexcept.o)
 .ARM.extab.text._ZNSt12length_errorC2ERKSs
                0x000152e4        0x0 /Users/Max/android-ndk-r8e/sources/cxx-stl/gnu-libstdc++/4.4.3/libs/armeabi/libgnustl_static.a(stdexcept.o)
 .ARM.extab.text._ZNSt16invalid_argumentC1ERKSs
                0x000152e4        0x0 /Users/Max/android-ndk-r8e/sources/cxx-stl/gnu-libstdc++/4.4.3/libs/armeabi/libgnustl_static.a(stdexcept.o)
 .ARM.extab.text._ZNSt16invalid_argumentC2ERKSs
                0x000152e4        0x0 /Users/Max/android-ndk-r8e/sources/cxx-stl/gnu-libstdc++/4.4.3/libs/armeabi/libgnustl_static.a(stdexcept.o)
 .ARM.extab.text._ZNSt12domain_errorC1ERKSs
                0x000152e4        0x0 /Users/Max/android-ndk-r8e/sources/cxx-stl/gnu-libstdc++/4.4.3/libs/armeabi/libgnustl_static.a(stdexcept.o)
 .ARM.extab.text._ZNSt12domain_errorC2ERKSs
                0x000152e4        0x0 /Users/Max/android-ndk-r8e/sources/cxx-stl/gnu-libstdc++/4.4.3/libs/armeabi/libgnustl_static.a(stdexcept.o)
 .ARM.extab.text._ZNSt13runtime_errorD2Ev
                0x000152e4       0x20 /Users/Max/android-ndk-r8e/sources/cxx-stl/gnu-libstdc++/4.4.3/libs/armeabi/libgnustl_static.a(stdexcept.o)
 .ARM.extab.text._ZNSt11logic_errorD1Ev
                0x00015304       0x20 /Users/Max/android-ndk-r8e/sources/cxx-stl/gnu-libstdc++/4.4.3/libs/armeabi/libgnustl_static.a(stdexcept.o)
 .ARM.extab.text._ZNSt11logic_errorD0Ev
                0x00015324        0x0 /Users/Max/android-ndk-r8e/sources/cxx-stl/gnu-libstdc++/4.4.3/libs/armeabi/libgnustl_static.a(stdexcept.o)
 .ARM.extab.text._ZNSt13runtime_errorD1Ev
                0x00015324       0x20 /Users/Max/android-ndk-r8e/sources/cxx-stl/gnu-libstdc++/4.4.3/libs/armeabi/libgnustl_static.a(stdexcept.o)
 .ARM.extab.text._ZNSt13runtime_errorD0Ev
                0x00015344        0x0 /Users/Max/android-ndk-r8e/sources/cxx-stl/gnu-libstdc++/4.4.3/libs/armeabi/libgnustl_static.a(stdexcept.o)
 .ARM.extab.text._ZNSt11logic_errorD2Ev
                0x00015344       0x20 /Users/Max/android-ndk-r8e/sources/cxx-stl/gnu-libstdc++/4.4.3/libs/armeabi/libgnustl_static.a(stdexcept.o)
 .ARM.extab.text._ZNSt14error_categoryD1Ev
                0x00015364        0x0 /Users/Max/android-ndk-r8e/sources/cxx-stl/gnu-libstdc++/4.4.3/libs/armeabi/libgnustl_static.a(system_error.o)
 .ARM.extab.text._ZNK12_GLOBAL__N_122generic_error_category4nameEv
                0x00015364        0x0 /Users/Max/android-ndk-r8e/sources/cxx-stl/gnu-libstdc++/4.4.3/libs/armeabi/libgnustl_static.a(system_error.o)
 .ARM.extab.text._ZNK12_GLOBAL__N_121system_error_category4nameEv
                0x00015364        0x0 /Users/Max/android-ndk-r8e/sources/cxx-stl/gnu-libstdc++/4.4.3/libs/armeabi/libgnustl_static.a(system_error.o)
 .ARM.extab.text._ZSt15system_categoryv
                0x00015364        0x0 /Users/Max/android-ndk-r8e/sources/cxx-stl/gnu-libstdc++/4.4.3/libs/armeabi/libgnustl_static.a(system_error.o)
 .ARM.extab.text._ZSt16generic_categoryv
                0x00015364        0x0 /Users/Max/android-ndk-r8e/sources/cxx-stl/gnu-libstdc++/4.4.3/libs/armeabi/libgnustl_static.a(system_error.o)
 .ARM.extab.text._ZNKSt14error_category23default_error_conditionEi
                0x00015364        0x0 /Users/Max/android-ndk-r8e/sources/cxx-stl/gnu-libstdc++/4.4.3/libs/armeabi/libgnustl_static.a(system_error.o)
 .ARM.extab.text._ZNKSt14error_category10equivalentEiRKSt15error_condition
                0x00015364        0x0 /Users/Max/android-ndk-r8e/sources/cxx-stl/gnu-libstdc++/4.4.3/libs/armeabi/libgnustl_static.a(system_error.o)
 .ARM.extab.text._ZNKSt14error_category10equivalentERKSt10error_codei
                0x00015364        0x0 /Users/Max/android-ndk-r8e/sources/cxx-stl/gnu-libstdc++/4.4.3/libs/armeabi/libgnustl_static.a(system_error.o)
 .ARM.extab.text._ZNKSt10error_code23default_error_conditionEv
                0x00015364        0x0 /Users/Max/android-ndk-r8e/sources/cxx-stl/gnu-libstdc++/4.4.3/libs/armeabi/libgnustl_static.a(system_error.o)
 .ARM.extab.text._ZN12_GLOBAL__N_122generic_error_categoryD1Ev
                0x00015364        0x0 /Users/Max/android-ndk-r8e/sources/cxx-stl/gnu-libstdc++/4.4.3/libs/armeabi/libgnustl_static.a(system_error.o)
 .ARM.extab.text._ZN12_GLOBAL__N_121system_error_categoryD1Ev
                0x00015364        0x0 /Users/Max/android-ndk-r8e/sources/cxx-stl/gnu-libstdc++/4.4.3/libs/armeabi/libgnustl_static.a(system_error.o)
 .ARM.extab.text._ZNSt14error_categoryD0Ev
                0x00015364        0x0 /Users/Max/android-ndk-r8e/sources/cxx-stl/gnu-libstdc++/4.4.3/libs/armeabi/libgnustl_static.a(system_error.o)
 .ARM.extab.text._ZN12_GLOBAL__N_121system_error_categoryD0Ev
                0x00015364        0x0 /Users/Max/android-ndk-r8e/sources/cxx-stl/gnu-libstdc++/4.4.3/libs/armeabi/libgnustl_static.a(system_error.o)
 .ARM.extab.text._ZN12_GLOBAL__N_122generic_error_categoryD0Ev
                0x00015364        0x0 /Users/Max/android-ndk-r8e/sources/cxx-stl/gnu-libstdc++/4.4.3/libs/armeabi/libgnustl_static.a(system_error.o)
 .ARM.extab.text._GLOBAL__I_system_error.cc
                0x00015364        0x0 /Users/Max/android-ndk-r8e/sources/cxx-stl/gnu-libstdc++/4.4.3/libs/armeabi/libgnustl_static.a(system_error.o)
 .ARM.extab.text._ZNK12_GLOBAL__N_122generic_error_category7messageEi
                0x00015364       0x18 /Users/Max/android-ndk-r8e/sources/cxx-stl/gnu-libstdc++/4.4.3/libs/armeabi/libgnustl_static.a(system_error.o)
 .ARM.extab.text._ZNK12_GLOBAL__N_121system_error_category7messageEi
                0x0001537c       0x18 /Users/Max/android-ndk-r8e/sources/cxx-stl/gnu-libstdc++/4.4.3/libs/armeabi/libgnustl_static.a(system_error.o)
 .ARM.extab.text._ZNSt12system_errorD1Ev
                0x00015394        0x0 /Users/Max/android-ndk-r8e/sources/cxx-stl/gnu-libstdc++/4.4.3/libs/armeabi/libgnustl_static.a(system_error.o)
 .ARM.extab.text._ZNSt12system_errorD0Ev
                0x00015394        0x0 /Users/Max/android-ndk-r8e/sources/cxx-stl/gnu-libstdc++/4.4.3/libs/armeabi/libgnustl_static.a(system_error.o)
 .ARM.extab.text._ZNSt12system_errorD2Ev
                0x00015394        0x0 /Users/Max/android-ndk-r8e/sources/cxx-stl/gnu-libstdc++/4.4.3/libs/armeabi/libgnustl_static.a(system_error.o)
 .ARM.extab.text._ZNKSt8bad_cast4whatEv
                0x00015394        0x0 /Users/Max/android-ndk-r8e/sources/cxx-stl/gnu-libstdc++/4.4.3/libs/armeabi/libgnustl_static.a(bad_cast.o)
 .ARM.extab.text._ZNSt8bad_castD1Ev
                0x00015394        0x0 /Users/Max/android-ndk-r8e/sources/cxx-stl/gnu-libstdc++/4.4.3/libs/armeabi/libgnustl_static.a(bad_cast.o)
 .ARM.extab.text._ZNSt8bad_castD0Ev
                0x00015394        0x0 /Users/Max/android-ndk-r8e/sources/cxx-stl/gnu-libstdc++/4.4.3/libs/armeabi/libgnustl_static.a(bad_cast.o)
 .ARM.extab.text._ZNSt8bad_castD2Ev
                0x00015394        0x0 /Users/Max/android-ndk-r8e/sources/cxx-stl/gnu-libstdc++/4.4.3/libs/armeabi/libgnustl_static.a(bad_cast.o)
 .ARM.extab.text._ZNKSt10bad_typeid4whatEv
                0x00015394        0x0 /Users/Max/android-ndk-r8e/sources/cxx-stl/gnu-libstdc++/4.4.3/libs/armeabi/libgnustl_static.a(bad_typeid.o)
 .ARM.extab.text._ZNSt10bad_typeidD1Ev
                0x00015394        0x0 /Users/Max/android-ndk-r8e/sources/cxx-stl/gnu-libstdc++/4.4.3/libs/armeabi/libgnustl_static.a(bad_typeid.o)
 .ARM.extab.text._ZNSt10bad_typeidD0Ev
                0x00015394        0x0 /Users/Max/android-ndk-r8e/sources/cxx-stl/gnu-libstdc++/4.4.3/libs/armeabi/libgnustl_static.a(bad_typeid.o)
 .ARM.extab.text._ZNSt10bad_typeidD2Ev
                0x00015394        0x0 /Users/Max/android-ndk-r8e/sources/cxx-stl/gnu-libstdc++/4.4.3/libs/armeabi/libgnustl_static.a(bad_typeid.o)
 .ARM.extab.text._ZNK10__cxxabiv117__class_type_info11__do_upcastEPKS0_PPv
                0x00015394        0x0 /Users/Max/android-ndk-r8e/sources/cxx-stl/gnu-libstdc++/4.4.3/libs/armeabi/libgnustl_static.a(class_type_info.o)
 .ARM.extab.text._ZNK10__cxxabiv117__class_type_info20__do_find_public_srcEiPKvPKS0_S2_
                0x00015394        0x0 /Users/Max/android-ndk-r8e/sources/cxx-stl/gnu-libstdc++/4.4.3/libs/armeabi/libgnustl_static.a(class_type_info.o)
 .ARM.extab.text._ZNK10__cxxabiv117__class_type_info11__do_upcastEPKS0_PKvRNS0_15__upcast_resultE
                0x00015394        0x0 /Users/Max/android-ndk-r8e/sources/cxx-stl/gnu-libstdc++/4.4.3/libs/armeabi/libgnustl_static.a(class_type_info.o)
 .ARM.extab.text._ZNK10__cxxabiv117__class_type_info12__do_dyncastEiNS0_10__sub_kindEPKS0_PKvS3_S5_RNS0_16__dyncast_resultE
                0x00015394        0x0 /Users/Max/android-ndk-r8e/sources/cxx-stl/gnu-libstdc++/4.4.3/libs/armeabi/libgnustl_static.a(class_type_info.o)
 .ARM.extab.text._ZNK10__cxxabiv117__class_type_info10__do_catchEPKSt9type_infoPPvj
                0x00015394        0x0 /Users/Max/android-ndk-r8e/sources/cxx-stl/gnu-libstdc++/4.4.3/libs/armeabi/libgnustl_static.a(class_type_info.o)
 .ARM.extab.text._ZN10__cxxabiv117__class_type_infoD1Ev
                0x00015394        0x0 /Users/Max/android-ndk-r8e/sources/cxx-stl/gnu-libstdc++/4.4.3/libs/armeabi/libgnustl_static.a(class_type_info.o)
 .ARM.extab.text._ZN10__cxxabiv117__class_type_infoD0Ev
                0x00015394        0x0 /Users/Max/android-ndk-r8e/sources/cxx-stl/gnu-libstdc++/4.4.3/libs/armeabi/libgnustl_static.a(class_type_info.o)
 .ARM.extab.text._ZN10__cxxabiv117__class_type_infoD2Ev
                0x00015394        0x0 /Users/Max/android-ndk-r8e/sources/cxx-stl/gnu-libstdc++/4.4.3/libs/armeabi/libgnustl_static.a(class_type_info.o)
 .ARM.extab.text._ZSt15set_new_handlerPFvvE
                0x00015394        0x0 /Users/Max/android-ndk-r8e/sources/cxx-stl/gnu-libstdc++/4.4.3/libs/armeabi/libgnustl_static.a(new_handler.o)
 .ARM.extab.text._ZNKSt9bad_alloc4whatEv
                0x00015394        0x0 /Users/Max/android-ndk-r8e/sources/cxx-stl/gnu-libstdc++/4.4.3/libs/armeabi/libgnustl_static.a(new_handler.o)
 .ARM.extab.text._ZNSt9bad_allocD1Ev
                0x00015394        0x0 /Users/Max/android-ndk-r8e/sources/cxx-stl/gnu-libstdc++/4.4.3/libs/armeabi/libgnustl_static.a(new_handler.o)
 .ARM.extab.text._ZNSt9bad_allocD0Ev
                0x00015394        0x0 /Users/Max/android-ndk-r8e/sources/cxx-stl/gnu-libstdc++/4.4.3/libs/armeabi/libgnustl_static.a(new_handler.o)
 .ARM.extab.text._ZNSt9bad_allocD2Ev
                0x00015394        0x0 /Users/Max/android-ndk-r8e/sources/cxx-stl/gnu-libstdc++/4.4.3/libs/armeabi/libgnustl_static.a(new_handler.o)
 .ARM.extab.text._ZNK10__cxxabiv117__pbase_type_info15__pointer_catchEPKS0_PPvj
                0x00015394        0x0 /Users/Max/android-ndk-r8e/sources/cxx-stl/gnu-libstdc++/4.4.3/libs/armeabi/libgnustl_static.a(pbase_type_info.o)
 .ARM.extab.text._ZNK10__cxxabiv117__pbase_type_info10__do_catchEPKSt9type_infoPPvj
                0x00015394        0x0 /Users/Max/android-ndk-r8e/sources/cxx-stl/gnu-libstdc++/4.4.3/libs/armeabi/libgnustl_static.a(pbase_type_info.o)
 .ARM.extab.text._ZN10__cxxabiv117__pbase_type_infoD1Ev
                0x00015394        0x0 /Users/Max/android-ndk-r8e/sources/cxx-stl/gnu-libstdc++/4.4.3/libs/armeabi/libgnustl_static.a(pbase_type_info.o)
 .ARM.extab.text._ZN10__cxxabiv117__pbase_type_infoD0Ev
                0x00015394        0x0 /Users/Max/android-ndk-r8e/sources/cxx-stl/gnu-libstdc++/4.4.3/libs/armeabi/libgnustl_static.a(pbase_type_info.o)
 .ARM.extab.text._ZN10__cxxabiv117__pbase_type_infoD2Ev
                0x00015394        0x0 /Users/Max/android-ndk-r8e/sources/cxx-stl/gnu-libstdc++/4.4.3/libs/armeabi/libgnustl_static.a(pbase_type_info.o)
 .ARM.extab.text._ZN9__gnu_cxx27__verbose_terminate_handlerEv
                0x00015394       0x3c /Users/Max/android-ndk-r8e/sources/cxx-stl/gnu-libstdc++/4.4.3/libs/armeabi/libgnustl_static.a(vterminate.o)
 .ARM.extab     0x000153d0        0xc /Users/Max/android-ndk-r8e/sources/cxx-stl/gnu-libstdc++/4.4.3/libs/armeabi/libgnustl_static.a(cp-demangle.o)
 .ARM.extab.text.__cxa_current_exception_type
                0x000153dc        0x0 /Users/Max/android-ndk-r8e/sources/cxx-stl/gnu-libstdc++/4.4.3/libs/armeabi/libgnustl_static.a(eh_type.o)
 .ARM.extab     0x000153dc       0x24 /Users/Max/android-ndk-r8e/toolchains/arm-linux-androideabi-4.4.3/prebuilt/darwin-x86/bin/../lib/gcc/arm-linux-androideabi/4.4.3/libgcc.a(unwind-arm.o)
 .ARM.extab     0x00015400        0x0 /Users/Max/android-ndk-r8e/toolchains/arm-linux-androideabi-4.4.3/prebuilt/darwin-x86/bin/../lib/gcc/arm-linux-androideabi/4.4.3/libgcc.a(pr-support.o)
                0x00015400                __exidx_start = .

.ARM.exidx      0x00015400      0xe08
 *(.ARM.exidx* .gnu.linkonce.armexidx.*)
 .ARM.exidx.text._ZNKSs7_M_dataEv
                0x00015400        0x8 /Users/Max/android-ndk-r8e/sources/cxx-stl/gnu-libstdc++/4.4.3/libs/armeabi/libgnustl_static.a(string-inst.o)
 .ARM.exidx.text._ZNSs7_M_dataEPc
                0x00015408        0x8 /Users/Max/android-ndk-r8e/sources/cxx-stl/gnu-libstdc++/4.4.3/libs/armeabi/libgnustl_static.a(string-inst.o)
 .ARM.exidx.text._ZNKSs6_M_repEv
                0x00015410        0x8 /Users/Max/android-ndk-r8e/sources/cxx-stl/gnu-libstdc++/4.4.3/libs/armeabi/libgnustl_static.a(string-inst.o)
 .ARM.exidx.text._ZNKSs9_M_ibeginEv
                0x00015418        0x8 /Users/Max/android-ndk-r8e/sources/cxx-stl/gnu-libstdc++/4.4.3/libs/armeabi/libgnustl_static.a(string-inst.o)
 .ARM.exidx.text._ZNKSs7_M_iendEv
                0x00015420        0x8 /Users/Max/android-ndk-r8e/sources/cxx-stl/gnu-libstdc++/4.4.3/libs/armeabi/libgnustl_static.a(string-inst.o)
 .ARM.exidx.text._ZNKSs8_M_limitEjj
                0x00015428        0x8 /Users/Max/android-ndk-r8e/sources/cxx-stl/gnu-libstdc++/4.4.3/libs/armeabi/libgnustl_static.a(string-inst.o)
 .ARM.exidx.text._ZNKSs11_M_disjunctEPKc
                0x00015430        0x8 /Users/Max/android-ndk-r8e/sources/cxx-stl/gnu-libstdc++/4.4.3/libs/armeabi/libgnustl_static.a(string-inst.o)
 .ARM.exidx.text._ZNSs10_S_compareEjj
                0x00015438        0x8 /Users/Max/android-ndk-r8e/sources/cxx-stl/gnu-libstdc++/4.4.3/libs/armeabi/libgnustl_static.a(string-inst.o)
 .ARM.exidx.text._ZNSs12_S_empty_repEv
                0x00015440        0x8 /Users/Max/android-ndk-r8e/sources/cxx-stl/gnu-libstdc++/4.4.3/libs/armeabi/libgnustl_static.a(string-inst.o)
 .ARM.exidx.text._ZNSsC2Ev
                0x00015448        0x8 /Users/Max/android-ndk-r8e/sources/cxx-stl/gnu-libstdc++/4.4.3/libs/armeabi/libgnustl_static.a(string-inst.o)
 .ARM.exidx.text._ZNSsC1Ev
                0x00015450        0x8 /Users/Max/android-ndk-r8e/sources/cxx-stl/gnu-libstdc++/4.4.3/libs/armeabi/libgnustl_static.a(string-inst.o)
 .ARM.exidx.text._ZNKSs5beginEv
                0x00015458        0x8 /Users/Max/android-ndk-r8e/sources/cxx-stl/gnu-libstdc++/4.4.3/libs/armeabi/libgnustl_static.a(string-inst.o)
 .ARM.exidx.text._ZNKSs3endEv
                0x00015460        0x8 /Users/Max/android-ndk-r8e/sources/cxx-stl/gnu-libstdc++/4.4.3/libs/armeabi/libgnustl_static.a(string-inst.o)
 .ARM.exidx.text._ZNKSs6rbeginEv
                0x00015468        0x8 /Users/Max/android-ndk-r8e/sources/cxx-stl/gnu-libstdc++/4.4.3/libs/armeabi/libgnustl_static.a(string-inst.o)
 .ARM.exidx.text._ZNKSs4rendEv
                0x00015470        0x8 /Users/Max/android-ndk-r8e/sources/cxx-stl/gnu-libstdc++/4.4.3/libs/armeabi/libgnustl_static.a(string-inst.o)
 .ARM.exidx.text._ZNKSs4sizeEv
                0x00015478        0x8 /Users/Max/android-ndk-r8e/sources/cxx-stl/gnu-libstdc++/4.4.3/libs/armeabi/libgnustl_static.a(string-inst.o)
 .ARM.exidx.text._ZNKSs6lengthEv
                0x00015480        0x8 /Users/Max/android-ndk-r8e/sources/cxx-stl/gnu-libstdc++/4.4.3/libs/armeabi/libgnustl_static.a(string-inst.o)
 .ARM.exidx.text._ZNKSs8max_sizeEv
                0x00015488        0x8 /Users/Max/android-ndk-r8e/sources/cxx-stl/gnu-libstdc++/4.4.3/libs/armeabi/libgnustl_static.a(string-inst.o)
 .ARM.exidx.text._ZNKSs8capacityEv
                0x00015490        0x8 /Users/Max/android-ndk-r8e/sources/cxx-stl/gnu-libstdc++/4.4.3/libs/armeabi/libgnustl_static.a(string-inst.o)
 .ARM.exidx.text._ZNKSs5emptyEv
                0x00015498        0x8 /Users/Max/android-ndk-r8e/sources/cxx-stl/gnu-libstdc++/4.4.3/libs/armeabi/libgnustl_static.a(string-inst.o)
 .ARM.exidx.text._ZNKSsixEj
                0x000154a0        0x8 /Users/Max/android-ndk-r8e/sources/cxx-stl/gnu-libstdc++/4.4.3/libs/armeabi/libgnustl_static.a(string-inst.o)
 .ARM.exidx.text._ZNSs4swapERSs
                0x000154a8        0x8 /Users/Max/android-ndk-r8e/sources/cxx-stl/gnu-libstdc++/4.4.3/libs/armeabi/libgnustl_static.a(string-inst.o)
 .ARM.exidx.text._ZNKSs5c_strEv
                0x000154b0        0x8 /Users/Max/android-ndk-r8e/sources/cxx-stl/gnu-libstdc++/4.4.3/libs/armeabi/libgnustl_static.a(string-inst.o)
 .ARM.exidx.text._ZNKSs4dataEv
                0x000154b8        0x8 /Users/Max/android-ndk-r8e/sources/cxx-stl/gnu-libstdc++/4.4.3/libs/armeabi/libgnustl_static.a(string-inst.o)
 .ARM.exidx.text._ZNKSs13get_allocatorEv
                0x000154c0        0x8 /Users/Max/android-ndk-r8e/sources/cxx-stl/gnu-libstdc++/4.4.3/libs/armeabi/libgnustl_static.a(string-inst.o)
 .ARM.exidx.text._ZNKSs5rfindEcj
                0x000154c8        0x8 /Users/Max/android-ndk-r8e/sources/cxx-stl/gnu-libstdc++/4.4.3/libs/armeabi/libgnustl_static.a(string-inst.o)
 .ARM.exidx.text._ZNKSs12find_last_ofEcj
                0x000154d0        0x8 /Users/Max/android-ndk-r8e/sources/cxx-stl/gnu-libstdc++/4.4.3/libs/armeabi/libgnustl_static.a(string-inst.o)
 .ARM.exidx.text._ZNKSs17find_first_not_ofEcj
                0x000154d8        0x8 /Users/Max/android-ndk-r8e/sources/cxx-stl/gnu-libstdc++/4.4.3/libs/armeabi/libgnustl_static.a(string-inst.o)
 .ARM.exidx.text._ZNKSs16find_last_not_ofEcj
                0x000154e0        0x8 /Users/Max/android-ndk-r8e/sources/cxx-stl/gnu-libstdc++/4.4.3/libs/armeabi/libgnustl_static.a(string-inst.o)
 .ARM.exidx.text._ZNSs12_Alloc_hiderC2EPcRKSaIcE
                0x000154e8        0x8 /Users/Max/android-ndk-r8e/sources/cxx-stl/gnu-libstdc++/4.4.3/libs/armeabi/libgnustl_static.a(string-inst.o)
 .ARM.exidx.text._ZNSs12_Alloc_hiderC1EPcRKSaIcE
                0x000154f0        0x8 /Users/Max/android-ndk-r8e/sources/cxx-stl/gnu-libstdc++/4.4.3/libs/armeabi/libgnustl_static.a(string-inst.o)
 .ARM.exidx.text._ZNSs4_Rep12_S_empty_repEv
                0x000154f8        0x8 /Users/Max/android-ndk-r8e/sources/cxx-stl/gnu-libstdc++/4.4.3/libs/armeabi/libgnustl_static.a(string-inst.o)
 .ARM.exidx.text._ZNKSs4_Rep12_M_is_leakedEv
                0x00015500        0x8 /Users/Max/android-ndk-r8e/sources/cxx-stl/gnu-libstdc++/4.4.3/libs/armeabi/libgnustl_static.a(string-inst.o)
 .ARM.exidx.text._ZNKSs4_Rep12_M_is_sharedEv
                0x00015508        0x8 /Users/Max/android-ndk-r8e/sources/cxx-stl/gnu-libstdc++/4.4.3/libs/armeabi/libgnustl_static.a(string-inst.o)
 .ARM.exidx.text._ZNSs4_Rep13_M_set_leakedEv
                0x00015510        0x8 /Users/Max/android-ndk-r8e/sources/cxx-stl/gnu-libstdc++/4.4.3/libs/armeabi/libgnustl_static.a(string-inst.o)
 .ARM.exidx.text._ZNSs4_Rep15_M_set_sharableEv
                0x00015518        0x8 /Users/Max/android-ndk-r8e/sources/cxx-stl/gnu-libstdc++/4.4.3/libs/armeabi/libgnustl_static.a(string-inst.o)
 .ARM.exidx.text._ZNSs4_Rep26_M_set_length_and_sharableEj
                0x00015520        0x8 /Users/Max/android-ndk-r8e/sources/cxx-stl/gnu-libstdc++/4.4.3/libs/armeabi/libgnustl_static.a(string-inst.o)
 .ARM.exidx.text._ZNSs4_Rep10_M_refdataEv
                0x00015528        0x8 /Users/Max/android-ndk-r8e/sources/cxx-stl/gnu-libstdc++/4.4.3/libs/armeabi/libgnustl_static.a(string-inst.o)
 .ARM.exidx.text._ZN9__gnu_cxxeqIPcSsEEbRKNS_17__normal_iteratorIT_T0_EES7_
                0x00015530        0x8 /Users/Max/android-ndk-r8e/sources/cxx-stl/gnu-libstdc++/4.4.3/libs/armeabi/libgnustl_static.a(string-inst.o)
 .ARM.exidx.text._ZN9__gnu_cxxeqIPKcSsEEbRKNS_17__normal_iteratorIT_T0_EES8_
                0x00015538        0x8 /Users/Max/android-ndk-r8e/sources/cxx-stl/gnu-libstdc++/4.4.3/libs/armeabi/libgnustl_static.a(string-inst.o)
 .ARM.exidx.text._ZNSs4_Rep10_M_refcopyEv
                0x00015540        0x8 /Users/Max/android-ndk-r8e/sources/cxx-stl/gnu-libstdc++/4.4.3/libs/armeabi/libgnustl_static.a(string-inst.o)
 .ARM.exidx.text._ZNSs4_Rep10_M_destroyERKSaIcE
                0x00015548        0x8 /Users/Max/android-ndk-r8e/sources/cxx-stl/gnu-libstdc++/4.4.3/libs/armeabi/libgnustl_static.a(string-inst.o)
 .ARM.exidx.text._ZNSs4_Rep10_M_disposeERKSaIcE
                0x00015550        0x8 /Users/Max/android-ndk-r8e/sources/cxx-stl/gnu-libstdc++/4.4.3/libs/armeabi/libgnustl_static.a(string-inst.o)
 .ARM.exidx.text._ZNKSs15_M_check_lengthEjjPKc
                0x00015558        0x8 /Users/Max/android-ndk-r8e/sources/cxx-stl/gnu-libstdc++/4.4.3/libs/armeabi/libgnustl_static.a(string-inst.o)
 .ARM.exidx.text._ZNSs4_Rep9_S_createEjjRKSaIcE
                0x00015560        0x8 /Users/Max/android-ndk-r8e/sources/cxx-stl/gnu-libstdc++/4.4.3/libs/armeabi/libgnustl_static.a(string-inst.o)
 .ARM.exidx.text._ZNKSs16find_last_not_ofEPKcjj
                0x00015568        0x8 /Users/Max/android-ndk-r8e/sources/cxx-stl/gnu-libstdc++/4.4.3/libs/armeabi/libgnustl_static.a(string-inst.o)
 .ARM.exidx.text._ZNKSs16find_last_not_ofERKSsj
                0x00015570        0x8 /Users/Max/android-ndk-r8e/sources/cxx-stl/gnu-libstdc++/4.4.3/libs/armeabi/libgnustl_static.a(string-inst.o)
 .ARM.exidx.text._ZNKSs17find_first_not_ofEPKcjj
                0x00015578        0x8 /Users/Max/android-ndk-r8e/sources/cxx-stl/gnu-libstdc++/4.4.3/libs/armeabi/libgnustl_static.a(string-inst.o)
 .ARM.exidx.text._ZNKSs17find_first_not_ofERKSsj
                0x00015580        0x8 /Users/Max/android-ndk-r8e/sources/cxx-stl/gnu-libstdc++/4.4.3/libs/armeabi/libgnustl_static.a(string-inst.o)
 .ARM.exidx.text._ZNKSs12find_last_ofEPKcjj
                0x00015588        0x8 /Users/Max/android-ndk-r8e/sources/cxx-stl/gnu-libstdc++/4.4.3/libs/armeabi/libgnustl_static.a(string-inst.o)
 .ARM.exidx.text._ZNKSs12find_last_ofERKSsj
                0x00015590        0x8 /Users/Max/android-ndk-r8e/sources/cxx-stl/gnu-libstdc++/4.4.3/libs/armeabi/libgnustl_static.a(string-inst.o)
 .ARM.exidx.text._ZNKSs13find_first_ofEPKcjj
                0x00015598        0x8 /Users/Max/android-ndk-r8e/sources/cxx-stl/gnu-libstdc++/4.4.3/libs/armeabi/libgnustl_static.a(string-inst.o)
 .ARM.exidx.text._ZNKSs13find_first_ofERKSsj
                0x000155a0        0x8 /Users/Max/android-ndk-r8e/sources/cxx-stl/gnu-libstdc++/4.4.3/libs/armeabi/libgnustl_static.a(string-inst.o)
 .ARM.exidx.text._ZNKSs4findEcj
                0x000155a8        0x8 /Users/Max/android-ndk-r8e/sources/cxx-stl/gnu-libstdc++/4.4.3/libs/armeabi/libgnustl_static.a(string-inst.o)
 .ARM.exidx.text._ZNKSs13find_first_ofEcj
                0x000155b0        0x8 /Users/Max/android-ndk-r8e/sources/cxx-stl/gnu-libstdc++/4.4.3/libs/armeabi/libgnustl_static.a(string-inst.o)
 .ARM.exidx.text._ZNKSs2atEj
                0x000155b8        0x8 /Users/Max/android-ndk-r8e/sources/cxx-stl/gnu-libstdc++/4.4.3/libs/armeabi/libgnustl_static.a(string-inst.o)
 .ARM.exidx.text._ZNKSs8_M_checkEjPKc
                0x000155c0        0x8 /Users/Max/android-ndk-r8e/sources/cxx-stl/gnu-libstdc++/4.4.3/libs/armeabi/libgnustl_static.a(string-inst.o)
 .ARM.exidx.text._ZNKSs7compareEjjRKSsjj
                0x000155c8        0x8 /Users/Max/android-ndk-r8e/sources/cxx-stl/gnu-libstdc++/4.4.3/libs/armeabi/libgnustl_static.a(string-inst.o)
 .ARM.exidx.text._ZNSs9_M_assignEPcjc
                0x000155d0        0x8 /Users/Max/android-ndk-r8e/sources/cxx-stl/gnu-libstdc++/4.4.3/libs/armeabi/libgnustl_static.a(string-inst.o)
 .ARM.exidx.text._ZNSs7_M_moveEPcPKcj
                0x000155d8        0x8 /Users/Max/android-ndk-r8e/sources/cxx-stl/gnu-libstdc++/4.4.3/libs/armeabi/libgnustl_static.a(string-inst.o)
 .ARM.exidx.text._ZNSs7_M_copyEPcPKcj
                0x000155e0        0x8 /Users/Max/android-ndk-r8e/sources/cxx-stl/gnu-libstdc++/4.4.3/libs/armeabi/libgnustl_static.a(string-inst.o)
 .ARM.exidx.text._ZNKSs5rfindEPKcjj
                0x000155e8        0x8 /Users/Max/android-ndk-r8e/sources/cxx-stl/gnu-libstdc++/4.4.3/libs/armeabi/libgnustl_static.a(string-inst.o)
 .ARM.exidx.text._ZNKSs5rfindERKSsj
                0x000155f0        0x8 /Users/Max/android-ndk-r8e/sources/cxx-stl/gnu-libstdc++/4.4.3/libs/armeabi/libgnustl_static.a(string-inst.o)
 .ARM.exidx.text._ZNKSs7compareERKSs
                0x000155f8        0x8 /Users/Max/android-ndk-r8e/sources/cxx-stl/gnu-libstdc++/4.4.3/libs/armeabi/libgnustl_static.a(string-inst.o)
 .ARM.exidx.text._ZNKSs7compareEjjPKcj
                0x00015600        0x8 /Users/Max/android-ndk-r8e/sources/cxx-stl/gnu-libstdc++/4.4.3/libs/armeabi/libgnustl_static.a(string-inst.o)
 .ARM.exidx.text._ZNKSs7compareEjjRKSs
                0x00015608        0x8 /Users/Max/android-ndk-r8e/sources/cxx-stl/gnu-libstdc++/4.4.3/libs/armeabi/libgnustl_static.a(string-inst.o)
 .ARM.exidx.text._ZNKSs4findEPKcjj
                0x00015610        0x8 /Users/Max/android-ndk-r8e/sources/cxx-stl/gnu-libstdc++/4.4.3/libs/armeabi/libgnustl_static.a(string-inst.o)
 .ARM.exidx.text._ZNKSs4findERKSsj
                0x00015618        0x8 /Users/Max/android-ndk-r8e/sources/cxx-stl/gnu-libstdc++/4.4.3/libs/armeabi/libgnustl_static.a(string-inst.o)
 .ARM.exidx.text._ZNKSs5rfindEPKcj
                0x00015620        0x8 /Users/Max/android-ndk-r8e/sources/cxx-stl/gnu-libstdc++/4.4.3/libs/armeabi/libgnustl_static.a(string-inst.o)
 .ARM.exidx.text._ZNKSs4findEPKcj
                0x00015628        0x8 /Users/Max/android-ndk-r8e/sources/cxx-stl/gnu-libstdc++/4.4.3/libs/armeabi/libgnustl_static.a(string-inst.o)
 .ARM.exidx.text._ZNKSs16find_last_not_ofEPKcj
                0x00015630        0x8 /Users/Max/android-ndk-r8e/sources/cxx-stl/gnu-libstdc++/4.4.3/libs/armeabi/libgnustl_static.a(string-inst.o)
 .ARM.exidx.text._ZNKSs17find_first_not_ofEPKcj
                0x00015638        0x8 /Users/Max/android-ndk-r8e/sources/cxx-stl/gnu-libstdc++/4.4.3/libs/armeabi/libgnustl_static.a(string-inst.o)
 .ARM.exidx.text._ZNKSs13find_first_ofEPKcj
                0x00015640        0x8 /Users/Max/android-ndk-r8e/sources/cxx-stl/gnu-libstdc++/4.4.3/libs/armeabi/libgnustl_static.a(string-inst.o)
 .ARM.exidx.text._ZNKSs12find_last_ofEPKcj
                0x00015648        0x8 /Users/Max/android-ndk-r8e/sources/cxx-stl/gnu-libstdc++/4.4.3/libs/armeabi/libgnustl_static.a(string-inst.o)
 .ARM.exidx.text._ZNKSs7compareEPKc
                0x00015650        0x8 /Users/Max/android-ndk-r8e/sources/cxx-stl/gnu-libstdc++/4.4.3/libs/armeabi/libgnustl_static.a(string-inst.o)
 .ARM.exidx.text._ZNKSs7compareEjjPKc
                0x00015658        0x8 /Users/Max/android-ndk-r8e/sources/cxx-stl/gnu-libstdc++/4.4.3/libs/armeabi/libgnustl_static.a(string-inst.o)
 .ARM.exidx.text._ZNSs13_S_copy_charsEPcPKcS1_
                0x00015660        0x8 /Users/Max/android-ndk-r8e/sources/cxx-stl/gnu-libstdc++/4.4.3/libs/armeabi/libgnustl_static.a(string-inst.o)
 .ARM.exidx.text._ZNSs13_S_copy_charsEPcN9__gnu_cxx17__normal_iteratorIPKcSsEES4_
                0x00015668        0x8 /Users/Max/android-ndk-r8e/sources/cxx-stl/gnu-libstdc++/4.4.3/libs/armeabi/libgnustl_static.a(string-inst.o)
 .ARM.exidx.text._ZNSs13_S_copy_charsEPcS_S_
                0x00015670        0x8 /Users/Max/android-ndk-r8e/sources/cxx-stl/gnu-libstdc++/4.4.3/libs/armeabi/libgnustl_static.a(string-inst.o)
 .ARM.exidx.text._ZNSs13_S_copy_charsEPcN9__gnu_cxx17__normal_iteratorIS_SsEES2_
                0x00015678        0x8 /Users/Max/android-ndk-r8e/sources/cxx-stl/gnu-libstdc++/4.4.3/libs/armeabi/libgnustl_static.a(string-inst.o)
 .ARM.exidx.text._ZNSs12_S_constructIPKcEEPcT_S3_RKSaIcESt20forward_iterator_tag
                0x00015680        0x8 /Users/Max/android-ndk-r8e/sources/cxx-stl/gnu-libstdc++/4.4.3/libs/armeabi/libgnustl_static.a(string-inst.o)
 .ARM.exidx.text._ZNSsC1IPKcEET_S2_RKSaIcE
                0x00015688        0x8 /Users/Max/android-ndk-r8e/sources/cxx-stl/gnu-libstdc++/4.4.3/libs/armeabi/libgnustl_static.a(string-inst.o)
 .ARM.exidx.text._ZNSsC2IPKcEET_S2_RKSaIcE
                0x00015690        0x8 /Users/Max/android-ndk-r8e/sources/cxx-stl/gnu-libstdc++/4.4.3/libs/armeabi/libgnustl_static.a(string-inst.o)
 .ARM.exidx.text._ZNSsC1ESt16initializer_listIcERKSaIcE
                0x00015698        0x8 /Users/Max/android-ndk-r8e/sources/cxx-stl/gnu-libstdc++/4.4.3/libs/armeabi/libgnustl_static.a(string-inst.o)
 .ARM.exidx.text._ZNSsC2ESt16initializer_listIcERKSaIcE
                0x000156a0        0x8 /Users/Max/android-ndk-r8e/sources/cxx-stl/gnu-libstdc++/4.4.3/libs/armeabi/libgnustl_static.a(string-inst.o)
 .ARM.exidx.text._ZNSsC1EPKcRKSaIcE
                0x000156a8        0x8 /Users/Max/android-ndk-r8e/sources/cxx-stl/gnu-libstdc++/4.4.3/libs/armeabi/libgnustl_static.a(string-inst.o)
 .ARM.exidx.text._ZNSsC2EPKcRKSaIcE
                0x000156b0        0x8 /Users/Max/android-ndk-r8e/sources/cxx-stl/gnu-libstdc++/4.4.3/libs/armeabi/libgnustl_static.a(string-inst.o)
 .ARM.exidx.text._ZNSsC1EPKcjRKSaIcE
                0x000156b8        0x8 /Users/Max/android-ndk-r8e/sources/cxx-stl/gnu-libstdc++/4.4.3/libs/armeabi/libgnustl_static.a(string-inst.o)
 .ARM.exidx.text._ZNSsC2EPKcjRKSaIcE
                0x000156c0        0x8 /Users/Max/android-ndk-r8e/sources/cxx-stl/gnu-libstdc++/4.4.3/libs/armeabi/libgnustl_static.a(string-inst.o)
 .ARM.exidx.text._ZNSs12_S_constructIPcEES0_T_S1_RKSaIcESt20forward_iterator_tag
                0x000156c8        0x8 /Users/Max/android-ndk-r8e/sources/cxx-stl/gnu-libstdc++/4.4.3/libs/armeabi/libgnustl_static.a(string-inst.o)
 .ARM.exidx.text._ZNSsC1IPcEET_S1_RKSaIcE
                0x000156d0        0x8 /Users/Max/android-ndk-r8e/sources/cxx-stl/gnu-libstdc++/4.4.3/libs/armeabi/libgnustl_static.a(string-inst.o)
 .ARM.exidx.text._ZNSsC2IPcEET_S1_RKSaIcE
                0x000156d8        0x8 /Users/Max/android-ndk-r8e/sources/cxx-stl/gnu-libstdc++/4.4.3/libs/armeabi/libgnustl_static.a(string-inst.o)
 .ARM.exidx.text._ZNSsC1ERKSsjjRKSaIcE
                0x000156e0        0x8 /Users/Max/android-ndk-r8e/sources/cxx-stl/gnu-libstdc++/4.4.3/libs/armeabi/libgnustl_static.a(string-inst.o)
 .ARM.exidx.text._ZNSsC2ERKSsjjRKSaIcE
                0x000156e8        0x8 /Users/Max/android-ndk-r8e/sources/cxx-stl/gnu-libstdc++/4.4.3/libs/armeabi/libgnustl_static.a(string-inst.o)
 .ARM.exidx.text._ZNSsC1ERKSsjj
                0x000156f0        0x8 /Users/Max/android-ndk-r8e/sources/cxx-stl/gnu-libstdc++/4.4.3/libs/armeabi/libgnustl_static.a(string-inst.o)
 .ARM.exidx.text._ZNKSs6substrEjj
                0x000156f8        0x8 /Users/Max/android-ndk-r8e/sources/cxx-stl/gnu-libstdc++/4.4.3/libs/armeabi/libgnustl_static.a(string-inst.o)
 .ARM.exidx.text._ZNSsC2ERKSsjj
                0x00015700        0x8 /Users/Max/android-ndk-r8e/sources/cxx-stl/gnu-libstdc++/4.4.3/libs/armeabi/libgnustl_static.a(string-inst.o)
 .ARM.exidx.text._ZNSsD1Ev
                0x00015708        0x8 /Users/Max/android-ndk-r8e/sources/cxx-stl/gnu-libstdc++/4.4.3/libs/armeabi/libgnustl_static.a(string-inst.o)
 .ARM.exidx.text._ZNSsD2Ev
                0x00015710        0x8 /Users/Max/android-ndk-r8e/sources/cxx-stl/gnu-libstdc++/4.4.3/libs/armeabi/libgnustl_static.a(string-inst.o)
 .ARM.exidx.text._ZNSs12_S_constructIN9__gnu_cxx17__normal_iteratorIPcSsEEEES2_T_S4_RKSaIcESt20forward_iterator_tag
                0x00015718        0x8 /Users/Max/android-ndk-r8e/sources/cxx-stl/gnu-libstdc++/4.4.3/libs/armeabi/libgnustl_static.a(string-inst.o)
 .ARM.exidx.text._ZNSsC1IN9__gnu_cxx17__normal_iteratorIPcSsEEEET_S4_RKSaIcE
                0x00015720        0x8 /Users/Max/android-ndk-r8e/sources/cxx-stl/gnu-libstdc++/4.4.3/libs/armeabi/libgnustl_static.a(string-inst.o)
 .ARM.exidx.text._ZNSsC2IN9__gnu_cxx17__normal_iteratorIPcSsEEEET_S4_RKSaIcE
                0x00015728        0x8 /Users/Max/android-ndk-r8e/sources/cxx-stl/gnu-libstdc++/4.4.3/libs/armeabi/libgnustl_static.a(string-inst.o)
 .ARM.exidx.text._ZNKSs4copyEPcjj
                0x00015730        0x8 /Users/Max/android-ndk-r8e/sources/cxx-stl/gnu-libstdc++/4.4.3/libs/armeabi/libgnustl_static.a(string-inst.o)
 .ARM.exidx.text._ZNSs4_Rep8_M_cloneERKSaIcEj
                0x00015738        0x8 /Users/Max/android-ndk-r8e/sources/cxx-stl/gnu-libstdc++/4.4.3/libs/armeabi/libgnustl_static.a(string-inst.o)
 .ARM.exidx.text._ZNSs7reserveEj
                0x00015740        0x8 /Users/Max/android-ndk-r8e/sources/cxx-stl/gnu-libstdc++/4.4.3/libs/armeabi/libgnustl_static.a(string-inst.o)
 .ARM.exidx.text._ZNSs9push_backEc
                0x00015748        0x8 /Users/Max/android-ndk-r8e/sources/cxx-stl/gnu-libstdc++/4.4.3/libs/armeabi/libgnustl_static.a(string-inst.o)
 .ARM.exidx.text._ZNSs6appendEjc
                0x00015750        0x8 /Users/Max/android-ndk-r8e/sources/cxx-stl/gnu-libstdc++/4.4.3/libs/armeabi/libgnustl_static.a(string-inst.o)
 .ARM.exidx.text._ZNSs6appendEPKcj
                0x00015758        0x8 /Users/Max/android-ndk-r8e/sources/cxx-stl/gnu-libstdc++/4.4.3/libs/armeabi/libgnustl_static.a(string-inst.o)
 .ARM.exidx.text._ZNSs6appendEPKc
                0x00015760        0x8 /Users/Max/android-ndk-r8e/sources/cxx-stl/gnu-libstdc++/4.4.3/libs/armeabi/libgnustl_static.a(string-inst.o)
 .ARM.exidx.text._ZNSspLEPKc
                0x00015768        0x8 /Users/Max/android-ndk-r8e/sources/cxx-stl/gnu-libstdc++/4.4.3/libs/armeabi/libgnustl_static.a(string-inst.o)
 .ARM.exidx.text._ZNSs6appendERKSsjj
                0x00015770        0x8 /Users/Max/android-ndk-r8e/sources/cxx-stl/gnu-libstdc++/4.4.3/libs/armeabi/libgnustl_static.a(string-inst.o)
 .ARM.exidx.text._ZNSs6appendERKSs
                0x00015778        0x8 /Users/Max/android-ndk-r8e/sources/cxx-stl/gnu-libstdc++/4.4.3/libs/armeabi/libgnustl_static.a(string-inst.o)
 .ARM.exidx.text._ZNSspLERKSs
                0x00015780        0x8 /Users/Max/android-ndk-r8e/sources/cxx-stl/gnu-libstdc++/4.4.3/libs/armeabi/libgnustl_static.a(string-inst.o)
 .ARM.exidx.text._ZStplIcSt11char_traitsIcESaIcEESbIT_T0_T1_ES3_RKS6_
                0x00015788        0x8 /Users/Max/android-ndk-r8e/sources/cxx-stl/gnu-libstdc++/4.4.3/libs/armeabi/libgnustl_static.a(string-inst.o)
 .ARM.exidx.text._ZStplIcSt11char_traitsIcESaIcEESbIT_T0_T1_EPKS3_RKS6_
                0x00015790        0x8 /Users/Max/android-ndk-r8e/sources/cxx-stl/gnu-libstdc++/4.4.3/libs/armeabi/libgnustl_static.a(string-inst.o)
 .ARM.exidx.text._ZNSspLEc
                0x00015798        0x8 /Users/Max/android-ndk-r8e/sources/cxx-stl/gnu-libstdc++/4.4.3/libs/armeabi/libgnustl_static.a(string-inst.o)
 .ARM.exidx.text._ZNSsC2ERKSs
                0x000157a0        0x8 /Users/Max/android-ndk-r8e/sources/cxx-stl/gnu-libstdc++/4.4.3/libs/armeabi/libgnustl_static.a(string-inst.o)
 .ARM.exidx.text._ZNSs4_Rep7_M_grabERKSaIcES2_
                0x000157a8        0x8 /Users/Max/android-ndk-r8e/sources/cxx-stl/gnu-libstdc++/4.4.3/libs/armeabi/libgnustl_static.a(string-inst.o)
 .ARM.exidx.text._ZNSsC1ERKSs
                0x000157b0        0x8 /Users/Max/android-ndk-r8e/sources/cxx-stl/gnu-libstdc++/4.4.3/libs/armeabi/libgnustl_static.a(string-inst.o)
 .ARM.exidx.text._ZStplIcSt11char_traitsIcESaIcEESbIT_T0_T1_ERKS6_S8_
                0x000157b8        0x8 /Users/Max/android-ndk-r8e/sources/cxx-stl/gnu-libstdc++/4.4.3/libs/armeabi/libgnustl_static.a(string-inst.o)
 .ARM.exidx.text._ZNSs6assignERKSs
                0x000157c0        0x8 /Users/Max/android-ndk-r8e/sources/cxx-stl/gnu-libstdc++/4.4.3/libs/armeabi/libgnustl_static.a(string-inst.o)
 .ARM.exidx.text._ZNSsaSERKSs
                0x000157c8        0x8 /Users/Max/android-ndk-r8e/sources/cxx-stl/gnu-libstdc++/4.4.3/libs/armeabi/libgnustl_static.a(string-inst.o)
 .ARM.exidx.text._ZNSs9_M_mutateEjjj
                0x000157d0        0x8 /Users/Max/android-ndk-r8e/sources/cxx-stl/gnu-libstdc++/4.4.3/libs/armeabi/libgnustl_static.a(string-inst.o)
 .ARM.exidx.text._ZNSs14_M_replace_auxEjjjc
                0x000157d8        0x8 /Users/Max/android-ndk-r8e/sources/cxx-stl/gnu-libstdc++/4.4.3/libs/armeabi/libgnustl_static.a(string-inst.o)
 .ARM.exidx.text._ZNSs7replaceEN9__gnu_cxx17__normal_iteratorIPcSsEES2_jc
                0x000157e0        0x8 /Users/Max/android-ndk-r8e/sources/cxx-stl/gnu-libstdc++/4.4.3/libs/armeabi/libgnustl_static.a(string-inst.o)
 .ARM.exidx.text._ZNSs7replaceEjjjc
                0x000157e8        0x8 /Users/Max/android-ndk-r8e/sources/cxx-stl/gnu-libstdc++/4.4.3/libs/armeabi/libgnustl_static.a(string-inst.o)
 .ARM.exidx.text._ZNSs6insertEN9__gnu_cxx17__normal_iteratorIPcSsEEc
                0x000157f0        0x8 /Users/Max/android-ndk-r8e/sources/cxx-stl/gnu-libstdc++/4.4.3/libs/armeabi/libgnustl_static.a(string-inst.o)
 .ARM.exidx.text._ZNSs6insertEjjc
                0x000157f8        0x8 /Users/Max/android-ndk-r8e/sources/cxx-stl/gnu-libstdc++/4.4.3/libs/armeabi/libgnustl_static.a(string-inst.o)
 .ARM.exidx.text._ZNSs6assignEjc
                0x00015800        0x8 /Users/Max/android-ndk-r8e/sources/cxx-stl/gnu-libstdc++/4.4.3/libs/armeabi/libgnustl_static.a(string-inst.o)
 .ARM.exidx.text._ZNSs6insertEN9__gnu_cxx17__normal_iteratorIPcSsEEjc
                0x00015808        0x8 /Users/Max/android-ndk-r8e/sources/cxx-stl/gnu-libstdc++/4.4.3/libs/armeabi/libgnustl_static.a(string-inst.o)
 .ARM.exidx.text._ZNSsaSEc
                0x00015810        0x8 /Users/Max/android-ndk-r8e/sources/cxx-stl/gnu-libstdc++/4.4.3/libs/armeabi/libgnustl_static.a(string-inst.o)
 .ARM.exidx.text._ZNSs5eraseEN9__gnu_cxx17__normal_iteratorIPcSsEES2_
                0x00015818        0x8 /Users/Max/android-ndk-r8e/sources/cxx-stl/gnu-libstdc++/4.4.3/libs/armeabi/libgnustl_static.a(string-inst.o)
 .ARM.exidx.text._ZNSs5eraseEN9__gnu_cxx17__normal_iteratorIPcSsEE
                0x00015820        0x8 /Users/Max/android-ndk-r8e/sources/cxx-stl/gnu-libstdc++/4.4.3/libs/armeabi/libgnustl_static.a(string-inst.o)
 .ARM.exidx.text._ZNSs5eraseEjj
                0x00015828        0x8 /Users/Max/android-ndk-r8e/sources/cxx-stl/gnu-libstdc++/4.4.3/libs/armeabi/libgnustl_static.a(string-inst.o)
 .ARM.exidx.text._ZNSs5clearEv
                0x00015830        0x8 /Users/Max/android-ndk-r8e/sources/cxx-stl/gnu-libstdc++/4.4.3/libs/armeabi/libgnustl_static.a(string-inst.o)
 .ARM.exidx.text._ZNSs12_M_leak_hardEv
                0x00015838        0x8 /Users/Max/android-ndk-r8e/sources/cxx-stl/gnu-libstdc++/4.4.3/libs/armeabi/libgnustl_static.a(string-inst.o)
 .ARM.exidx.text._ZNSs7_M_leakEv
                0x00015840        0x8 /Users/Max/android-ndk-r8e/sources/cxx-stl/gnu-libstdc++/4.4.3/libs/armeabi/libgnustl_static.a(string-inst.o)
 .ARM.exidx.text._ZNSsixEj
                0x00015848        0x8 /Users/Max/android-ndk-r8e/sources/cxx-stl/gnu-libstdc++/4.4.3/libs/armeabi/libgnustl_static.a(string-inst.o)
 .ARM.exidx.text._ZNSs5beginEv
                0x00015850        0x8 /Users/Max/android-ndk-r8e/sources/cxx-stl/gnu-libstdc++/4.4.3/libs/armeabi/libgnustl_static.a(string-inst.o)
 .ARM.exidx.text._ZNSs4rendEv
                0x00015858        0x8 /Users/Max/android-ndk-r8e/sources/cxx-stl/gnu-libstdc++/4.4.3/libs/armeabi/libgnustl_static.a(string-inst.o)
 .ARM.exidx.text._ZNSs3endEv
                0x00015860        0x8 /Users/Max/android-ndk-r8e/sources/cxx-stl/gnu-libstdc++/4.4.3/libs/armeabi/libgnustl_static.a(string-inst.o)
 .ARM.exidx.text._ZNSs2atEj
                0x00015868        0x8 /Users/Max/android-ndk-r8e/sources/cxx-stl/gnu-libstdc++/4.4.3/libs/armeabi/libgnustl_static.a(string-inst.o)
 .ARM.exidx.text._ZNSs6rbeginEv
                0x00015870        0x8 /Users/Max/android-ndk-r8e/sources/cxx-stl/gnu-libstdc++/4.4.3/libs/armeabi/libgnustl_static.a(string-inst.o)
 .ARM.exidx.text._ZNSs15_M_replace_safeEjjPKcj
                0x00015878        0x8 /Users/Max/android-ndk-r8e/sources/cxx-stl/gnu-libstdc++/4.4.3/libs/armeabi/libgnustl_static.a(string-inst.o)
 .ARM.exidx.text._ZNSs6assignEPKcj
                0x00015880        0x8 /Users/Max/android-ndk-r8e/sources/cxx-stl/gnu-libstdc++/4.4.3/libs/armeabi/libgnustl_static.a(string-inst.o)
 .ARM.exidx.text._ZNSs6assignEPKc
                0x00015888        0x8 /Users/Max/android-ndk-r8e/sources/cxx-stl/gnu-libstdc++/4.4.3/libs/armeabi/libgnustl_static.a(string-inst.o)
 .ARM.exidx.text._ZNSs6assignERKSsjj
                0x00015890        0x8 /Users/Max/android-ndk-r8e/sources/cxx-stl/gnu-libstdc++/4.4.3/libs/armeabi/libgnustl_static.a(string-inst.o)
 .ARM.exidx.text._ZNSsaSEPKc
                0x00015898        0x8 /Users/Max/android-ndk-r8e/sources/cxx-stl/gnu-libstdc++/4.4.3/libs/armeabi/libgnustl_static.a(string-inst.o)
 .ARM.exidx.text._ZNSs6insertEjPKcj
                0x000158a0        0x8 /Users/Max/android-ndk-r8e/sources/cxx-stl/gnu-libstdc++/4.4.3/libs/armeabi/libgnustl_static.a(string-inst.o)
 .ARM.exidx.text._ZNSs6insertEjPKc
                0x000158a8        0x8 /Users/Max/android-ndk-r8e/sources/cxx-stl/gnu-libstdc++/4.4.3/libs/armeabi/libgnustl_static.a(string-inst.o)
 .ARM.exidx.text._ZNSs6insertEjRKSsjj
                0x000158b0        0x8 /Users/Max/android-ndk-r8e/sources/cxx-stl/gnu-libstdc++/4.4.3/libs/armeabi/libgnustl_static.a(string-inst.o)
 .ARM.exidx.text._ZNSs6insertEjRKSs
                0x000158b8        0x8 /Users/Max/android-ndk-r8e/sources/cxx-stl/gnu-libstdc++/4.4.3/libs/armeabi/libgnustl_static.a(string-inst.o)
 .ARM.exidx.text._ZNSs6resizeEjc
                0x000158c0        0x8 /Users/Max/android-ndk-r8e/sources/cxx-stl/gnu-libstdc++/4.4.3/libs/armeabi/libgnustl_static.a(string-inst.o)
 .ARM.exidx.text._ZNSs6resizeEj
                0x000158c8        0x8 /Users/Max/android-ndk-r8e/sources/cxx-stl/gnu-libstdc++/4.4.3/libs/armeabi/libgnustl_static.a(string-inst.o)
 .ARM.exidx.text._ZNSs12_S_constructEjcRKSaIcE
                0x000158d0        0x8 /Users/Max/android-ndk-r8e/sources/cxx-stl/gnu-libstdc++/4.4.3/libs/armeabi/libgnustl_static.a(string-inst.o)
 .ARM.exidx.text._ZNSsC1EjcRKSaIcE
                0x000158d8        0x8 /Users/Max/android-ndk-r8e/sources/cxx-stl/gnu-libstdc++/4.4.3/libs/armeabi/libgnustl_static.a(string-inst.o)
 .ARM.exidx.text._ZNSsC2EjcRKSaIcE
                0x000158e0        0x8 /Users/Max/android-ndk-r8e/sources/cxx-stl/gnu-libstdc++/4.4.3/libs/armeabi/libgnustl_static.a(string-inst.o)
 .ARM.exidx.text._ZNSsC1ERKSaIcE
                0x000158e8        0x8 /Users/Max/android-ndk-r8e/sources/cxx-stl/gnu-libstdc++/4.4.3/libs/armeabi/libgnustl_static.a(string-inst.o)
 .ARM.exidx.text._ZNSsC2ERKSaIcE
                0x000158f0        0x8 /Users/Max/android-ndk-r8e/sources/cxx-stl/gnu-libstdc++/4.4.3/libs/armeabi/libgnustl_static.a(string-inst.o)
 .ARM.exidx.text._ZNSs7replaceEjjPKcj
                0x000158f8        0x8 /Users/Max/android-ndk-r8e/sources/cxx-stl/gnu-libstdc++/4.4.3/libs/armeabi/libgnustl_static.a(string-inst.o)
 .ARM.exidx.text._ZNSs7replaceEN9__gnu_cxx17__normal_iteratorIPcSsEES2_NS0_IPKcSsEES5_
                0x00015900        0x8 /Users/Max/android-ndk-r8e/sources/cxx-stl/gnu-libstdc++/4.4.3/libs/armeabi/libgnustl_static.a(string-inst.o)
 .ARM.exidx.text._ZNSs7replaceEN9__gnu_cxx17__normal_iteratorIPcSsEES2_S2_S2_
                0x00015908        0x8 /Users/Max/android-ndk-r8e/sources/cxx-stl/gnu-libstdc++/4.4.3/libs/armeabi/libgnustl_static.a(string-inst.o)
 .ARM.exidx.text._ZNSs7replaceEN9__gnu_cxx17__normal_iteratorIPcSsEES2_PKcS4_
                0x00015910        0x8 /Users/Max/android-ndk-r8e/sources/cxx-stl/gnu-libstdc++/4.4.3/libs/armeabi/libgnustl_static.a(string-inst.o)
 .ARM.exidx.text._ZNSs7replaceEN9__gnu_cxx17__normal_iteratorIPcSsEES2_S1_S1_
                0x00015918        0x8 /Users/Max/android-ndk-r8e/sources/cxx-stl/gnu-libstdc++/4.4.3/libs/armeabi/libgnustl_static.a(string-inst.o)
 .ARM.exidx.text._ZNSs7replaceEN9__gnu_cxx17__normal_iteratorIPcSsEES2_PKcj
                0x00015920        0x8 /Users/Max/android-ndk-r8e/sources/cxx-stl/gnu-libstdc++/4.4.3/libs/armeabi/libgnustl_static.a(string-inst.o)
 .ARM.exidx.text._ZNSs7replaceEjjPKc
                0x00015928        0x8 /Users/Max/android-ndk-r8e/sources/cxx-stl/gnu-libstdc++/4.4.3/libs/armeabi/libgnustl_static.a(string-inst.o)
 .ARM.exidx.text._ZNSs7replaceEjjRKSsjj
                0x00015930        0x8 /Users/Max/android-ndk-r8e/sources/cxx-stl/gnu-libstdc++/4.4.3/libs/armeabi/libgnustl_static.a(string-inst.o)
 .ARM.exidx.text._ZNSs7replaceEjjRKSs
                0x00015938        0x8 /Users/Max/android-ndk-r8e/sources/cxx-stl/gnu-libstdc++/4.4.3/libs/armeabi/libgnustl_static.a(string-inst.o)
 .ARM.exidx.text._ZNSs7replaceEN9__gnu_cxx17__normal_iteratorIPcSsEES2_RKSs
                0x00015940        0x8 /Users/Max/android-ndk-r8e/sources/cxx-stl/gnu-libstdc++/4.4.3/libs/armeabi/libgnustl_static.a(string-inst.o)
 .ARM.exidx.text._ZNSs7replaceEN9__gnu_cxx17__normal_iteratorIPcSsEES2_PKc
                0x00015948        0x8 /Users/Max/android-ndk-r8e/sources/cxx-stl/gnu-libstdc++/4.4.3/libs/armeabi/libgnustl_static.a(string-inst.o)
 .ARM.exidx.text._ZNSs7replaceEN9__gnu_cxx17__normal_iteratorIPcSsEES2_St16initializer_listIcE
                0x00015950        0x8 /Users/Max/android-ndk-r8e/sources/cxx-stl/gnu-libstdc++/4.4.3/libs/armeabi/libgnustl_static.a(string-inst.o)
 .ARM.exidx.text._ZNSs6insertEN9__gnu_cxx17__normal_iteratorIPcSsEESt16initializer_listIcE
                0x00015958        0x8 /Users/Max/android-ndk-r8e/sources/cxx-stl/gnu-libstdc++/4.4.3/libs/armeabi/libgnustl_static.a(string-inst.o)
 .ARM.exidx.text._ZNSs6assignESt16initializer_listIcE
                0x00015960        0x8 /Users/Max/android-ndk-r8e/sources/cxx-stl/gnu-libstdc++/4.4.3/libs/armeabi/libgnustl_static.a(string-inst.o)
 .ARM.exidx.text._ZNSsaSESt16initializer_listIcE
                0x00015968        0x8 /Users/Max/android-ndk-r8e/sources/cxx-stl/gnu-libstdc++/4.4.3/libs/armeabi/libgnustl_static.a(string-inst.o)
 .ARM.exidx.text._ZNSs6appendESt16initializer_listIcE
                0x00015970        0x8 /Users/Max/android-ndk-r8e/sources/cxx-stl/gnu-libstdc++/4.4.3/libs/armeabi/libgnustl_static.a(string-inst.o)
 .ARM.exidx.text._ZNSspLESt16initializer_listIcE
                0x00015978        0x8 /Users/Max/android-ndk-r8e/sources/cxx-stl/gnu-libstdc++/4.4.3/libs/armeabi/libgnustl_static.a(string-inst.o)
 .ARM.exidx.text._ZNK9__gnu_cxx24__concurrence_lock_error4whatEv
                0x00015980        0x8 /Users/Max/android-ndk-r8e/sources/cxx-stl/gnu-libstdc++/4.4.3/libs/armeabi/libgnustl_static.a(atomicity.o)
 .ARM.exidx.text._ZNK9__gnu_cxx26__concurrence_unlock_error4whatEv
                0x00015988        0x8 /Users/Max/android-ndk-r8e/sources/cxx-stl/gnu-libstdc++/4.4.3/libs/armeabi/libgnustl_static.a(atomicity.o)
 .ARM.exidx.text._ZN9__gnu_cxx24__concurrence_lock_errorD1Ev
                0x00015990        0x8 /Users/Max/android-ndk-r8e/sources/cxx-stl/gnu-libstdc++/4.4.3/libs/armeabi/libgnustl_static.a(atomicity.o)
 .ARM.exidx.text._ZN9__gnu_cxx26__concurrence_unlock_errorD1Ev
                0x00015998        0x8 /Users/Max/android-ndk-r8e/sources/cxx-stl/gnu-libstdc++/4.4.3/libs/armeabi/libgnustl_static.a(atomicity.o)
 .ARM.exidx.text._ZN9__gnu_cxx18__exchange_and_addEPVii
                0x000159a0        0x8 /Users/Max/android-ndk-r8e/sources/cxx-stl/gnu-libstdc++/4.4.3/libs/armeabi/libgnustl_static.a(atomicity.o)
 .ARM.exidx.text._ZN9__gnu_cxx12__atomic_addEPVii
                0x000159a8        0x8 /Users/Max/android-ndk-r8e/sources/cxx-stl/gnu-libstdc++/4.4.3/libs/armeabi/libgnustl_static.a(atomicity.o)
 .ARM.exidx.text._ZN9__gnu_cxx26__concurrence_unlock_errorD0Ev
                0x000159b0        0x8 /Users/Max/android-ndk-r8e/sources/cxx-stl/gnu-libstdc++/4.4.3/libs/armeabi/libgnustl_static.a(atomicity.o)
 .ARM.exidx.text._ZN9__gnu_cxx24__concurrence_lock_errorD0Ev
                0x000159b8        0x8 /Users/Max/android-ndk-r8e/sources/cxx-stl/gnu-libstdc++/4.4.3/libs/armeabi/libgnustl_static.a(atomicity.o)
 .ARM.exidx.text.__aeabi_atexit
                0x000159c0        0x8 /Users/Max/android-ndk-r8e/sources/cxx-stl/gnu-libstdc++/4.4.3/libs/armeabi/libgnustl_static.a(atexit_arm.o)
 .ARM.exidx.text._ZdlPv
                0x000159c8        0x8 /Users/Max/android-ndk-r8e/sources/cxx-stl/gnu-libstdc++/4.4.3/libs/armeabi/libgnustl_static.a(del_op.o)
 .ARM.exidx.text._GLOBAL__I_eh_alloc.cc
                0x000159d0        0x8 /Users/Max/android-ndk-r8e/sources/cxx-stl/gnu-libstdc++/4.4.3/libs/armeabi/libgnustl_static.a(eh_alloc.o)
 .ARM.exidx.text._ZN9__gnu_cxx13__scoped_lockD1Ev
                0x000159d8        0x8 /Users/Max/android-ndk-r8e/sources/cxx-stl/gnu-libstdc++/4.4.3/libs/armeabi/libgnustl_static.a(eh_alloc.o)
 .ARM.exidx.text.__cxa_free_dependent_exception
                0x000159e0        0x8 /Users/Max/android-ndk-r8e/sources/cxx-stl/gnu-libstdc++/4.4.3/libs/armeabi/libgnustl_static.a(eh_alloc.o)
 .ARM.exidx.text.__cxa_free_exception
                0x000159e8        0x8 /Users/Max/android-ndk-r8e/sources/cxx-stl/gnu-libstdc++/4.4.3/libs/armeabi/libgnustl_static.a(eh_alloc.o)
 .ARM.exidx.text.__cxa_allocate_dependent_exception
                0x000159f0        0x8 /Users/Max/android-ndk-r8e/sources/cxx-stl/gnu-libstdc++/4.4.3/libs/armeabi/libgnustl_static.a(eh_alloc.o)
 .ARM.exidx.text.__cxa_allocate_exception
                0x000159f8        0x8 /Users/Max/android-ndk-r8e/sources/cxx-stl/gnu-libstdc++/4.4.3/libs/armeabi/libgnustl_static.a(eh_alloc.o)
 .ARM.exidx.text.__cxa_type_match
                0x00015a00        0x8 /Users/Max/android-ndk-r8e/sources/cxx-stl/gnu-libstdc++/4.4.3/libs/armeabi/libgnustl_static.a(eh_arm.o)
 .ARM.exidx.text.__cxa_begin_cleanup
                0x00015a08        0x8 /Users/Max/android-ndk-r8e/sources/cxx-stl/gnu-libstdc++/4.4.3/libs/armeabi/libgnustl_static.a(eh_arm.o)
 .ARM.exidx.text.__gnu_end_cleanup
                0x00015a10        0x8 /Users/Max/android-ndk-r8e/sources/cxx-stl/gnu-libstdc++/4.4.3/libs/armeabi/libgnustl_static.a(eh_arm.o)
 .ARM.exidx.text.__cxa_bad_typeid
                0x00015a18        0x8 /Users/Max/android-ndk-r8e/sources/cxx-stl/gnu-libstdc++/4.4.3/libs/armeabi/libgnustl_static.a(eh_aux_runtime.o)
 .ARM.exidx.text.__cxa_bad_cast
                0x00015a20        0x8 /Users/Max/android-ndk-r8e/sources/cxx-stl/gnu-libstdc++/4.4.3/libs/armeabi/libgnustl_static.a(eh_aux_runtime.o)
 .ARM.exidx.text.__cxa_call_terminate
                0x00015a28        0x8 /Users/Max/android-ndk-r8e/sources/cxx-stl/gnu-libstdc++/4.4.3/libs/armeabi/libgnustl_static.a(eh_call.o)
 .ARM.exidx.text.__cxa_call_unexpected
                0x00015a30        0x8 /Users/Max/android-ndk-r8e/sources/cxx-stl/gnu-libstdc++/4.4.3/libs/armeabi/libgnustl_static.a(eh_call.o)
 .ARM.exidx.text.__cxa_get_exception_ptr
                0x00015a38        0x8 /Users/Max/android-ndk-r8e/sources/cxx-stl/gnu-libstdc++/4.4.3/libs/armeabi/libgnustl_static.a(eh_catch.o)
 .ARM.exidx.text._ZSt18uncaught_exceptionv
                0x00015a40        0x8 /Users/Max/android-ndk-r8e/sources/cxx-stl/gnu-libstdc++/4.4.3/libs/armeabi/libgnustl_static.a(eh_catch.o)
 .ARM.exidx.text.__cxa_end_catch
                0x00015a48        0x8 /Users/Max/android-ndk-r8e/sources/cxx-stl/gnu-libstdc++/4.4.3/libs/armeabi/libgnustl_static.a(eh_catch.o)
 .ARM.exidx.text.__cxa_begin_catch
                0x00015a50        0x8 /Users/Max/android-ndk-r8e/sources/cxx-stl/gnu-libstdc++/4.4.3/libs/armeabi/libgnustl_static.a(eh_catch.o)
 .ARM.exidx.text._ZNSt9exceptionD2Ev
                0x00015a58        0x8 /Users/Max/android-ndk-r8e/sources/cxx-stl/gnu-libstdc++/4.4.3/libs/armeabi/libgnustl_static.a(eh_exception.o)
 .ARM.exidx.text._ZNSt9exceptionD1Ev
                0x00015a60        0x8 /Users/Max/android-ndk-r8e/sources/cxx-stl/gnu-libstdc++/4.4.3/libs/armeabi/libgnustl_static.a(eh_exception.o)
 .ARM.exidx.text._ZNSt13bad_exceptionD2Ev
                0x00015a68        0x8 /Users/Max/android-ndk-r8e/sources/cxx-stl/gnu-libstdc++/4.4.3/libs/armeabi/libgnustl_static.a(eh_exception.o)
 .ARM.exidx.text._ZNSt13bad_exceptionD1Ev
                0x00015a70        0x8 /Users/Max/android-ndk-r8e/sources/cxx-stl/gnu-libstdc++/4.4.3/libs/armeabi/libgnustl_static.a(eh_exception.o)
 .ARM.exidx.text._ZN10__cxxabiv115__forced_unwindD2Ev
                0x00015a78        0x8 /Users/Max/android-ndk-r8e/sources/cxx-stl/gnu-libstdc++/4.4.3/libs/armeabi/libgnustl_static.a(eh_exception.o)
 .ARM.exidx.text._ZN10__cxxabiv115__forced_unwindD1Ev
                0x00015a80        0x8 /Users/Max/android-ndk-r8e/sources/cxx-stl/gnu-libstdc++/4.4.3/libs/armeabi/libgnustl_static.a(eh_exception.o)
 .ARM.exidx.text._ZN10__cxxabiv119__foreign_exceptionD2Ev
                0x00015a88        0x8 /Users/Max/android-ndk-r8e/sources/cxx-stl/gnu-libstdc++/4.4.3/libs/armeabi/libgnustl_static.a(eh_exception.o)
 .ARM.exidx.text._ZN10__cxxabiv119__foreign_exceptionD1Ev
                0x00015a90        0x8 /Users/Max/android-ndk-r8e/sources/cxx-stl/gnu-libstdc++/4.4.3/libs/armeabi/libgnustl_static.a(eh_exception.o)
 .ARM.exidx.text._ZNKSt9exception4whatEv
                0x00015a98        0x8 /Users/Max/android-ndk-r8e/sources/cxx-stl/gnu-libstdc++/4.4.3/libs/armeabi/libgnustl_static.a(eh_exception.o)
 .ARM.exidx.text._ZNKSt13bad_exception4whatEv
                0x00015aa0        0x8 /Users/Max/android-ndk-r8e/sources/cxx-stl/gnu-libstdc++/4.4.3/libs/armeabi/libgnustl_static.a(eh_exception.o)
 .ARM.exidx.text._ZN10__cxxabiv119__foreign_exceptionD0Ev
                0x00015aa8        0x8 /Users/Max/android-ndk-r8e/sources/cxx-stl/gnu-libstdc++/4.4.3/libs/armeabi/libgnustl_static.a(eh_exception.o)
 .ARM.exidx.text._ZN10__cxxabiv115__forced_unwindD0Ev
                0x00015ab0        0x8 /Users/Max/android-ndk-r8e/sources/cxx-stl/gnu-libstdc++/4.4.3/libs/armeabi/libgnustl_static.a(eh_exception.o)
 .ARM.exidx.text._ZNSt9exceptionD0Ev
                0x00015ab8        0x8 /Users/Max/android-ndk-r8e/sources/cxx-stl/gnu-libstdc++/4.4.3/libs/armeabi/libgnustl_static.a(eh_exception.o)
 .ARM.exidx.text._ZNSt13bad_exceptionD0Ev
                0x00015ac0        0x8 /Users/Max/android-ndk-r8e/sources/cxx-stl/gnu-libstdc++/4.4.3/libs/armeabi/libgnustl_static.a(eh_exception.o)
 .ARM.exidx.text._GLOBAL__I_eh_globals.cc
                0x00015ac8        0x8 /Users/Max/android-ndk-r8e/sources/cxx-stl/gnu-libstdc++/4.4.3/libs/armeabi/libgnustl_static.a(eh_globals.o)
 .ARM.exidx.text._ZL15eh_globals_dtorPv
                0x00015ad0        0x8 /Users/Max/android-ndk-r8e/sources/cxx-stl/gnu-libstdc++/4.4.3/libs/armeabi/libgnustl_static.a(eh_globals.o)
 .ARM.exidx.text._ZN17__eh_globals_initD1Ev
                0x00015ad8        0x8 /Users/Max/android-ndk-r8e/sources/cxx-stl/gnu-libstdc++/4.4.3/libs/armeabi/libgnustl_static.a(eh_globals.o)
 .ARM.exidx.text.__cxa_get_globals_fast
                0x00015ae0        0x8 /Users/Max/android-ndk-r8e/sources/cxx-stl/gnu-libstdc++/4.4.3/libs/armeabi/libgnustl_static.a(eh_globals.o)
 .ARM.exidx.text.__cxa_get_globals
                0x00015ae8        0x8 /Users/Max/android-ndk-r8e/sources/cxx-stl/gnu-libstdc++/4.4.3/libs/armeabi/libgnustl_static.a(eh_globals.o)
 .ARM.exidx.text._ZL12read_sleb128PKhPl
                0x00015af0        0x8 /Users/Max/android-ndk-r8e/sources/cxx-stl/gnu-libstdc++/4.4.3/libs/armeabi/libgnustl_static.a(eh_personality.o)
 .ARM.exidx.text._ZL21base_of_encoded_valuehP15_Unwind_Context
                0x00015af8        0x8 /Users/Max/android-ndk-r8e/sources/cxx-stl/gnu-libstdc++/4.4.3/libs/armeabi/libgnustl_static.a(eh_personality.o)
 .ARM.exidx.text._ZL17parse_lsda_headerP15_Unwind_ContextPKhP16lsda_header_info
                0x00015b00        0x8 /Users/Max/android-ndk-r8e/sources/cxx-stl/gnu-libstdc++/4.4.3/libs/armeabi/libgnustl_static.a(eh_personality.o)
 .ARM.exidx.text.__gxx_personality_v0
                0x00015b08        0x8 /Users/Max/android-ndk-r8e/sources/cxx-stl/gnu-libstdc++/4.4.3/libs/armeabi/libgnustl_static.a(eh_personality.o)
 .ARM.exidx.text._ZSt13set_terminatePFvvE
                0x00015b10        0x8 /Users/Max/android-ndk-r8e/sources/cxx-stl/gnu-libstdc++/4.4.3/libs/armeabi/libgnustl_static.a(eh_terminate.o)
 .ARM.exidx.text._ZSt14set_unexpectedPFvvE
                0x00015b18        0x8 /Users/Max/android-ndk-r8e/sources/cxx-stl/gnu-libstdc++/4.4.3/libs/armeabi/libgnustl_static.a(eh_terminate.o)
 .ARM.exidx.text._ZN10__cxxabiv111__terminateEPFvvE
                0x00015b20        0x8 /Users/Max/android-ndk-r8e/sources/cxx-stl/gnu-libstdc++/4.4.3/libs/armeabi/libgnustl_static.a(eh_terminate.o)
 .ARM.exidx.text._ZSt9terminatev
                0x00015b28        0x8 /Users/Max/android-ndk-r8e/sources/cxx-stl/gnu-libstdc++/4.4.3/libs/armeabi/libgnustl_static.a(eh_terminate.o)
 .ARM.exidx.text._ZN10__cxxabiv112__unexpectedEPFvvE
                0x00015b30        0x8 /Users/Max/android-ndk-r8e/sources/cxx-stl/gnu-libstdc++/4.4.3/libs/armeabi/libgnustl_static.a(eh_terminate.o)
 .ARM.exidx.text._ZSt10unexpectedv
                0x00015b38        0x8 /Users/Max/android-ndk-r8e/sources/cxx-stl/gnu-libstdc++/4.4.3/libs/armeabi/libgnustl_static.a(eh_terminate.o)
 .ARM.exidx.text.__cxa_rethrow
                0x00015b40        0x8 /Users/Max/android-ndk-r8e/sources/cxx-stl/gnu-libstdc++/4.4.3/libs/armeabi/libgnustl_static.a(eh_throw.o)
 .ARM.exidx.text.__cxa_throw
                0x00015b48        0x8 /Users/Max/android-ndk-r8e/sources/cxx-stl/gnu-libstdc++/4.4.3/libs/armeabi/libgnustl_static.a(eh_throw.o)
 .ARM.exidx.text._ZL23__gxx_exception_cleanup19_Unwind_Reason_CodeP21_Unwind_Control_Block
                0x00015b50        0x8 /Users/Max/android-ndk-r8e/sources/cxx-stl/gnu-libstdc++/4.4.3/libs/armeabi/libgnustl_static.a(eh_throw.o)
 .ARM.exidx.text._ZN10__cxxabiv123__fundamental_type_infoD1Ev
                0x00015b58        0x8 /Users/Max/android-ndk-r8e/sources/cxx-stl/gnu-libstdc++/4.4.3/libs/armeabi/libgnustl_static.a(fundamental_type_info.o)
 .ARM.exidx.text._ZN10__cxxabiv123__fundamental_type_infoD0Ev
                0x00015b60        0x8 /Users/Max/android-ndk-r8e/sources/cxx-stl/gnu-libstdc++/4.4.3/libs/armeabi/libgnustl_static.a(fundamental_type_info.o)
 .ARM.exidx.text._ZN10__cxxabiv123__fundamental_type_infoD2Ev
                0x00015b68        0x8 /Users/Max/android-ndk-r8e/sources/cxx-stl/gnu-libstdc++/4.4.3/libs/armeabi/libgnustl_static.a(fundamental_type_info.o)
 .ARM.exidx.text._ZNK9__gnu_cxx29__concurrence_broadcast_error4whatEv
                0x00015b70        0x8 /Users/Max/android-ndk-r8e/sources/cxx-stl/gnu-libstdc++/4.4.3/libs/armeabi/libgnustl_static.a(guard.o)
 .ARM.exidx.text._ZNK9__gnu_cxx24__concurrence_wait_error4whatEv
                0x00015b78        0x8 /Users/Max/android-ndk-r8e/sources/cxx-stl/gnu-libstdc++/4.4.3/libs/armeabi/libgnustl_static.a(guard.o)
 .ARM.exidx.text._ZN12_GLOBAL__N_1L4initEv
                0x00015b80        0x8 /Users/Max/android-ndk-r8e/sources/cxx-stl/gnu-libstdc++/4.4.3/libs/armeabi/libgnustl_static.a(guard.o)
 .ARM.exidx.text._ZN12_GLOBAL__N_1L16init_static_condEv
                0x00015b88        0x8 /Users/Max/android-ndk-r8e/sources/cxx-stl/gnu-libstdc++/4.4.3/libs/armeabi/libgnustl_static.a(guard.o)
 .ARM.exidx.text._ZN9__gnu_cxx29__concurrence_broadcast_errorD1Ev
                0x00015b90        0x8 /Users/Max/android-ndk-r8e/sources/cxx-stl/gnu-libstdc++/4.4.3/libs/armeabi/libgnustl_static.a(guard.o)
 .ARM.exidx.text._ZN9__gnu_cxx24__concurrence_wait_errorD1Ev
                0x00015b98        0x8 /Users/Max/android-ndk-r8e/sources/cxx-stl/gnu-libstdc++/4.4.3/libs/armeabi/libgnustl_static.a(guard.o)
 .ARM.exidx.text._ZN9__gnu_cxx20recursive_init_errorD1Ev
                0x00015ba0        0x8 /Users/Max/android-ndk-r8e/sources/cxx-stl/gnu-libstdc++/4.4.3/libs/armeabi/libgnustl_static.a(guard.o)
 .ARM.exidx.text._ZN9__gnu_cxx20recursive_init_errorD0Ev
                0x00015ba8        0x8 /Users/Max/android-ndk-r8e/sources/cxx-stl/gnu-libstdc++/4.4.3/libs/armeabi/libgnustl_static.a(guard.o)
 .ARM.exidx.text._ZN9__gnu_cxx20recursive_init_errorD2Ev
                0x00015bb0        0x8 /Users/Max/android-ndk-r8e/sources/cxx-stl/gnu-libstdc++/4.4.3/libs/armeabi/libgnustl_static.a(guard.o)
 .ARM.exidx.text._ZN12_GLOBAL__N_113mutex_wrapperD1Ev
                0x00015bb8        0x8 /Users/Max/android-ndk-r8e/sources/cxx-stl/gnu-libstdc++/4.4.3/libs/armeabi/libgnustl_static.a(guard.o)
 .ARM.exidx.text._ZN9__gnu_cxx29__concurrence_broadcast_errorD0Ev
                0x00015bc0        0x8 /Users/Max/android-ndk-r8e/sources/cxx-stl/gnu-libstdc++/4.4.3/libs/armeabi/libgnustl_static.a(guard.o)
 .ARM.exidx.text._ZN9__gnu_cxx24__concurrence_wait_errorD0Ev
                0x00015bc8        0x8 /Users/Max/android-ndk-r8e/sources/cxx-stl/gnu-libstdc++/4.4.3/libs/armeabi/libgnustl_static.a(guard.o)
 .ARM.exidx.text.__cxa_guard_abort
                0x00015bd0        0x8 /Users/Max/android-ndk-r8e/sources/cxx-stl/gnu-libstdc++/4.4.3/libs/armeabi/libgnustl_static.a(guard.o)
 .ARM.exidx.text.__cxa_guard_release
                0x00015bd8        0x8 /Users/Max/android-ndk-r8e/sources/cxx-stl/gnu-libstdc++/4.4.3/libs/armeabi/libgnustl_static.a(guard.o)
 .ARM.exidx.text.__cxa_guard_acquire
                0x00015be0        0x8 /Users/Max/android-ndk-r8e/sources/cxx-stl/gnu-libstdc++/4.4.3/libs/armeabi/libgnustl_static.a(guard.o)
 .ARM.exidx.text._Znwj
                0x00015be8        0x8 /Users/Max/android-ndk-r8e/sources/cxx-stl/gnu-libstdc++/4.4.3/libs/armeabi/libgnustl_static.a(new_op.o)
 .ARM.exidx.text._ZNK10__cxxabiv119__pointer_type_info14__is_pointer_pEv
                0x00015bf0        0x8 /Users/Max/android-ndk-r8e/sources/cxx-stl/gnu-libstdc++/4.4.3/libs/armeabi/libgnustl_static.a(pointer_type_info.o)
 .ARM.exidx.text._ZNK10__cxxabiv119__pointer_type_info15__pointer_catchEPKNS_17__pbase_type_infoEPPvj
                0x00015bf8        0x8 /Users/Max/android-ndk-r8e/sources/cxx-stl/gnu-libstdc++/4.4.3/libs/armeabi/libgnustl_static.a(pointer_type_info.o)
 .ARM.exidx.text._ZN10__cxxabiv119__pointer_type_infoD1Ev
                0x00015c00        0x8 /Users/Max/android-ndk-r8e/sources/cxx-stl/gnu-libstdc++/4.4.3/libs/armeabi/libgnustl_static.a(pointer_type_info.o)
 .ARM.exidx.text._ZN10__cxxabiv119__pointer_type_infoD0Ev
                0x00015c08        0x8 /Users/Max/android-ndk-r8e/sources/cxx-stl/gnu-libstdc++/4.4.3/libs/armeabi/libgnustl_static.a(pointer_type_info.o)
 .ARM.exidx.text._ZN10__cxxabiv119__pointer_type_infoD2Ev
                0x00015c10        0x8 /Users/Max/android-ndk-r8e/sources/cxx-stl/gnu-libstdc++/4.4.3/libs/armeabi/libgnustl_static.a(pointer_type_info.o)
 .ARM.exidx.text.__cxa_pure_virtual
                0x00015c18        0x8 /Users/Max/android-ndk-r8e/sources/cxx-stl/gnu-libstdc++/4.4.3/libs/armeabi/libgnustl_static.a(pure.o)
 .ARM.exidx.text._ZNK10__cxxabiv120__si_class_type_info11__do_upcastEPKNS_17__class_type_infoEPKvRNS1_15__upcast_resultE
                0x00015c20        0x8 /Users/Max/android-ndk-r8e/sources/cxx-stl/gnu-libstdc++/4.4.3/libs/armeabi/libgnustl_static.a(si_class_type_info.o)
 .ARM.exidx.text._ZNK10__cxxabiv120__si_class_type_info12__do_dyncastEiNS_17__class_type_info10__sub_kindEPKS1_PKvS4_S6_RNS1_16__dyncast_resultE
                0x00015c28        0x8 /Users/Max/android-ndk-r8e/sources/cxx-stl/gnu-libstdc++/4.4.3/libs/armeabi/libgnustl_static.a(si_class_type_info.o)
 .ARM.exidx.text._ZNK10__cxxabiv120__si_class_type_info20__do_find_public_srcEiPKvPKNS_17__class_type_infoES2_
                0x00015c30        0x8 /Users/Max/android-ndk-r8e/sources/cxx-stl/gnu-libstdc++/4.4.3/libs/armeabi/libgnustl_static.a(si_class_type_info.o)
 .ARM.exidx.text._ZN10__cxxabiv120__si_class_type_infoD1Ev
                0x00015c38        0x8 /Users/Max/android-ndk-r8e/sources/cxx-stl/gnu-libstdc++/4.4.3/libs/armeabi/libgnustl_static.a(si_class_type_info.o)
 .ARM.exidx.text._ZN10__cxxabiv120__si_class_type_infoD0Ev
                0x00015c40        0x8 /Users/Max/android-ndk-r8e/sources/cxx-stl/gnu-libstdc++/4.4.3/libs/armeabi/libgnustl_static.a(si_class_type_info.o)
 .ARM.exidx.text._ZN10__cxxabiv120__si_class_type_infoD2Ev
                0x00015c48        0x8 /Users/Max/android-ndk-r8e/sources/cxx-stl/gnu-libstdc++/4.4.3/libs/armeabi/libgnustl_static.a(si_class_type_info.o)
 .ARM.exidx.text._ZNSt9type_infoD2Ev
                0x00015c50        0x8 /Users/Max/android-ndk-r8e/sources/cxx-stl/gnu-libstdc++/4.4.3/libs/armeabi/libgnustl_static.a(tinfo.o)
 .ARM.exidx.text._ZNSt9type_infoD1Ev
                0x00015c58        0x8 /Users/Max/android-ndk-r8e/sources/cxx-stl/gnu-libstdc++/4.4.3/libs/armeabi/libgnustl_static.a(tinfo.o)
 .ARM.exidx.text._ZNKSt9type_info14__is_pointer_pEv
                0x00015c60        0x8 /Users/Max/android-ndk-r8e/sources/cxx-stl/gnu-libstdc++/4.4.3/libs/armeabi/libgnustl_static.a(tinfo.o)
 .ARM.exidx.text._ZNKSt9type_info15__is_function_pEv
                0x00015c68        0x8 /Users/Max/android-ndk-r8e/sources/cxx-stl/gnu-libstdc++/4.4.3/libs/armeabi/libgnustl_static.a(tinfo.o)
 .ARM.exidx.text._ZNKSt9type_info11__do_upcastEPKN10__cxxabiv117__class_type_infoEPPv
                0x00015c70        0x8 /Users/Max/android-ndk-r8e/sources/cxx-stl/gnu-libstdc++/4.4.3/libs/armeabi/libgnustl_static.a(tinfo.o)
 .ARM.exidx.text._ZNKSt9type_infoeqERKS_
                0x00015c78        0x8 /Users/Max/android-ndk-r8e/sources/cxx-stl/gnu-libstdc++/4.4.3/libs/armeabi/libgnustl_static.a(tinfo.o)
 .ARM.exidx.text._ZNKSt9type_info10__do_catchEPKS_PPvj
                0x00015c80        0x8 /Users/Max/android-ndk-r8e/sources/cxx-stl/gnu-libstdc++/4.4.3/libs/armeabi/libgnustl_static.a(tinfo.o)
 .ARM.exidx.text._ZNSt9type_infoD0Ev
                0x00015c88        0x8 /Users/Max/android-ndk-r8e/sources/cxx-stl/gnu-libstdc++/4.4.3/libs/armeabi/libgnustl_static.a(tinfo.o)
 .ARM.exidx.text._ZSt18__throw_bad_typeidv
                0x00015c90        0x8 /Users/Max/android-ndk-r8e/sources/cxx-stl/gnu-libstdc++/4.4.3/libs/armeabi/libgnustl_static.a(functexcept.o)
 .ARM.exidx.text._ZSt16__throw_bad_castv
                0x00015c98        0x8 /Users/Max/android-ndk-r8e/sources/cxx-stl/gnu-libstdc++/4.4.3/libs/armeabi/libgnustl_static.a(functexcept.o)
 .ARM.exidx.text._ZSt17__throw_bad_allocv
                0x00015ca0        0x8 /Users/Max/android-ndk-r8e/sources/cxx-stl/gnu-libstdc++/4.4.3/libs/armeabi/libgnustl_static.a(functexcept.o)
 .ARM.exidx.text._ZSt21__throw_bad_exceptionv
                0x00015ca8        0x8 /Users/Max/android-ndk-r8e/sources/cxx-stl/gnu-libstdc++/4.4.3/libs/armeabi/libgnustl_static.a(functexcept.o)
 .ARM.exidx.text._ZNSt15underflow_errorD1Ev
                0x00015cb0        0x8 /Users/Max/android-ndk-r8e/sources/cxx-stl/gnu-libstdc++/4.4.3/libs/armeabi/libgnustl_static.a(functexcept.o)
 .ARM.exidx.text._ZNSt14overflow_errorD1Ev
                0x00015cb8        0x8 /Users/Max/android-ndk-r8e/sources/cxx-stl/gnu-libstdc++/4.4.3/libs/armeabi/libgnustl_static.a(functexcept.o)
 .ARM.exidx.text._ZNSt11range_errorD1Ev
                0x00015cc0        0x8 /Users/Max/android-ndk-r8e/sources/cxx-stl/gnu-libstdc++/4.4.3/libs/armeabi/libgnustl_static.a(functexcept.o)
 .ARM.exidx.text._ZNSt12out_of_rangeD1Ev
                0x00015cc8        0x8 /Users/Max/android-ndk-r8e/sources/cxx-stl/gnu-libstdc++/4.4.3/libs/armeabi/libgnustl_static.a(functexcept.o)
 .ARM.exidx.text._ZNSt12length_errorD1Ev
                0x00015cd0        0x8 /Users/Max/android-ndk-r8e/sources/cxx-stl/gnu-libstdc++/4.4.3/libs/armeabi/libgnustl_static.a(functexcept.o)
 .ARM.exidx.text._ZNSt16invalid_argumentD1Ev
                0x00015cd8        0x8 /Users/Max/android-ndk-r8e/sources/cxx-stl/gnu-libstdc++/4.4.3/libs/armeabi/libgnustl_static.a(functexcept.o)
 .ARM.exidx.text._ZNSt12domain_errorD1Ev
                0x00015ce0        0x8 /Users/Max/android-ndk-r8e/sources/cxx-stl/gnu-libstdc++/4.4.3/libs/armeabi/libgnustl_static.a(functexcept.o)
 .ARM.exidx.text._ZNSt15underflow_errorD0Ev
                0x00015ce8        0x8 /Users/Max/android-ndk-r8e/sources/cxx-stl/gnu-libstdc++/4.4.3/libs/armeabi/libgnustl_static.a(functexcept.o)
 .ARM.exidx.text._ZNSt12domain_errorD0Ev
                0x00015cf0        0x8 /Users/Max/android-ndk-r8e/sources/cxx-stl/gnu-libstdc++/4.4.3/libs/armeabi/libgnustl_static.a(functexcept.o)
 .ARM.exidx.text._ZNSt16invalid_argumentD0Ev
                0x00015cf8        0x8 /Users/Max/android-ndk-r8e/sources/cxx-stl/gnu-libstdc++/4.4.3/libs/armeabi/libgnustl_static.a(functexcept.o)
 .ARM.exidx.text._ZNSt12length_errorD0Ev
                0x00015d00        0x8 /Users/Max/android-ndk-r8e/sources/cxx-stl/gnu-libstdc++/4.4.3/libs/armeabi/libgnustl_static.a(functexcept.o)
 .ARM.exidx.text._ZNSt12out_of_rangeD0Ev
                0x00015d08        0x8 /Users/Max/android-ndk-r8e/sources/cxx-stl/gnu-libstdc++/4.4.3/libs/armeabi/libgnustl_static.a(functexcept.o)
 .ARM.exidx.text._ZNSt11range_errorD0Ev
                0x00015d10        0x8 /Users/Max/android-ndk-r8e/sources/cxx-stl/gnu-libstdc++/4.4.3/libs/armeabi/libgnustl_static.a(functexcept.o)
 .ARM.exidx.text._ZNSt14overflow_errorD0Ev
                0x00015d18        0x8 /Users/Max/android-ndk-r8e/sources/cxx-stl/gnu-libstdc++/4.4.3/libs/armeabi/libgnustl_static.a(functexcept.o)
 .ARM.exidx.text._ZSt19__throw_ios_failurePKc
                0x00015d20        0x8 /Users/Max/android-ndk-r8e/sources/cxx-stl/gnu-libstdc++/4.4.3/libs/armeabi/libgnustl_static.a(functexcept.o)
 .ARM.exidx.text._ZSt20__throw_system_errori
                0x00015d28        0x8 /Users/Max/android-ndk-r8e/sources/cxx-stl/gnu-libstdc++/4.4.3/libs/armeabi/libgnustl_static.a(functexcept.o)
 .ARM.exidx.text._ZSt20__throw_domain_errorPKc
                0x00015d30        0x8 /Users/Max/android-ndk-r8e/sources/cxx-stl/gnu-libstdc++/4.4.3/libs/armeabi/libgnustl_static.a(functexcept.o)
 .ARM.exidx.text._ZSt24__throw_invalid_argumentPKc
                0x00015d38        0x8 /Users/Max/android-ndk-r8e/sources/cxx-stl/gnu-libstdc++/4.4.3/libs/armeabi/libgnustl_static.a(functexcept.o)
 .ARM.exidx.text._ZSt20__throw_length_errorPKc
                0x00015d40        0x8 /Users/Max/android-ndk-r8e/sources/cxx-stl/gnu-libstdc++/4.4.3/libs/armeabi/libgnustl_static.a(functexcept.o)
 .ARM.exidx.text._ZSt21__throw_runtime_errorPKc
                0x00015d48        0x8 /Users/Max/android-ndk-r8e/sources/cxx-stl/gnu-libstdc++/4.4.3/libs/armeabi/libgnustl_static.a(functexcept.o)
 .ARM.exidx.text._ZSt23__throw_underflow_errorPKc
                0x00015d50        0x8 /Users/Max/android-ndk-r8e/sources/cxx-stl/gnu-libstdc++/4.4.3/libs/armeabi/libgnustl_static.a(functexcept.o)
 .ARM.exidx.text._ZSt19__throw_logic_errorPKc
                0x00015d58        0x8 /Users/Max/android-ndk-r8e/sources/cxx-stl/gnu-libstdc++/4.4.3/libs/armeabi/libgnustl_static.a(functexcept.o)
 .ARM.exidx.text._ZSt20__throw_out_of_rangePKc
                0x00015d60        0x8 /Users/Max/android-ndk-r8e/sources/cxx-stl/gnu-libstdc++/4.4.3/libs/armeabi/libgnustl_static.a(functexcept.o)
 .ARM.exidx.text._ZSt22__throw_overflow_errorPKc
                0x00015d68        0x8 /Users/Max/android-ndk-r8e/sources/cxx-stl/gnu-libstdc++/4.4.3/libs/armeabi/libgnustl_static.a(functexcept.o)
 .ARM.exidx.text._ZSt19__throw_range_errorPKc
                0x00015d70        0x8 /Users/Max/android-ndk-r8e/sources/cxx-stl/gnu-libstdc++/4.4.3/libs/armeabi/libgnustl_static.a(functexcept.o)
 .ARM.exidx.text._ZNKSt8ios_base7failure4whatEv
                0x00015d78        0x8 /Users/Max/android-ndk-r8e/sources/cxx-stl/gnu-libstdc++/4.4.3/libs/armeabi/libgnustl_static.a(ios_failure.o)
 .ARM.exidx.text._ZNSt8ios_base7failureD1Ev
                0x00015d80        0x8 /Users/Max/android-ndk-r8e/sources/cxx-stl/gnu-libstdc++/4.4.3/libs/armeabi/libgnustl_static.a(ios_failure.o)
 .ARM.exidx.text._ZNSt8ios_base7failureD0Ev
                0x00015d88        0x8 /Users/Max/android-ndk-r8e/sources/cxx-stl/gnu-libstdc++/4.4.3/libs/armeabi/libgnustl_static.a(ios_failure.o)
 .ARM.exidx.text._ZNSt8ios_base7failureC1ERKSs
                0x00015d90        0x8 /Users/Max/android-ndk-r8e/sources/cxx-stl/gnu-libstdc++/4.4.3/libs/armeabi/libgnustl_static.a(ios_failure.o)
 .ARM.exidx.text._ZNSt8ios_base7failureC2ERKSs
                0x00015d98        0x8 /Users/Max/android-ndk-r8e/sources/cxx-stl/gnu-libstdc++/4.4.3/libs/armeabi/libgnustl_static.a(ios_failure.o)
 .ARM.exidx.text._ZNSt8ios_base7failureD2Ev
                0x00015da0        0x8 /Users/Max/android-ndk-r8e/sources/cxx-stl/gnu-libstdc++/4.4.3/libs/armeabi/libgnustl_static.a(ios_failure.o)
 .ARM.exidx.text._ZNKSt11logic_error4whatEv
                0x00015da8        0x8 /Users/Max/android-ndk-r8e/sources/cxx-stl/gnu-libstdc++/4.4.3/libs/armeabi/libgnustl_static.a(stdexcept.o)
 .ARM.exidx.text._ZNKSt13runtime_error4whatEv
                0x00015db0        0x8 /Users/Max/android-ndk-r8e/sources/cxx-stl/gnu-libstdc++/4.4.3/libs/armeabi/libgnustl_static.a(stdexcept.o)
 .ARM.exidx.text._ZNSt13runtime_errorC1ERKSs
                0x00015db8        0x8 /Users/Max/android-ndk-r8e/sources/cxx-stl/gnu-libstdc++/4.4.3/libs/armeabi/libgnustl_static.a(stdexcept.o)
 .ARM.exidx.text._ZNSt13runtime_errorC2ERKSs
                0x00015dc0        0x8 /Users/Max/android-ndk-r8e/sources/cxx-stl/gnu-libstdc++/4.4.3/libs/armeabi/libgnustl_static.a(stdexcept.o)
 .ARM.exidx.text._ZNSt15underflow_errorC1ERKSs
                0x00015dc8        0x8 /Users/Max/android-ndk-r8e/sources/cxx-stl/gnu-libstdc++/4.4.3/libs/armeabi/libgnustl_static.a(stdexcept.o)
 .ARM.exidx.text._ZNSt15underflow_errorC2ERKSs
                0x00015dd0        0x8 /Users/Max/android-ndk-r8e/sources/cxx-stl/gnu-libstdc++/4.4.3/libs/armeabi/libgnustl_static.a(stdexcept.o)
 .ARM.exidx.text._ZNSt14overflow_errorC1ERKSs
                0x00015dd8        0x8 /Users/Max/android-ndk-r8e/sources/cxx-stl/gnu-libstdc++/4.4.3/libs/armeabi/libgnustl_static.a(stdexcept.o)
 .ARM.exidx.text._ZNSt14overflow_errorC2ERKSs
                0x00015de0        0x8 /Users/Max/android-ndk-r8e/sources/cxx-stl/gnu-libstdc++/4.4.3/libs/armeabi/libgnustl_static.a(stdexcept.o)
 .ARM.exidx.text._ZNSt11range_errorC1ERKSs
                0x00015de8        0x8 /Users/Max/android-ndk-r8e/sources/cxx-stl/gnu-libstdc++/4.4.3/libs/armeabi/libgnustl_static.a(stdexcept.o)
 .ARM.exidx.text._ZNSt11range_errorC2ERKSs
                0x00015df0        0x8 /Users/Max/android-ndk-r8e/sources/cxx-stl/gnu-libstdc++/4.4.3/libs/armeabi/libgnustl_static.a(stdexcept.o)
 .ARM.exidx.text._ZNSt11logic_errorC1ERKSs
                0x00015df8        0x8 /Users/Max/android-ndk-r8e/sources/cxx-stl/gnu-libstdc++/4.4.3/libs/armeabi/libgnustl_static.a(stdexcept.o)
 .ARM.exidx.text._ZNSt11logic_errorC2ERKSs
                0x00015e00        0x8 /Users/Max/android-ndk-r8e/sources/cxx-stl/gnu-libstdc++/4.4.3/libs/armeabi/libgnustl_static.a(stdexcept.o)
 .ARM.exidx.text._ZNSt12out_of_rangeC1ERKSs
                0x00015e08        0x8 /Users/Max/android-ndk-r8e/sources/cxx-stl/gnu-libstdc++/4.4.3/libs/armeabi/libgnustl_static.a(stdexcept.o)
 .ARM.exidx.text._ZNSt12out_of_rangeC2ERKSs
                0x00015e10        0x8 /Users/Max/android-ndk-r8e/sources/cxx-stl/gnu-libstdc++/4.4.3/libs/armeabi/libgnustl_static.a(stdexcept.o)
 .ARM.exidx.text._ZNSt12length_errorC1ERKSs
                0x00015e18        0x8 /Users/Max/android-ndk-r8e/sources/cxx-stl/gnu-libstdc++/4.4.3/libs/armeabi/libgnustl_static.a(stdexcept.o)
 .ARM.exidx.text._ZNSt12length_errorC2ERKSs
                0x00015e20        0x8 /Users/Max/android-ndk-r8e/sources/cxx-stl/gnu-libstdc++/4.4.3/libs/armeabi/libgnustl_static.a(stdexcept.o)
 .ARM.exidx.text._ZNSt16invalid_argumentC1ERKSs
                0x00015e28        0x8 /Users/Max/android-ndk-r8e/sources/cxx-stl/gnu-libstdc++/4.4.3/libs/armeabi/libgnustl_static.a(stdexcept.o)
 .ARM.exidx.text._ZNSt16invalid_argumentC2ERKSs
                0x00015e30        0x8 /Users/Max/android-ndk-r8e/sources/cxx-stl/gnu-libstdc++/4.4.3/libs/armeabi/libgnustl_static.a(stdexcept.o)
 .ARM.exidx.text._ZNSt12domain_errorC1ERKSs
                0x00015e38        0x8 /Users/Max/android-ndk-r8e/sources/cxx-stl/gnu-libstdc++/4.4.3/libs/armeabi/libgnustl_static.a(stdexcept.o)
 .ARM.exidx.text._ZNSt12domain_errorC2ERKSs
                0x00015e40        0x8 /Users/Max/android-ndk-r8e/sources/cxx-stl/gnu-libstdc++/4.4.3/libs/armeabi/libgnustl_static.a(stdexcept.o)
 .ARM.exidx.text._ZNSt13runtime_errorD2Ev
                0x00015e48        0x8 /Users/Max/android-ndk-r8e/sources/cxx-stl/gnu-libstdc++/4.4.3/libs/armeabi/libgnustl_static.a(stdexcept.o)
 .ARM.exidx.text._ZNSt11logic_errorD1Ev
                0x00015e50        0x8 /Users/Max/android-ndk-r8e/sources/cxx-stl/gnu-libstdc++/4.4.3/libs/armeabi/libgnustl_static.a(stdexcept.o)
 .ARM.exidx.text._ZNSt11logic_errorD0Ev
                0x00015e58        0x8 /Users/Max/android-ndk-r8e/sources/cxx-stl/gnu-libstdc++/4.4.3/libs/armeabi/libgnustl_static.a(stdexcept.o)
 .ARM.exidx.text._ZNSt13runtime_errorD1Ev
                0x00015e60        0x8 /Users/Max/android-ndk-r8e/sources/cxx-stl/gnu-libstdc++/4.4.3/libs/armeabi/libgnustl_static.a(stdexcept.o)
 .ARM.exidx.text._ZNSt13runtime_errorD0Ev
                0x00015e68        0x8 /Users/Max/android-ndk-r8e/sources/cxx-stl/gnu-libstdc++/4.4.3/libs/armeabi/libgnustl_static.a(stdexcept.o)
 .ARM.exidx.text._ZNSt11logic_errorD2Ev
                0x00015e70        0x8 /Users/Max/android-ndk-r8e/sources/cxx-stl/gnu-libstdc++/4.4.3/libs/armeabi/libgnustl_static.a(stdexcept.o)
 .ARM.exidx.text._ZNSt14error_categoryD1Ev
                0x00015e78        0x8 /Users/Max/android-ndk-r8e/sources/cxx-stl/gnu-libstdc++/4.4.3/libs/armeabi/libgnustl_static.a(system_error.o)
 .ARM.exidx.text._ZNK12_GLOBAL__N_122generic_error_category4nameEv
                0x00015e80        0x8 /Users/Max/android-ndk-r8e/sources/cxx-stl/gnu-libstdc++/4.4.3/libs/armeabi/libgnustl_static.a(system_error.o)
 .ARM.exidx.text._ZNK12_GLOBAL__N_121system_error_category4nameEv
                0x00015e88        0x8 /Users/Max/android-ndk-r8e/sources/cxx-stl/gnu-libstdc++/4.4.3/libs/armeabi/libgnustl_static.a(system_error.o)
 .ARM.exidx.text._ZSt15system_categoryv
                0x00015e90        0x8 /Users/Max/android-ndk-r8e/sources/cxx-stl/gnu-libstdc++/4.4.3/libs/armeabi/libgnustl_static.a(system_error.o)
 .ARM.exidx.text._ZSt16generic_categoryv
                0x00015e98        0x8 /Users/Max/android-ndk-r8e/sources/cxx-stl/gnu-libstdc++/4.4.3/libs/armeabi/libgnustl_static.a(system_error.o)
 .ARM.exidx.text._ZNKSt14error_category23default_error_conditionEi
                0x00015ea0        0x8 /Users/Max/android-ndk-r8e/sources/cxx-stl/gnu-libstdc++/4.4.3/libs/armeabi/libgnustl_static.a(system_error.o)
 .ARM.exidx.text._ZNKSt14error_category10equivalentEiRKSt15error_condition
                0x00015ea8        0x8 /Users/Max/android-ndk-r8e/sources/cxx-stl/gnu-libstdc++/4.4.3/libs/armeabi/libgnustl_static.a(system_error.o)
 .ARM.exidx.text._ZNKSt14error_category10equivalentERKSt10error_codei
                0x00015eb0        0x8 /Users/Max/android-ndk-r8e/sources/cxx-stl/gnu-libstdc++/4.4.3/libs/armeabi/libgnustl_static.a(system_error.o)
 .ARM.exidx.text._ZNKSt10error_code23default_error_conditionEv
                0x00015eb8        0x8 /Users/Max/android-ndk-r8e/sources/cxx-stl/gnu-libstdc++/4.4.3/libs/armeabi/libgnustl_static.a(system_error.o)
 .ARM.exidx.text._ZN12_GLOBAL__N_122generic_error_categoryD1Ev
                0x00015ec0        0x8 /Users/Max/android-ndk-r8e/sources/cxx-stl/gnu-libstdc++/4.4.3/libs/armeabi/libgnustl_static.a(system_error.o)
 .ARM.exidx.text._ZN12_GLOBAL__N_121system_error_categoryD1Ev
                0x00015ec8        0x8 /Users/Max/android-ndk-r8e/sources/cxx-stl/gnu-libstdc++/4.4.3/libs/armeabi/libgnustl_static.a(system_error.o)
 .ARM.exidx.text._ZNSt14error_categoryD0Ev
                0x00015ed0        0x8 /Users/Max/android-ndk-r8e/sources/cxx-stl/gnu-libstdc++/4.4.3/libs/armeabi/libgnustl_static.a(system_error.o)
 .ARM.exidx.text._ZN12_GLOBAL__N_121system_error_categoryD0Ev
                0x00015ed8        0x8 /Users/Max/android-ndk-r8e/sources/cxx-stl/gnu-libstdc++/4.4.3/libs/armeabi/libgnustl_static.a(system_error.o)
 .ARM.exidx.text._ZN12_GLOBAL__N_122generic_error_categoryD0Ev
                0x00015ee0        0x8 /Users/Max/android-ndk-r8e/sources/cxx-stl/gnu-libstdc++/4.4.3/libs/armeabi/libgnustl_static.a(system_error.o)
 .ARM.exidx.text._GLOBAL__I_system_error.cc
                0x00015ee8        0x8 /Users/Max/android-ndk-r8e/sources/cxx-stl/gnu-libstdc++/4.4.3/libs/armeabi/libgnustl_static.a(system_error.o)
 .ARM.exidx.text._ZNK12_GLOBAL__N_122generic_error_category7messageEi
                0x00015ef0        0x8 /Users/Max/android-ndk-r8e/sources/cxx-stl/gnu-libstdc++/4.4.3/libs/armeabi/libgnustl_static.a(system_error.o)
 .ARM.exidx.text._ZNK12_GLOBAL__N_121system_error_category7messageEi
                0x00015ef8        0x8 /Users/Max/android-ndk-r8e/sources/cxx-stl/gnu-libstdc++/4.4.3/libs/armeabi/libgnustl_static.a(system_error.o)
 .ARM.exidx.text._ZNSt12system_errorD1Ev
                0x00015f00        0x8 /Users/Max/android-ndk-r8e/sources/cxx-stl/gnu-libstdc++/4.4.3/libs/armeabi/libgnustl_static.a(system_error.o)
 .ARM.exidx.text._ZNSt12system_errorD0Ev
                0x00015f08        0x8 /Users/Max/android-ndk-r8e/sources/cxx-stl/gnu-libstdc++/4.4.3/libs/armeabi/libgnustl_static.a(system_error.o)
 .ARM.exidx.text._ZNSt12system_errorD2Ev
                0x00015f10        0x8 /Users/Max/android-ndk-r8e/sources/cxx-stl/gnu-libstdc++/4.4.3/libs/armeabi/libgnustl_static.a(system_error.o)
 .ARM.exidx.text._ZNKSt8bad_cast4whatEv
                0x00015f18        0x8 /Users/Max/android-ndk-r8e/sources/cxx-stl/gnu-libstdc++/4.4.3/libs/armeabi/libgnustl_static.a(bad_cast.o)
 .ARM.exidx.text._ZNSt8bad_castD1Ev
                0x00015f20        0x8 /Users/Max/android-ndk-r8e/sources/cxx-stl/gnu-libstdc++/4.4.3/libs/armeabi/libgnustl_static.a(bad_cast.o)
 .ARM.exidx.text._ZNSt8bad_castD0Ev
                0x00015f28        0x8 /Users/Max/android-ndk-r8e/sources/cxx-stl/gnu-libstdc++/4.4.3/libs/armeabi/libgnustl_static.a(bad_cast.o)
 .ARM.exidx.text._ZNSt8bad_castD2Ev
                0x00015f30        0x8 /Users/Max/android-ndk-r8e/sources/cxx-stl/gnu-libstdc++/4.4.3/libs/armeabi/libgnustl_static.a(bad_cast.o)
 .ARM.exidx.text._ZNKSt10bad_typeid4whatEv
                0x00015f38        0x8 /Users/Max/android-ndk-r8e/sources/cxx-stl/gnu-libstdc++/4.4.3/libs/armeabi/libgnustl_static.a(bad_typeid.o)
 .ARM.exidx.text._ZNSt10bad_typeidD1Ev
                0x00015f40        0x8 /Users/Max/android-ndk-r8e/sources/cxx-stl/gnu-libstdc++/4.4.3/libs/armeabi/libgnustl_static.a(bad_typeid.o)
 .ARM.exidx.text._ZNSt10bad_typeidD0Ev
                0x00015f48        0x8 /Users/Max/android-ndk-r8e/sources/cxx-stl/gnu-libstdc++/4.4.3/libs/armeabi/libgnustl_static.a(bad_typeid.o)
 .ARM.exidx.text._ZNSt10bad_typeidD2Ev
                0x00015f50        0x8 /Users/Max/android-ndk-r8e/sources/cxx-stl/gnu-libstdc++/4.4.3/libs/armeabi/libgnustl_static.a(bad_typeid.o)
 .ARM.exidx.text._ZNK10__cxxabiv117__class_type_info11__do_upcastEPKS0_PPv
                0x00015f58        0x8 /Users/Max/android-ndk-r8e/sources/cxx-stl/gnu-libstdc++/4.4.3/libs/armeabi/libgnustl_static.a(class_type_info.o)
 .ARM.exidx.text._ZNK10__cxxabiv117__class_type_info20__do_find_public_srcEiPKvPKS0_S2_
                0x00015f60        0x8 /Users/Max/android-ndk-r8e/sources/cxx-stl/gnu-libstdc++/4.4.3/libs/armeabi/libgnustl_static.a(class_type_info.o)
 .ARM.exidx.text._ZNK10__cxxabiv117__class_type_info11__do_upcastEPKS0_PKvRNS0_15__upcast_resultE
                0x00015f68        0x8 /Users/Max/android-ndk-r8e/sources/cxx-stl/gnu-libstdc++/4.4.3/libs/armeabi/libgnustl_static.a(class_type_info.o)
 .ARM.exidx.text._ZNK10__cxxabiv117__class_type_info12__do_dyncastEiNS0_10__sub_kindEPKS0_PKvS3_S5_RNS0_16__dyncast_resultE
                0x00015f70        0x8 /Users/Max/android-ndk-r8e/sources/cxx-stl/gnu-libstdc++/4.4.3/libs/armeabi/libgnustl_static.a(class_type_info.o)
 .ARM.exidx.text._ZNK10__cxxabiv117__class_type_info10__do_catchEPKSt9type_infoPPvj
                0x00015f78        0x8 /Users/Max/android-ndk-r8e/sources/cxx-stl/gnu-libstdc++/4.4.3/libs/armeabi/libgnustl_static.a(class_type_info.o)
 .ARM.exidx.text._ZN10__cxxabiv117__class_type_infoD1Ev
                0x00015f80        0x8 /Users/Max/android-ndk-r8e/sources/cxx-stl/gnu-libstdc++/4.4.3/libs/armeabi/libgnustl_static.a(class_type_info.o)
 .ARM.exidx.text._ZN10__cxxabiv117__class_type_infoD0Ev
                0x00015f88        0x8 /Users/Max/android-ndk-r8e/sources/cxx-stl/gnu-libstdc++/4.4.3/libs/armeabi/libgnustl_static.a(class_type_info.o)
 .ARM.exidx.text._ZN10__cxxabiv117__class_type_infoD2Ev
                0x00015f90        0x8 /Users/Max/android-ndk-r8e/sources/cxx-stl/gnu-libstdc++/4.4.3/libs/armeabi/libgnustl_static.a(class_type_info.o)
 .ARM.exidx.text._ZSt15set_new_handlerPFvvE
                0x00015f98        0x8 /Users/Max/android-ndk-r8e/sources/cxx-stl/gnu-libstdc++/4.4.3/libs/armeabi/libgnustl_static.a(new_handler.o)
 .ARM.exidx.text._ZNKSt9bad_alloc4whatEv
                0x00015fa0        0x8 /Users/Max/android-ndk-r8e/sources/cxx-stl/gnu-libstdc++/4.4.3/libs/armeabi/libgnustl_static.a(new_handler.o)
 .ARM.exidx.text._ZNSt9bad_allocD1Ev
                0x00015fa8        0x8 /Users/Max/android-ndk-r8e/sources/cxx-stl/gnu-libstdc++/4.4.3/libs/armeabi/libgnustl_static.a(new_handler.o)
 .ARM.exidx.text._ZNSt9bad_allocD0Ev
                0x00015fb0        0x8 /Users/Max/android-ndk-r8e/sources/cxx-stl/gnu-libstdc++/4.4.3/libs/armeabi/libgnustl_static.a(new_handler.o)
 .ARM.exidx.text._ZNSt9bad_allocD2Ev
                0x00015fb8        0x8 /Users/Max/android-ndk-r8e/sources/cxx-stl/gnu-libstdc++/4.4.3/libs/armeabi/libgnustl_static.a(new_handler.o)
 .ARM.exidx.text._ZNK10__cxxabiv117__pbase_type_info15__pointer_catchEPKS0_PPvj
                0x00015fc0        0x8 /Users/Max/android-ndk-r8e/sources/cxx-stl/gnu-libstdc++/4.4.3/libs/armeabi/libgnustl_static.a(pbase_type_info.o)
 .ARM.exidx.text._ZNK10__cxxabiv117__pbase_type_info10__do_catchEPKSt9type_infoPPvj
                0x00015fc8        0x8 /Users/Max/android-ndk-r8e/sources/cxx-stl/gnu-libstdc++/4.4.3/libs/armeabi/libgnustl_static.a(pbase_type_info.o)
 .ARM.exidx.text._ZN10__cxxabiv117__pbase_type_infoD1Ev
                0x00015fd0        0x8 /Users/Max/android-ndk-r8e/sources/cxx-stl/gnu-libstdc++/4.4.3/libs/armeabi/libgnustl_static.a(pbase_type_info.o)
 .ARM.exidx.text._ZN10__cxxabiv117__pbase_type_infoD0Ev
                0x00015fd8        0x8 /Users/Max/android-ndk-r8e/sources/cxx-stl/gnu-libstdc++/4.4.3/libs/armeabi/libgnustl_static.a(pbase_type_info.o)
 .ARM.exidx.text._ZN10__cxxabiv117__pbase_type_infoD2Ev
                0x00015fe0        0x8 /Users/Max/android-ndk-r8e/sources/cxx-stl/gnu-libstdc++/4.4.3/libs/armeabi/libgnustl_static.a(pbase_type_info.o)
 .ARM.exidx.text._ZN9__gnu_cxx27__verbose_terminate_handlerEv
                0x00015fe8        0x8 /Users/Max/android-ndk-r8e/sources/cxx-stl/gnu-libstdc++/4.4.3/libs/armeabi/libgnustl_static.a(vterminate.o)
 .ARM.exidx     0x00015ff0      0x138 /Users/Max/android-ndk-r8e/sources/cxx-stl/gnu-libstdc++/4.4.3/libs/armeabi/libgnustl_static.a(cp-demangle.o)
 .ARM.exidx.text.__cxa_current_exception_type
                0x00016128        0x8 /Users/Max/android-ndk-r8e/sources/cxx-stl/gnu-libstdc++/4.4.3/libs/armeabi/libgnustl_static.a(eh_type.o)
 .ARM.exidx     0x00016130       0xa0 /Users/Max/android-ndk-r8e/toolchains/arm-linux-androideabi-4.4.3/prebuilt/darwin-x86/bin/../lib/gcc/arm-linux-androideabi/4.4.3/libgcc.a(unwind-arm.o)
 .ARM.exidx     0x000161d0       0x38 /Users/Max/android-ndk-r8e/toolchains/arm-linux-androideabi-4.4.3/prebuilt/darwin-x86/bin/../lib/gcc/arm-linux-androideabi/4.4.3/libgcc.a(pr-support.o)
                0x00016208                __exidx_end = .

.eh_frame_hdr
 *(.eh_frame_hdr)

.eh_frame
 *(.eh_frame)

.gcc_except_table
 *(.gcc_except_table .gcc_except_table.*)
                0x00016208                . = (ALIGN (0x1000) - ((0x1000 - .) & 0xfff))
                0x00017e60                . = (0x1000 DATA_SEGMENT_ALIGN 0x1000)

.eh_frame
 *(.eh_frame)

.gcc_except_table
 *(.gcc_except_table .gcc_except_table.*)

.tdata
 *(.tdata .tdata.* .gnu.linkonce.td.*)

.tbss
 *(.tbss .tbss.* .gnu.linkonce.tb.*)
 *(.tcommon)

.preinit_array
 *(.preinit_array)

.init_array     0x00017e60       0x14
 *(SORT(.init_array.*))
 *(.init_array)
 .init_array    0x00017e60        0x4 release/s3ePushWoosh_platform.os
 .init_array    0x00017e64        0x4 /Users/Max/android-ndk-r8e/sources/cxx-stl/gnu-libstdc++/4.4.3/libs/armeabi/libgnustl_static.a(eh_alloc.o)
 .init_array    0x00017e68        0x4 /Users/Max/android-ndk-r8e/sources/cxx-stl/gnu-libstdc++/4.4.3/libs/armeabi/libgnustl_static.a(eh_globals.o)
 .init_array    0x00017e6c        0x4 /Users/Max/android-ndk-r8e/sources/cxx-stl/gnu-libstdc++/4.4.3/libs/armeabi/libgnustl_static.a(system_error.o)
 .init_array    0x00017e70        0x4 /Users/Max/android-ndk-r8e/platforms/android-9/arch-arm/usr/lib/crtend_so.o

.fini_array     0x00017e74        0x8
 *(.fini_array)
 .fini_array    0x00017e74        0x4 /Users/Max/android-ndk-r8e/platforms/android-9/arch-arm/usr/lib/crtbegin_so.o
 .fini_array    0x00017e78        0x4 /Users/Max/android-ndk-r8e/platforms/android-9/arch-arm/usr/lib/crtend_so.o
 *(SORT(.fini_array.*))

.ctors
 *crtbegin.o(.ctors)
 *crtbegin?.o(.ctors)
 *(EXCLUDE_FILE(*crtend?.o *crtend.o) .ctors)
 *(SORT(.ctors.*))
 *(.ctors)

.dtors
 *crtbegin.o(.dtors)
 *crtbegin?.o(.dtors)
 *(EXCLUDE_FILE(*crtend?.o *crtend.o) .dtors)
 *(SORT(.dtors.*))
 *(.dtors)

.jcr
 *(.jcr)

.data.rel.ro    0x00017e80      0xeec
 *(.data.rel.ro.local* .gnu.linkonce.d.rel.ro.local.*)
 .data.rel.ro.local
                0x00017e80      0x694 /Users/Max/android-ndk-r8e/sources/cxx-stl/gnu-libstdc++/4.4.3/libs/armeabi/libgnustl_static.a(cp-demangle.o)
 *(.data.rel.ro* .gnu.linkonce.d.rel.ro.*)
 .data.rel.ro   0x00018514       0x24 release/s3ePushWoosh_platform.os
 .data.rel.ro._ZTIN9__gnu_cxx24__concurrence_lock_errorE
                0x00018538        0xc /Users/Max/android-ndk-r8e/sources/cxx-stl/gnu-libstdc++/4.4.3/libs/armeabi/libgnustl_static.a(atomicity.o)
                0x00018538                _ZTIN9__gnu_cxx24__concurrence_lock_errorE
 *fill*         0x00018544        0x4 00
 .data.rel.ro._ZTVN9__gnu_cxx24__concurrence_lock_errorE
                0x00018548       0x18 /Users/Max/android-ndk-r8e/sources/cxx-stl/gnu-libstdc++/4.4.3/libs/armeabi/libgnustl_static.a(atomicity.o)
                0x00018548                _ZTVN9__gnu_cxx24__concurrence_lock_errorE
 .data.rel.ro._ZTIN9__gnu_cxx26__concurrence_unlock_errorE
                0x00018560        0xc /Users/Max/android-ndk-r8e/sources/cxx-stl/gnu-libstdc++/4.4.3/libs/armeabi/libgnustl_static.a(atomicity.o)
                0x00018560                _ZTIN9__gnu_cxx26__concurrence_unlock_errorE
 *fill*         0x0001856c        0x4 00
 .data.rel.ro._ZTVN9__gnu_cxx26__concurrence_unlock_errorE
                0x00018570       0x18 /Users/Max/android-ndk-r8e/sources/cxx-stl/gnu-libstdc++/4.4.3/libs/armeabi/libgnustl_static.a(atomicity.o)
                0x00018570                _ZTVN9__gnu_cxx26__concurrence_unlock_errorE
 .data.rel.ro._ZTIN10__cxxabiv115__forced_unwindE
                0x00018588        0x8 /Users/Max/android-ndk-r8e/sources/cxx-stl/gnu-libstdc++/4.4.3/libs/armeabi/libgnustl_static.a(eh_exception.o)
                0x00018588                _ZTIN10__cxxabiv115__forced_unwindE
 .data.rel.ro._ZTISt9exception
                0x00018590        0x8 /Users/Max/android-ndk-r8e/sources/cxx-stl/gnu-libstdc++/4.4.3/libs/armeabi/libgnustl_static.a(eh_exception.o)
                0x00018590                _ZTISt9exception
 .data.rel.ro._ZTVSt13bad_exception
                0x00018598       0x18 /Users/Max/android-ndk-r8e/sources/cxx-stl/gnu-libstdc++/4.4.3/libs/armeabi/libgnustl_static.a(eh_exception.o)
                0x00018598                _ZTVSt13bad_exception
 .data.rel.ro._ZTISt13bad_exception
                0x000185b0        0xc /Users/Max/android-ndk-r8e/sources/cxx-stl/gnu-libstdc++/4.4.3/libs/armeabi/libgnustl_static.a(eh_exception.o)
                0x000185b0                _ZTISt13bad_exception
 .data.rel.ro._ZTIN10__cxxabiv119__foreign_exceptionE
                0x000185bc        0x8 /Users/Max/android-ndk-r8e/sources/cxx-stl/gnu-libstdc++/4.4.3/libs/armeabi/libgnustl_static.a(eh_exception.o)
                0x000185bc                _ZTIN10__cxxabiv119__foreign_exceptionE
 *fill*         0x000185c4        0x4 00
 .data.rel.ro._ZTVN10__cxxabiv115__forced_unwindE
                0x000185c8       0x18 /Users/Max/android-ndk-r8e/sources/cxx-stl/gnu-libstdc++/4.4.3/libs/armeabi/libgnustl_static.a(eh_exception.o)
                0x000185c8                _ZTVN10__cxxabiv115__forced_unwindE
 .data.rel.ro._ZTVN10__cxxabiv119__foreign_exceptionE
                0x000185e0       0x18 /Users/Max/android-ndk-r8e/sources/cxx-stl/gnu-libstdc++/4.4.3/libs/armeabi/libgnustl_static.a(eh_exception.o)
                0x000185e0                _ZTVN10__cxxabiv119__foreign_exceptionE
 .data.rel.ro._ZTVSt9exception
                0x000185f8       0x18 /Users/Max/android-ndk-r8e/sources/cxx-stl/gnu-libstdc++/4.4.3/libs/armeabi/libgnustl_static.a(eh_exception.o)
                0x000185f8                _ZTVSt9exception
 .data.rel.ro._ZTIPKe
                0x00018610       0x10 /Users/Max/android-ndk-r8e/sources/cxx-stl/gnu-libstdc++/4.4.3/libs/armeabi/libgnustl_static.a(fundamental_type_info.o)
                0x00018610                _ZTIPKe
 .data.rel.ro._ZTIPe
                0x00018620       0x10 /Users/Max/android-ndk-r8e/sources/cxx-stl/gnu-libstdc++/4.4.3/libs/armeabi/libgnustl_static.a(fundamental_type_info.o)
                0x00018620                _ZTIPe
 .data.rel.ro._ZTIe
                0x00018630        0x8 /Users/Max/android-ndk-r8e/sources/cxx-stl/gnu-libstdc++/4.4.3/libs/armeabi/libgnustl_static.a(fundamental_type_info.o)
                0x00018630                _ZTIe
 .data.rel.ro._ZTIPKd
                0x00018638       0x10 /Users/Max/android-ndk-r8e/sources/cxx-stl/gnu-libstdc++/4.4.3/libs/armeabi/libgnustl_static.a(fundamental_type_info.o)
                0x00018638                _ZTIPKd
 .data.rel.ro._ZTIPd
                0x00018648       0x10 /Users/Max/android-ndk-r8e/sources/cxx-stl/gnu-libstdc++/4.4.3/libs/armeabi/libgnustl_static.a(fundamental_type_info.o)
                0x00018648                _ZTIPd
 .data.rel.ro._ZTId
                0x00018658        0x8 /Users/Max/android-ndk-r8e/sources/cxx-stl/gnu-libstdc++/4.4.3/libs/armeabi/libgnustl_static.a(fundamental_type_info.o)
                0x00018658                _ZTId
 .data.rel.ro._ZTIPKf
                0x00018660       0x10 /Users/Max/android-ndk-r8e/sources/cxx-stl/gnu-libstdc++/4.4.3/libs/armeabi/libgnustl_static.a(fundamental_type_info.o)
                0x00018660                _ZTIPKf
 .data.rel.ro._ZTIPf
                0x00018670       0x10 /Users/Max/android-ndk-r8e/sources/cxx-stl/gnu-libstdc++/4.4.3/libs/armeabi/libgnustl_static.a(fundamental_type_info.o)
                0x00018670                _ZTIPf
 .data.rel.ro._ZTIf
                0x00018680        0x8 /Users/Max/android-ndk-r8e/sources/cxx-stl/gnu-libstdc++/4.4.3/libs/armeabi/libgnustl_static.a(fundamental_type_info.o)
                0x00018680                _ZTIf
 .data.rel.ro._ZTIPKy
                0x00018688       0x10 /Users/Max/android-ndk-r8e/sources/cxx-stl/gnu-libstdc++/4.4.3/libs/armeabi/libgnustl_static.a(fundamental_type_info.o)
                0x00018688                _ZTIPKy
 .data.rel.ro._ZTIPy
                0x00018698       0x10 /Users/Max/android-ndk-r8e/sources/cxx-stl/gnu-libstdc++/4.4.3/libs/armeabi/libgnustl_static.a(fundamental_type_info.o)
                0x00018698                _ZTIPy
 .data.rel.ro._ZTIy
                0x000186a8        0x8 /Users/Max/android-ndk-r8e/sources/cxx-stl/gnu-libstdc++/4.4.3/libs/armeabi/libgnustl_static.a(fundamental_type_info.o)
                0x000186a8                _ZTIy
 .data.rel.ro._ZTIPKx
                0x000186b0       0x10 /Users/Max/android-ndk-r8e/sources/cxx-stl/gnu-libstdc++/4.4.3/libs/armeabi/libgnustl_static.a(fundamental_type_info.o)
                0x000186b0                _ZTIPKx
 .data.rel.ro._ZTIPx
                0x000186c0       0x10 /Users/Max/android-ndk-r8e/sources/cxx-stl/gnu-libstdc++/4.4.3/libs/armeabi/libgnustl_static.a(fundamental_type_info.o)
                0x000186c0                _ZTIPx
 .data.rel.ro._ZTIx
                0x000186d0        0x8 /Users/Max/android-ndk-r8e/sources/cxx-stl/gnu-libstdc++/4.4.3/libs/armeabi/libgnustl_static.a(fundamental_type_info.o)
                0x000186d0                _ZTIx
 .data.rel.ro._ZTIPKm
                0x000186d8       0x10 /Users/Max/android-ndk-r8e/sources/cxx-stl/gnu-libstdc++/4.4.3/libs/armeabi/libgnustl_static.a(fundamental_type_info.o)
                0x000186d8                _ZTIPKm
 .data.rel.ro._ZTIPm
                0x000186e8       0x10 /Users/Max/android-ndk-r8e/sources/cxx-stl/gnu-libstdc++/4.4.3/libs/armeabi/libgnustl_static.a(fundamental_type_info.o)
                0x000186e8                _ZTIPm
 .data.rel.ro._ZTIm
                0x000186f8        0x8 /Users/Max/android-ndk-r8e/sources/cxx-stl/gnu-libstdc++/4.4.3/libs/armeabi/libgnustl_static.a(fundamental_type_info.o)
                0x000186f8                _ZTIm
 .data.rel.ro._ZTIPKl
                0x00018700       0x10 /Users/Max/android-ndk-r8e/sources/cxx-stl/gnu-libstdc++/4.4.3/libs/armeabi/libgnustl_static.a(fundamental_type_info.o)
                0x00018700                _ZTIPKl
 .data.rel.ro._ZTIPl
                0x00018710       0x10 /Users/Max/android-ndk-r8e/sources/cxx-stl/gnu-libstdc++/4.4.3/libs/armeabi/libgnustl_static.a(fundamental_type_info.o)
                0x00018710                _ZTIPl
 .data.rel.ro._ZTIl
                0x00018720        0x8 /Users/Max/android-ndk-r8e/sources/cxx-stl/gnu-libstdc++/4.4.3/libs/armeabi/libgnustl_static.a(fundamental_type_info.o)
                0x00018720                _ZTIl
 .data.rel.ro._ZTIPKj
                0x00018728       0x10 /Users/Max/android-ndk-r8e/sources/cxx-stl/gnu-libstdc++/4.4.3/libs/armeabi/libgnustl_static.a(fundamental_type_info.o)
                0x00018728                _ZTIPKj
 .data.rel.ro._ZTIPj
                0x00018738       0x10 /Users/Max/android-ndk-r8e/sources/cxx-stl/gnu-libstdc++/4.4.3/libs/armeabi/libgnustl_static.a(fundamental_type_info.o)
                0x00018738                _ZTIPj
 .data.rel.ro._ZTIj
                0x00018748        0x8 /Users/Max/android-ndk-r8e/sources/cxx-stl/gnu-libstdc++/4.4.3/libs/armeabi/libgnustl_static.a(fundamental_type_info.o)
                0x00018748                _ZTIj
 .data.rel.ro._ZTIPKi
                0x00018750       0x10 /Users/Max/android-ndk-r8e/sources/cxx-stl/gnu-libstdc++/4.4.3/libs/armeabi/libgnustl_static.a(fundamental_type_info.o)
                0x00018750                _ZTIPKi
 .data.rel.ro._ZTIPi
                0x00018760       0x10 /Users/Max/android-ndk-r8e/sources/cxx-stl/gnu-libstdc++/4.4.3/libs/armeabi/libgnustl_static.a(fundamental_type_info.o)
                0x00018760                _ZTIPi
 .data.rel.ro._ZTIi
                0x00018770        0x8 /Users/Max/android-ndk-r8e/sources/cxx-stl/gnu-libstdc++/4.4.3/libs/armeabi/libgnustl_static.a(fundamental_type_info.o)
                0x00018770                _ZTIi
 .data.rel.ro._ZTIPKt
                0x00018778       0x10 /Users/Max/android-ndk-r8e/sources/cxx-stl/gnu-libstdc++/4.4.3/libs/armeabi/libgnustl_static.a(fundamental_type_info.o)
                0x00018778                _ZTIPKt
 .data.rel.ro._ZTIPt
                0x00018788       0x10 /Users/Max/android-ndk-r8e/sources/cxx-stl/gnu-libstdc++/4.4.3/libs/armeabi/libgnustl_static.a(fundamental_type_info.o)
                0x00018788                _ZTIPt
 .data.rel.ro._ZTIt
                0x00018798        0x8 /Users/Max/android-ndk-r8e/sources/cxx-stl/gnu-libstdc++/4.4.3/libs/armeabi/libgnustl_static.a(fundamental_type_info.o)
                0x00018798                _ZTIt
 .data.rel.ro._ZTIPKs
                0x000187a0       0x10 /Users/Max/android-ndk-r8e/sources/cxx-stl/gnu-libstdc++/4.4.3/libs/armeabi/libgnustl_static.a(fundamental_type_info.o)
                0x000187a0                _ZTIPKs
 .data.rel.ro._ZTIPs
                0x000187b0       0x10 /Users/Max/android-ndk-r8e/sources/cxx-stl/gnu-libstdc++/4.4.3/libs/armeabi/libgnustl_static.a(fundamental_type_info.o)
                0x000187b0                _ZTIPs
 .data.rel.ro._ZTIs
                0x000187c0        0x8 /Users/Max/android-ndk-r8e/sources/cxx-stl/gnu-libstdc++/4.4.3/libs/armeabi/libgnustl_static.a(fundamental_type_info.o)
                0x000187c0                _ZTIs
 .data.rel.ro._ZTIPKh
                0x000187c8       0x10 /Users/Max/android-ndk-r8e/sources/cxx-stl/gnu-libstdc++/4.4.3/libs/armeabi/libgnustl_static.a(fundamental_type_info.o)
                0x000187c8                _ZTIPKh
 .data.rel.ro._ZTIPh
                0x000187d8       0x10 /Users/Max/android-ndk-r8e/sources/cxx-stl/gnu-libstdc++/4.4.3/libs/armeabi/libgnustl_static.a(fundamental_type_info.o)
                0x000187d8                _ZTIPh
 .data.rel.ro._ZTIh
                0x000187e8        0x8 /Users/Max/android-ndk-r8e/sources/cxx-stl/gnu-libstdc++/4.4.3/libs/armeabi/libgnustl_static.a(fundamental_type_info.o)
                0x000187e8                _ZTIh
 .data.rel.ro._ZTIPKa
                0x000187f0       0x10 /Users/Max/android-ndk-r8e/sources/cxx-stl/gnu-libstdc++/4.4.3/libs/armeabi/libgnustl_static.a(fundamental_type_info.o)
                0x000187f0                _ZTIPKa
 .data.rel.ro._ZTIPa
                0x00018800       0x10 /Users/Max/android-ndk-r8e/sources/cxx-stl/gnu-libstdc++/4.4.3/libs/armeabi/libgnustl_static.a(fundamental_type_info.o)
                0x00018800                _ZTIPa
 .data.rel.ro._ZTIa
                0x00018810        0x8 /Users/Max/android-ndk-r8e/sources/cxx-stl/gnu-libstdc++/4.4.3/libs/armeabi/libgnustl_static.a(fundamental_type_info.o)
                0x00018810                _ZTIa
 .data.rel.ro._ZTIPKc
                0x00018818       0x10 /Users/Max/android-ndk-r8e/sources/cxx-stl/gnu-libstdc++/4.4.3/libs/armeabi/libgnustl_static.a(fundamental_type_info.o)
                0x00018818                _ZTIPKc
 .data.rel.ro._ZTIPc
                0x00018828       0x10 /Users/Max/android-ndk-r8e/sources/cxx-stl/gnu-libstdc++/4.4.3/libs/armeabi/libgnustl_static.a(fundamental_type_info.o)
                0x00018828                _ZTIPc
 .data.rel.ro._ZTIc
                0x00018838        0x8 /Users/Max/android-ndk-r8e/sources/cxx-stl/gnu-libstdc++/4.4.3/libs/armeabi/libgnustl_static.a(fundamental_type_info.o)
                0x00018838                _ZTIc
 .data.rel.ro._ZTIPKDi
                0x00018840       0x10 /Users/Max/android-ndk-r8e/sources/cxx-stl/gnu-libstdc++/4.4.3/libs/armeabi/libgnustl_static.a(fundamental_type_info.o)
                0x00018840                _ZTIPKDi
 .data.rel.ro._ZTIPDi
                0x00018850       0x10 /Users/Max/android-ndk-r8e/sources/cxx-stl/gnu-libstdc++/4.4.3/libs/armeabi/libgnustl_static.a(fundamental_type_info.o)
                0x00018850                _ZTIPDi
 .data.rel.ro._ZTIDi
                0x00018860        0x8 /Users/Max/android-ndk-r8e/sources/cxx-stl/gnu-libstdc++/4.4.3/libs/armeabi/libgnustl_static.a(fundamental_type_info.o)
                0x00018860                _ZTIDi
 .data.rel.ro._ZTIPKDs
                0x00018868       0x10 /Users/Max/android-ndk-r8e/sources/cxx-stl/gnu-libstdc++/4.4.3/libs/armeabi/libgnustl_static.a(fundamental_type_info.o)
                0x00018868                _ZTIPKDs
 .data.rel.ro._ZTIPDs
                0x00018878       0x10 /Users/Max/android-ndk-r8e/sources/cxx-stl/gnu-libstdc++/4.4.3/libs/armeabi/libgnustl_static.a(fundamental_type_info.o)
                0x00018878                _ZTIPDs
 .data.rel.ro._ZTIDs
                0x00018888        0x8 /Users/Max/android-ndk-r8e/sources/cxx-stl/gnu-libstdc++/4.4.3/libs/armeabi/libgnustl_static.a(fundamental_type_info.o)
                0x00018888                _ZTIDs
 .data.rel.ro._ZTIPKw
                0x00018890       0x10 /Users/Max/android-ndk-r8e/sources/cxx-stl/gnu-libstdc++/4.4.3/libs/armeabi/libgnustl_static.a(fundamental_type_info.o)
                0x00018890                _ZTIPKw
 .data.rel.ro._ZTIPw
                0x000188a0       0x10 /Users/Max/android-ndk-r8e/sources/cxx-stl/gnu-libstdc++/4.4.3/libs/armeabi/libgnustl_static.a(fundamental_type_info.o)
                0x000188a0                _ZTIPw
 .data.rel.ro._ZTIw
                0x000188b0        0x8 /Users/Max/android-ndk-r8e/sources/cxx-stl/gnu-libstdc++/4.4.3/libs/armeabi/libgnustl_static.a(fundamental_type_info.o)
                0x000188b0                _ZTIw
 .data.rel.ro._ZTIPKb
                0x000188b8       0x10 /Users/Max/android-ndk-r8e/sources/cxx-stl/gnu-libstdc++/4.4.3/libs/armeabi/libgnustl_static.a(fundamental_type_info.o)
                0x000188b8                _ZTIPKb
 .data.rel.ro._ZTIPb
                0x000188c8       0x10 /Users/Max/android-ndk-r8e/sources/cxx-stl/gnu-libstdc++/4.4.3/libs/armeabi/libgnustl_static.a(fundamental_type_info.o)
                0x000188c8                _ZTIPb
 .data.rel.ro._ZTIb
                0x000188d8        0x8 /Users/Max/android-ndk-r8e/sources/cxx-stl/gnu-libstdc++/4.4.3/libs/armeabi/libgnustl_static.a(fundamental_type_info.o)
                0x000188d8                _ZTIb
 .data.rel.ro._ZTIPKv
                0x000188e0       0x10 /Users/Max/android-ndk-r8e/sources/cxx-stl/gnu-libstdc++/4.4.3/libs/armeabi/libgnustl_static.a(fundamental_type_info.o)
                0x000188e0                _ZTIPKv
 .data.rel.ro._ZTIPv
                0x000188f0       0x10 /Users/Max/android-ndk-r8e/sources/cxx-stl/gnu-libstdc++/4.4.3/libs/armeabi/libgnustl_static.a(fundamental_type_info.o)
                0x000188f0                _ZTIPv
 .data.rel.ro._ZTIv
                0x00018900        0x8 /Users/Max/android-ndk-r8e/sources/cxx-stl/gnu-libstdc++/4.4.3/libs/armeabi/libgnustl_static.a(fundamental_type_info.o)
                0x00018900                _ZTIv
 .data.rel.ro._ZTVN10__cxxabiv123__fundamental_type_infoE
                0x00018908       0x20 /Users/Max/android-ndk-r8e/sources/cxx-stl/gnu-libstdc++/4.4.3/libs/armeabi/libgnustl_static.a(fundamental_type_info.o)
                0x00018908                _ZTVN10__cxxabiv123__fundamental_type_infoE
 .data.rel.ro._ZTIN10__cxxabiv123__fundamental_type_infoE
                0x00018928        0xc /Users/Max/android-ndk-r8e/sources/cxx-stl/gnu-libstdc++/4.4.3/libs/armeabi/libgnustl_static.a(fundamental_type_info.o)
                0x00018928                _ZTIN10__cxxabiv123__fundamental_type_infoE
 .data.rel.ro._ZTIN9__gnu_cxx29__concurrence_broadcast_errorE
                0x00018934        0xc /Users/Max/android-ndk-r8e/sources/cxx-stl/gnu-libstdc++/4.4.3/libs/armeabi/libgnustl_static.a(guard.o)
                0x00018934                _ZTIN9__gnu_cxx29__concurrence_broadcast_errorE
 .data.rel.ro._ZTVN9__gnu_cxx29__concurrence_broadcast_errorE
                0x00018940       0x18 /Users/Max/android-ndk-r8e/sources/cxx-stl/gnu-libstdc++/4.4.3/libs/armeabi/libgnustl_static.a(guard.o)
                0x00018940                _ZTVN9__gnu_cxx29__concurrence_broadcast_errorE
 .data.rel.ro._ZTIN9__gnu_cxx24__concurrence_wait_errorE
                0x00018958        0xc /Users/Max/android-ndk-r8e/sources/cxx-stl/gnu-libstdc++/4.4.3/libs/armeabi/libgnustl_static.a(guard.o)
                0x00018958                _ZTIN9__gnu_cxx24__concurrence_wait_errorE
 *fill*         0x00018964        0x4 00
 .data.rel.ro._ZTVN9__gnu_cxx24__concurrence_wait_errorE
                0x00018968       0x18 /Users/Max/android-ndk-r8e/sources/cxx-stl/gnu-libstdc++/4.4.3/libs/armeabi/libgnustl_static.a(guard.o)
                0x00018968                _ZTVN9__gnu_cxx24__concurrence_wait_errorE
 .data.rel.ro._ZTVN9__gnu_cxx20recursive_init_errorE
                0x00018980       0x18 /Users/Max/android-ndk-r8e/sources/cxx-stl/gnu-libstdc++/4.4.3/libs/armeabi/libgnustl_static.a(guard.o)
                0x00018980                _ZTVN9__gnu_cxx20recursive_init_errorE
 .data.rel.ro._ZTIN9__gnu_cxx20recursive_init_errorE
                0x00018998        0xc /Users/Max/android-ndk-r8e/sources/cxx-stl/gnu-libstdc++/4.4.3/libs/armeabi/libgnustl_static.a(guard.o)
                0x00018998                _ZTIN9__gnu_cxx20recursive_init_errorE
 .data.rel.ro._ZTIN10__cxxabiv119__pointer_type_infoE
                0x000189a4        0xc /Users/Max/android-ndk-r8e/sources/cxx-stl/gnu-libstdc++/4.4.3/libs/armeabi/libgnustl_static.a(pointer_type_info.o)
                0x000189a4                _ZTIN10__cxxabiv119__pointer_type_infoE
 .data.rel.ro._ZTVN10__cxxabiv119__pointer_type_infoE
                0x000189b0       0x28 /Users/Max/android-ndk-r8e/sources/cxx-stl/gnu-libstdc++/4.4.3/libs/armeabi/libgnustl_static.a(pointer_type_info.o)
                0x000189b0                _ZTVN10__cxxabiv119__pointer_type_infoE
 .data.rel.ro._ZTVN10__cxxabiv120__si_class_type_infoE
                0x000189d8       0x30 /Users/Max/android-ndk-r8e/sources/cxx-stl/gnu-libstdc++/4.4.3/libs/armeabi/libgnustl_static.a(si_class_type_info.o)
                0x000189d8                _ZTVN10__cxxabiv120__si_class_type_infoE
 .data.rel.ro._ZTIN10__cxxabiv120__si_class_type_infoE
                0x00018a08        0xc /Users/Max/android-ndk-r8e/sources/cxx-stl/gnu-libstdc++/4.4.3/libs/armeabi/libgnustl_static.a(si_class_type_info.o)
                0x00018a08                _ZTIN10__cxxabiv120__si_class_type_infoE
 *fill*         0x00018a14        0x4 00
 .data.rel.ro._ZTVSt9type_info
                0x00018a18       0x20 /Users/Max/android-ndk-r8e/sources/cxx-stl/gnu-libstdc++/4.4.3/libs/armeabi/libgnustl_static.a(tinfo.o)
                0x00018a18                _ZTVSt9type_info
 .data.rel.ro._ZTISt9type_info
                0x00018a38        0x8 /Users/Max/android-ndk-r8e/sources/cxx-stl/gnu-libstdc++/4.4.3/libs/armeabi/libgnustl_static.a(tinfo.o)
                0x00018a38                _ZTISt9type_info
 .data.rel.ro._ZTISt15underflow_error
                0x00018a40        0xc /Users/Max/android-ndk-r8e/sources/cxx-stl/gnu-libstdc++/4.4.3/libs/armeabi/libgnustl_static.a(functexcept.o)
                0x00018a40                _ZTISt15underflow_error
 *fill*         0x00018a4c        0x4 00
 .data.rel.ro._ZTVSt15underflow_error
                0x00018a50       0x18 /Users/Max/android-ndk-r8e/sources/cxx-stl/gnu-libstdc++/4.4.3/libs/armeabi/libgnustl_static.a(functexcept.o)
                0x00018a50                _ZTVSt15underflow_error
 .data.rel.ro._ZTISt14overflow_error
                0x00018a68        0xc /Users/Max/android-ndk-r8e/sources/cxx-stl/gnu-libstdc++/4.4.3/libs/armeabi/libgnustl_static.a(functexcept.o)
                0x00018a68                _ZTISt14overflow_error
 *fill*         0x00018a74        0x4 00
 .data.rel.ro._ZTVSt14overflow_error
                0x00018a78       0x18 /Users/Max/android-ndk-r8e/sources/cxx-stl/gnu-libstdc++/4.4.3/libs/armeabi/libgnustl_static.a(functexcept.o)
                0x00018a78                _ZTVSt14overflow_error
 .data.rel.ro._ZTISt11range_error
                0x00018a90        0xc /Users/Max/android-ndk-r8e/sources/cxx-stl/gnu-libstdc++/4.4.3/libs/armeabi/libgnustl_static.a(functexcept.o)
                0x00018a90                _ZTISt11range_error
 *fill*         0x00018a9c        0x4 00
 .data.rel.ro._ZTVSt11range_error
                0x00018aa0       0x18 /Users/Max/android-ndk-r8e/sources/cxx-stl/gnu-libstdc++/4.4.3/libs/armeabi/libgnustl_static.a(functexcept.o)
                0x00018aa0                _ZTVSt11range_error
 .data.rel.ro._ZTISt12out_of_range
                0x00018ab8        0xc /Users/Max/android-ndk-r8e/sources/cxx-stl/gnu-libstdc++/4.4.3/libs/armeabi/libgnustl_static.a(functexcept.o)
                0x00018ab8                _ZTISt12out_of_range
 *fill*         0x00018ac4        0x4 00
 .data.rel.ro._ZTVSt12out_of_range
                0x00018ac8       0x18 /Users/Max/android-ndk-r8e/sources/cxx-stl/gnu-libstdc++/4.4.3/libs/armeabi/libgnustl_static.a(functexcept.o)
                0x00018ac8                _ZTVSt12out_of_range
 .data.rel.ro._ZTISt12length_error
                0x00018ae0        0xc /Users/Max/android-ndk-r8e/sources/cxx-stl/gnu-libstdc++/4.4.3/libs/armeabi/libgnustl_static.a(functexcept.o)
                0x00018ae0                _ZTISt12length_error
 *fill*         0x00018aec        0x4 00
 .data.rel.ro._ZTVSt12length_error
                0x00018af0       0x18 /Users/Max/android-ndk-r8e/sources/cxx-stl/gnu-libstdc++/4.4.3/libs/armeabi/libgnustl_static.a(functexcept.o)
                0x00018af0                _ZTVSt12length_error
 .data.rel.ro._ZTISt16invalid_argument
                0x00018b08        0xc /Users/Max/android-ndk-r8e/sources/cxx-stl/gnu-libstdc++/4.4.3/libs/armeabi/libgnustl_static.a(functexcept.o)
                0x00018b08                _ZTISt16invalid_argument
 *fill*         0x00018b14        0x4 00
 .data.rel.ro._ZTVSt16invalid_argument
                0x00018b18       0x18 /Users/Max/android-ndk-r8e/sources/cxx-stl/gnu-libstdc++/4.4.3/libs/armeabi/libgnustl_static.a(functexcept.o)
                0x00018b18                _ZTVSt16invalid_argument
 .data.rel.ro._ZTISt12domain_error
                0x00018b30        0xc /Users/Max/android-ndk-r8e/sources/cxx-stl/gnu-libstdc++/4.4.3/libs/armeabi/libgnustl_static.a(functexcept.o)
                0x00018b30                _ZTISt12domain_error
 *fill*         0x00018b3c        0x4 00
 .data.rel.ro._ZTVSt12domain_error
                0x00018b40       0x18 /Users/Max/android-ndk-r8e/sources/cxx-stl/gnu-libstdc++/4.4.3/libs/armeabi/libgnustl_static.a(functexcept.o)
                0x00018b40                _ZTVSt12domain_error
 .data.rel.ro._ZTVNSt8ios_base7failureE
                0x00018b58       0x18 /Users/Max/android-ndk-r8e/sources/cxx-stl/gnu-libstdc++/4.4.3/libs/armeabi/libgnustl_static.a(ios_failure.o)
                0x00018b58                _ZTVNSt8ios_base7failureE
 .data.rel.ro._ZTINSt8ios_base7failureE
                0x00018b70        0xc /Users/Max/android-ndk-r8e/sources/cxx-stl/gnu-libstdc++/4.4.3/libs/armeabi/libgnustl_static.a(ios_failure.o)
                0x00018b70                _ZTINSt8ios_base7failureE
 .data.rel.ro._ZTISt13runtime_error
                0x00018b7c        0xc /Users/Max/android-ndk-r8e/sources/cxx-stl/gnu-libstdc++/4.4.3/libs/armeabi/libgnustl_static.a(stdexcept.o)
                0x00018b7c                _ZTISt13runtime_error
 .data.rel.ro._ZTVSt11logic_error
                0x00018b88       0x18 /Users/Max/android-ndk-r8e/sources/cxx-stl/gnu-libstdc++/4.4.3/libs/armeabi/libgnustl_static.a(stdexcept.o)
                0x00018b88                _ZTVSt11logic_error
 .data.rel.ro._ZTVSt13runtime_error
                0x00018ba0       0x18 /Users/Max/android-ndk-r8e/sources/cxx-stl/gnu-libstdc++/4.4.3/libs/armeabi/libgnustl_static.a(stdexcept.o)
                0x00018ba0                _ZTVSt13runtime_error
 .data.rel.ro._ZTISt11logic_error
                0x00018bb8        0xc /Users/Max/android-ndk-r8e/sources/cxx-stl/gnu-libstdc++/4.4.3/libs/armeabi/libgnustl_static.a(stdexcept.o)
                0x00018bb8                _ZTISt11logic_error
 .data.rel.ro._ZTIN12_GLOBAL__N_121system_error_categoryE
                0x00018bc4        0xc /Users/Max/android-ndk-r8e/sources/cxx-stl/gnu-libstdc++/4.4.3/libs/armeabi/libgnustl_static.a(system_error.o)
 .data.rel.ro._ZTVSt12system_error
                0x00018bd0       0x18 /Users/Max/android-ndk-r8e/sources/cxx-stl/gnu-libstdc++/4.4.3/libs/armeabi/libgnustl_static.a(system_error.o)
                0x00018bd0                _ZTVSt12system_error
 .data.rel.ro._ZTVSt14error_category
                0x00018be8       0x28 /Users/Max/android-ndk-r8e/sources/cxx-stl/gnu-libstdc++/4.4.3/libs/armeabi/libgnustl_static.a(system_error.o)
                0x00018be8                _ZTVSt14error_category
 .data.rel.ro._ZTISt12system_error
                0x00018c10        0xc /Users/Max/android-ndk-r8e/sources/cxx-stl/gnu-libstdc++/4.4.3/libs/armeabi/libgnustl_static.a(system_error.o)
                0x00018c10                _ZTISt12system_error
 *fill*         0x00018c1c        0x4 00
 .data.rel.ro._ZTVN12_GLOBAL__N_122generic_error_categoryE
                0x00018c20       0x28 /Users/Max/android-ndk-r8e/sources/cxx-stl/gnu-libstdc++/4.4.3/libs/armeabi/libgnustl_static.a(system_error.o)
 .data.rel.ro._ZTISt14error_category
                0x00018c48        0x8 /Users/Max/android-ndk-r8e/sources/cxx-stl/gnu-libstdc++/4.4.3/libs/armeabi/libgnustl_static.a(system_error.o)
                0x00018c48                _ZTISt14error_category
 .data.rel.ro._ZTIN12_GLOBAL__N_122generic_error_categoryE
                0x00018c50        0xc /Users/Max/android-ndk-r8e/sources/cxx-stl/gnu-libstdc++/4.4.3/libs/armeabi/libgnustl_static.a(system_error.o)
 *fill*         0x00018c5c        0x4 00
 .data.rel.ro._ZTVN12_GLOBAL__N_121system_error_categoryE
                0x00018c60       0x28 /Users/Max/android-ndk-r8e/sources/cxx-stl/gnu-libstdc++/4.4.3/libs/armeabi/libgnustl_static.a(system_error.o)
 .data.rel.ro._ZTISt8bad_cast
                0x00018c88        0xc /Users/Max/android-ndk-r8e/sources/cxx-stl/gnu-libstdc++/4.4.3/libs/armeabi/libgnustl_static.a(bad_cast.o)
                0x00018c88                _ZTISt8bad_cast
 *fill*         0x00018c94        0x4 00
 .data.rel.ro._ZTVSt8bad_cast
                0x00018c98       0x18 /Users/Max/android-ndk-r8e/sources/cxx-stl/gnu-libstdc++/4.4.3/libs/armeabi/libgnustl_static.a(bad_cast.o)
                0x00018c98                _ZTVSt8bad_cast
 .data.rel.ro._ZTVSt10bad_typeid
                0x00018cb0       0x18 /Users/Max/android-ndk-r8e/sources/cxx-stl/gnu-libstdc++/4.4.3/libs/armeabi/libgnustl_static.a(bad_typeid.o)
                0x00018cb0                _ZTVSt10bad_typeid
 .data.rel.ro._ZTISt10bad_typeid
                0x00018cc8        0xc /Users/Max/android-ndk-r8e/sources/cxx-stl/gnu-libstdc++/4.4.3/libs/armeabi/libgnustl_static.a(bad_typeid.o)
                0x00018cc8                _ZTISt10bad_typeid
 *fill*         0x00018cd4        0x4 00
 .data.rel.ro._ZTVN10__cxxabiv117__class_type_infoE
                0x00018cd8       0x30 /Users/Max/android-ndk-r8e/sources/cxx-stl/gnu-libstdc++/4.4.3/libs/armeabi/libgnustl_static.a(class_type_info.o)
                0x00018cd8                _ZTVN10__cxxabiv117__class_type_infoE
 .data.rel.ro._ZTIN10__cxxabiv117__class_type_infoE
                0x00018d08        0xc /Users/Max/android-ndk-r8e/sources/cxx-stl/gnu-libstdc++/4.4.3/libs/armeabi/libgnustl_static.a(class_type_info.o)
                0x00018d08                _ZTIN10__cxxabiv117__class_type_infoE
 .data.rel.ro._ZTISt9bad_alloc
                0x00018d14        0xc /Users/Max/android-ndk-r8e/sources/cxx-stl/gnu-libstdc++/4.4.3/libs/armeabi/libgnustl_static.a(new_handler.o)
                0x00018d14                _ZTISt9bad_alloc
 .data.rel.ro._ZTVSt9bad_alloc
                0x00018d20       0x18 /Users/Max/android-ndk-r8e/sources/cxx-stl/gnu-libstdc++/4.4.3/libs/armeabi/libgnustl_static.a(new_handler.o)
                0x00018d20                _ZTVSt9bad_alloc
 .data.rel.ro._ZTVN10__cxxabiv117__pbase_type_infoE
                0x00018d38       0x28 /Users/Max/android-ndk-r8e/sources/cxx-stl/gnu-libstdc++/4.4.3/libs/armeabi/libgnustl_static.a(pbase_type_info.o)
                0x00018d38                _ZTVN10__cxxabiv117__pbase_type_infoE
 .data.rel.ro._ZTIN10__cxxabiv117__pbase_type_infoE
                0x00018d60        0xc /Users/Max/android-ndk-r8e/sources/cxx-stl/gnu-libstdc++/4.4.3/libs/armeabi/libgnustl_static.a(pbase_type_info.o)
                0x00018d60                _ZTIN10__cxxabiv117__pbase_type_infoE

.dynamic        0x00018d6c       0xf8
 *(.dynamic)
 .dynamic       0x00018d6c       0xf8 /Users/Max/android-ndk-r8e/platforms/android-9/arch-arm/usr/lib/crtbegin_so.o
                0x00018d6c                _DYNAMIC

.got            0x00018e64      0x19c
 *(.got.plt)
 .got.plt       0x00018e64       0xac /Users/Max/android-ndk-r8e/platforms/android-9/arch-arm/usr/lib/crtbegin_so.o
                0x00018e64                _GLOBAL_OFFSET_TABLE_
 *(.got)
 .got           0x00018f10       0xf0 /Users/Max/android-ndk-r8e/platforms/android-9/arch-arm/usr/lib/crtbegin_so.o
                0x00019000                . = (. DATA_SEGMENT_RELRO_END 0x0)

.data           0x00019000        0xc
                0x00019000                __data_start = .
 *(.data .data.* .gnu.linkonce.d.*)
 .data          0x00019000        0x4 /Users/Max/android-ndk-r8e/platforms/android-9/arch-arm/usr/lib/crtbegin_so.o
                0x00019000                __dso_handle
 .data          0x00019004        0x0 release/s3ePushWoosh_platform.os
 .data          0x00019004        0x0 release/s3ePushWoosh.os
 .data          0x00019004        0x0 release/s3ePushWoosh_register.os
 .data          0x00019004        0x0 /Applications/Marmalade.app/Contents/s3e/edk/lib/android/libedk.a(edk_helpers.o)
 .data          0x00019004        0x0 /Users/Max/android-ndk-r8e/sources/cxx-stl/gnu-libstdc++/4.4.3/libs/armeabi/libgnustl_static.a(string-inst.o)
 .data          0x00019004        0x0 /Users/Max/android-ndk-r8e/sources/cxx-stl/gnu-libstdc++/4.4.3/libs/armeabi/libgnustl_static.a(atomicity.o)
 .data          0x00019004        0x0 /Users/Max/android-ndk-r8e/sources/cxx-stl/gnu-libstdc++/4.4.3/libs/armeabi/libgnustl_static.a(atexit_arm.o)
 .data          0x00019004        0x0 /Users/Max/android-ndk-r8e/sources/cxx-stl/gnu-libstdc++/4.4.3/libs/armeabi/libgnustl_static.a(del_op.o)
 .data          0x00019004        0x0 /Users/Max/android-ndk-r8e/sources/cxx-stl/gnu-libstdc++/4.4.3/libs/armeabi/libgnustl_static.a(eh_alloc.o)
 .data          0x00019004        0x0 /Users/Max/android-ndk-r8e/sources/cxx-stl/gnu-libstdc++/4.4.3/libs/armeabi/libgnustl_static.a(eh_arm.o)
 .data          0x00019004        0x0 /Users/Max/android-ndk-r8e/sources/cxx-stl/gnu-libstdc++/4.4.3/libs/armeabi/libgnustl_static.a(eh_aux_runtime.o)
 .data          0x00019004        0x0 /Users/Max/android-ndk-r8e/sources/cxx-stl/gnu-libstdc++/4.4.3/libs/armeabi/libgnustl_static.a(eh_call.o)
 .data          0x00019004        0x0 /Users/Max/android-ndk-r8e/sources/cxx-stl/gnu-libstdc++/4.4.3/libs/armeabi/libgnustl_static.a(eh_catch.o)
 .data          0x00019004        0x0 /Users/Max/android-ndk-r8e/sources/cxx-stl/gnu-libstdc++/4.4.3/libs/armeabi/libgnustl_static.a(eh_exception.o)
 .data          0x00019004        0x0 /Users/Max/android-ndk-r8e/sources/cxx-stl/gnu-libstdc++/4.4.3/libs/armeabi/libgnustl_static.a(eh_globals.o)
 .data          0x00019004        0x0 /Users/Max/android-ndk-r8e/sources/cxx-stl/gnu-libstdc++/4.4.3/libs/armeabi/libgnustl_static.a(eh_personality.o)
 .data          0x00019004        0x0 /Users/Max/android-ndk-r8e/sources/cxx-stl/gnu-libstdc++/4.4.3/libs/armeabi/libgnustl_static.a(eh_terminate.o)
 .data          0x00019004        0x0 /Users/Max/android-ndk-r8e/sources/cxx-stl/gnu-libstdc++/4.4.3/libs/armeabi/libgnustl_static.a(eh_throw.o)
 .data          0x00019004        0x0 /Users/Max/android-ndk-r8e/sources/cxx-stl/gnu-libstdc++/4.4.3/libs/armeabi/libgnustl_static.a(eh_unex_handler.o)
 .data.rel._ZN10__cxxabiv120__unexpected_handlerE
                0x00019004        0x4 /Users/Max/android-ndk-r8e/sources/cxx-stl/gnu-libstdc++/4.4.3/libs/armeabi/libgnustl_static.a(eh_unex_handler.o)
                0x00019004                _ZN10__cxxabiv120__unexpected_handlerE
 .data          0x00019008        0x0 /Users/Max/android-ndk-r8e/sources/cxx-stl/gnu-libstdc++/4.4.3/libs/armeabi/libgnustl_static.a(fundamental_type_info.o)
 .data          0x00019008        0x0 /Users/Max/android-ndk-r8e/sources/cxx-stl/gnu-libstdc++/4.4.3/libs/armeabi/libgnustl_static.a(guard.o)
 .data          0x00019008        0x0 /Users/Max/android-ndk-r8e/sources/cxx-stl/gnu-libstdc++/4.4.3/libs/armeabi/libgnustl_static.a(new_op.o)
 .data          0x00019008        0x0 /Users/Max/android-ndk-r8e/sources/cxx-stl/gnu-libstdc++/4.4.3/libs/armeabi/libgnustl_static.a(pointer_type_info.o)
 .data          0x00019008        0x0 /Users/Max/android-ndk-r8e/sources/cxx-stl/gnu-libstdc++/4.4.3/libs/armeabi/libgnustl_static.a(pure.o)
 .data          0x00019008        0x0 /Users/Max/android-ndk-r8e/sources/cxx-stl/gnu-libstdc++/4.4.3/libs/armeabi/libgnustl_static.a(si_class_type_info.o)
 .data          0x00019008        0x0 /Users/Max/android-ndk-r8e/sources/cxx-stl/gnu-libstdc++/4.4.3/libs/armeabi/libgnustl_static.a(tinfo.o)
 .data          0x00019008        0x0 /Users/Max/android-ndk-r8e/sources/cxx-stl/gnu-libstdc++/4.4.3/libs/armeabi/libgnustl_static.a(functexcept.o)
 .data          0x00019008        0x0 /Users/Max/android-ndk-r8e/sources/cxx-stl/gnu-libstdc++/4.4.3/libs/armeabi/libgnustl_static.a(ios_failure.o)
 .data          0x00019008        0x0 /Users/Max/android-ndk-r8e/sources/cxx-stl/gnu-libstdc++/4.4.3/libs/armeabi/libgnustl_static.a(stdexcept.o)
 .data          0x00019008        0x0 /Users/Max/android-ndk-r8e/sources/cxx-stl/gnu-libstdc++/4.4.3/libs/armeabi/libgnustl_static.a(system_error.o)
 .data          0x00019008        0x0 /Users/Max/android-ndk-r8e/sources/cxx-stl/gnu-libstdc++/4.4.3/libs/armeabi/libgnustl_static.a(bad_cast.o)
 .data          0x00019008        0x0 /Users/Max/android-ndk-r8e/sources/cxx-stl/gnu-libstdc++/4.4.3/libs/armeabi/libgnustl_static.a(bad_typeid.o)
 .data          0x00019008        0x0 /Users/Max/android-ndk-r8e/sources/cxx-stl/gnu-libstdc++/4.4.3/libs/armeabi/libgnustl_static.a(class_type_info.o)
 .data          0x00019008        0x0 /Users/Max/android-ndk-r8e/sources/cxx-stl/gnu-libstdc++/4.4.3/libs/armeabi/libgnustl_static.a(eh_term_handler.o)
 .data.rel._ZN10__cxxabiv119__terminate_handlerE
                0x00019008        0x4 /Users/Max/android-ndk-r8e/sources/cxx-stl/gnu-libstdc++/4.4.3/libs/armeabi/libgnustl_static.a(eh_term_handler.o)
                0x00019008                _ZN10__cxxabiv119__terminate_handlerE
 .data          0x0001900c        0x0 /Users/Max/android-ndk-r8e/sources/cxx-stl/gnu-libstdc++/4.4.3/libs/armeabi/libgnustl_static.a(new_handler.o)
 .data          0x0001900c        0x0 /Users/Max/android-ndk-r8e/sources/cxx-stl/gnu-libstdc++/4.4.3/libs/armeabi/libgnustl_static.a(pbase_type_info.o)
 .data          0x0001900c        0x0 /Users/Max/android-ndk-r8e/sources/cxx-stl/gnu-libstdc++/4.4.3/libs/armeabi/libgnustl_static.a(vterminate.o)
 .data          0x0001900c        0x0 /Users/Max/android-ndk-r8e/sources/cxx-stl/gnu-libstdc++/4.4.3/libs/armeabi/libgnustl_static.a(cp-demangle.o)
 .data          0x0001900c        0x0 /Users/Max/android-ndk-r8e/sources/cxx-stl/gnu-libstdc++/4.4.3/libs/armeabi/libgnustl_static.a(eh_type.o)
 .data          0x0001900c        0x0 /Users/Max/android-ndk-r8e/toolchains/arm-linux-androideabi-4.4.3/prebuilt/darwin-x86/bin/../lib/gcc/arm-linux-androideabi/4.4.3/libgcc.a(unwind-arm.o)
 .data          0x0001900c        0x0 /Users/Max/android-ndk-r8e/toolchains/arm-linux-androideabi-4.4.3/prebuilt/darwin-x86/bin/../lib/gcc/arm-linux-androideabi/4.4.3/libgcc.a(libunwind.o)
 .data          0x0001900c        0x0 /Users/Max/android-ndk-r8e/toolchains/arm-linux-androideabi-4.4.3/prebuilt/darwin-x86/bin/../lib/gcc/arm-linux-androideabi/4.4.3/libgcc.a(pr-support.o)
 .data          0x0001900c        0x0 /Users/Max/android-ndk-r8e/platforms/android-9/arch-arm/usr/lib/crtend_so.o

.data1
 *(.data1)
                0x0001900c                _edata = .
                0x0001900c                PROVIDE (edata, .)
                0x0001900c                __bss_start = .
                0x0001900c                __bss_start__ = .

.bss            0x00019010     0x4fa4
 *(.dynbss)
 .dynbss        0x00000000        0x0 /Users/Max/android-ndk-r8e/platforms/android-9/arch-arm/usr/lib/crtbegin_so.o
 *(.bss .bss.* .gnu.linkonce.b.*)
 .bss           0x00019010        0x0 /Users/Max/android-ndk-r8e/platforms/android-9/arch-arm/usr/lib/crtbegin_so.o
 .bss           0x00019010       0x44 release/s3ePushWoosh_platform.os
                0x00019014                g_errorMessage
                0x00019010                g_pushToken
                0x00019018                g_pushPayload
 .bss           0x00019054        0x0 release/s3ePushWoosh.os
 .bss           0x00019054        0x0 release/s3ePushWoosh_register.os
 .bss           0x00019054        0x0 /Applications/Marmalade.app/Contents/s3e/edk/lib/android/libedk.a(edk_helpers.o)
 .bss           0x00019054        0x0 /Users/Max/android-ndk-r8e/sources/cxx-stl/gnu-libstdc++/4.4.3/libs/armeabi/libgnustl_static.a(string-inst.o)
 .bss._ZNSs4_Rep20_S_empty_rep_storageE
                0x00019054       0x10 /Users/Max/android-ndk-r8e/sources/cxx-stl/gnu-libstdc++/4.4.3/libs/armeabi/libgnustl_static.a(string-inst.o)
                0x00019054                _ZNSs4_Rep20_S_empty_rep_storageE
 .bss           0x00019064        0x0 /Users/Max/android-ndk-r8e/sources/cxx-stl/gnu-libstdc++/4.4.3/libs/armeabi/libgnustl_static.a(atomicity.o)
 .bss._ZGVZN12_GLOBAL__N_116get_atomic_mutexEvE12atomic_mutex
                0x00019064        0x4 /Users/Max/android-ndk-r8e/sources/cxx-stl/gnu-libstdc++/4.4.3/libs/armeabi/libgnustl_static.a(atomicity.o)
 .bss._ZZN12_GLOBAL__N_116get_atomic_mutexEvE12atomic_mutex
                0x00019068        0x4 /Users/Max/android-ndk-r8e/sources/cxx-stl/gnu-libstdc++/4.4.3/libs/armeabi/libgnustl_static.a(atomicity.o)
 .bss           0x0001906c        0x0 /Users/Max/android-ndk-r8e/sources/cxx-stl/gnu-libstdc++/4.4.3/libs/armeabi/libgnustl_static.a(atexit_arm.o)
 .bss           0x0001906c        0x0 /Users/Max/android-ndk-r8e/sources/cxx-stl/gnu-libstdc++/4.4.3/libs/armeabi/libgnustl_static.a(del_op.o)
 .bss           0x0001906c        0x0 /Users/Max/android-ndk-r8e/sources/cxx-stl/gnu-libstdc++/4.4.3/libs/armeabi/libgnustl_static.a(eh_alloc.o)
 .bss._ZL15dependents_used
                0x0001906c        0x4 /Users/Max/android-ndk-r8e/sources/cxx-stl/gnu-libstdc++/4.4.3/libs/armeabi/libgnustl_static.a(eh_alloc.o)
 .bss._ZL17dependents_buffer
                0x00019070      0xf00 /Users/Max/android-ndk-r8e/sources/cxx-stl/gnu-libstdc++/4.4.3/libs/armeabi/libgnustl_static.a(eh_alloc.o)
 .bss._ZN12_GLOBAL__N_115emergency_mutexE
                0x00019f70        0x4 /Users/Max/android-ndk-r8e/sources/cxx-stl/gnu-libstdc++/4.4.3/libs/armeabi/libgnustl_static.a(eh_alloc.o)
 .bss._ZL14emergency_used
                0x00019f74        0x4 /Users/Max/android-ndk-r8e/sources/cxx-stl/gnu-libstdc++/4.4.3/libs/armeabi/libgnustl_static.a(eh_alloc.o)
 .bss._ZL16emergency_buffer
                0x00019f78     0x4000 /Users/Max/android-ndk-r8e/sources/cxx-stl/gnu-libstdc++/4.4.3/libs/armeabi/libgnustl_static.a(eh_alloc.o)
 .bss           0x0001df78        0x0 /Users/Max/android-ndk-r8e/sources/cxx-stl/gnu-libstdc++/4.4.3/libs/armeabi/libgnustl_static.a(eh_arm.o)
 .bss           0x0001df78        0x0 /Users/Max/android-ndk-r8e/sources/cxx-stl/gnu-libstdc++/4.4.3/libs/armeabi/libgnustl_static.a(eh_aux_runtime.o)
 .bss           0x0001df78        0x0 /Users/Max/android-ndk-r8e/sources/cxx-stl/gnu-libstdc++/4.4.3/libs/armeabi/libgnustl_static.a(eh_call.o)
 .bss           0x0001df78        0x0 /Users/Max/android-ndk-r8e/sources/cxx-stl/gnu-libstdc++/4.4.3/libs/armeabi/libgnustl_static.a(eh_catch.o)
 .bss           0x0001df78        0x0 /Users/Max/android-ndk-r8e/sources/cxx-stl/gnu-libstdc++/4.4.3/libs/armeabi/libgnustl_static.a(eh_exception.o)
 .bss           0x0001df78        0x0 /Users/Max/android-ndk-r8e/sources/cxx-stl/gnu-libstdc++/4.4.3/libs/armeabi/libgnustl_static.a(eh_globals.o)
 .bss._ZL4init  0x0001df78        0x8 /Users/Max/android-ndk-r8e/sources/cxx-stl/gnu-libstdc++/4.4.3/libs/armeabi/libgnustl_static.a(eh_globals.o)
 .bss._ZL10eh_globals
                0x0001df80        0xc /Users/Max/android-ndk-r8e/sources/cxx-stl/gnu-libstdc++/4.4.3/libs/armeabi/libgnustl_static.a(eh_globals.o)
 .bss           0x0001df8c        0x0 /Users/Max/android-ndk-r8e/sources/cxx-stl/gnu-libstdc++/4.4.3/libs/armeabi/libgnustl_static.a(eh_personality.o)
 .bss           0x0001df8c        0x0 /Users/Max/android-ndk-r8e/sources/cxx-stl/gnu-libstdc++/4.4.3/libs/armeabi/libgnustl_static.a(eh_terminate.o)
 .bss           0x0001df8c        0x0 /Users/Max/android-ndk-r8e/sources/cxx-stl/gnu-libstdc++/4.4.3/libs/armeabi/libgnustl_static.a(eh_throw.o)
 .bss           0x0001df8c        0x0 /Users/Max/android-ndk-r8e/sources/cxx-stl/gnu-libstdc++/4.4.3/libs/armeabi/libgnustl_static.a(eh_unex_handler.o)
 .bss           0x0001df8c        0x0 /Users/Max/android-ndk-r8e/sources/cxx-stl/gnu-libstdc++/4.4.3/libs/armeabi/libgnustl_static.a(fundamental_type_info.o)
 .bss           0x0001df8c        0x0 /Users/Max/android-ndk-r8e/sources/cxx-stl/gnu-libstdc++/4.4.3/libs/armeabi/libgnustl_static.a(guard.o)
 .bss._ZN12_GLOBAL__N_1L12static_mutexE
                0x0001df8c        0x4 /Users/Max/android-ndk-r8e/sources/cxx-stl/gnu-libstdc++/4.4.3/libs/armeabi/libgnustl_static.a(guard.o)
 .bss._ZN12_GLOBAL__N_19fake_condE
                0x0001df90        0x4 /Users/Max/android-ndk-r8e/sources/cxx-stl/gnu-libstdc++/4.4.3/libs/armeabi/libgnustl_static.a(guard.o)
 .bss._ZZN12_GLOBAL__N_116get_static_mutexEvE4once
                0x0001df94        0x4 /Users/Max/android-ndk-r8e/sources/cxx-stl/gnu-libstdc++/4.4.3/libs/armeabi/libgnustl_static.a(guard.o)
 .bss._ZN12_GLOBAL__N_110fake_mutexE
                0x0001df98        0x4 /Users/Max/android-ndk-r8e/sources/cxx-stl/gnu-libstdc++/4.4.3/libs/armeabi/libgnustl_static.a(guard.o)
 .bss._ZZN12_GLOBAL__N_115get_static_condEvE4once
                0x0001df9c        0x4 /Users/Max/android-ndk-r8e/sources/cxx-stl/gnu-libstdc++/4.4.3/libs/armeabi/libgnustl_static.a(guard.o)
 .bss._ZN12_GLOBAL__N_1L11static_condE
                0x0001dfa0        0x4 /Users/Max/android-ndk-r8e/sources/cxx-stl/gnu-libstdc++/4.4.3/libs/armeabi/libgnustl_static.a(guard.o)
 .bss           0x0001dfa4        0x0 /Users/Max/android-ndk-r8e/sources/cxx-stl/gnu-libstdc++/4.4.3/libs/armeabi/libgnustl_static.a(new_op.o)
 .bss           0x0001dfa4        0x0 /Users/Max/android-ndk-r8e/sources/cxx-stl/gnu-libstdc++/4.4.3/libs/armeabi/libgnustl_static.a(pointer_type_info.o)
 .bss           0x0001dfa4        0x0 /Users/Max/android-ndk-r8e/sources/cxx-stl/gnu-libstdc++/4.4.3/libs/armeabi/libgnustl_static.a(pure.o)
 .bss           0x0001dfa4        0x0 /Users/Max/android-ndk-r8e/sources/cxx-stl/gnu-libstdc++/4.4.3/libs/armeabi/libgnustl_static.a(si_class_type_info.o)
 .bss           0x0001dfa4        0x0 /Users/Max/android-ndk-r8e/sources/cxx-stl/gnu-libstdc++/4.4.3/libs/armeabi/libgnustl_static.a(tinfo.o)
 .bss           0x0001dfa4        0x0 /Users/Max/android-ndk-r8e/sources/cxx-stl/gnu-libstdc++/4.4.3/libs/armeabi/libgnustl_static.a(functexcept.o)
 .bss           0x0001dfa4        0x0 /Users/Max/android-ndk-r8e/sources/cxx-stl/gnu-libstdc++/4.4.3/libs/armeabi/libgnustl_static.a(ios_failure.o)
 .bss           0x0001dfa4        0x0 /Users/Max/android-ndk-r8e/sources/cxx-stl/gnu-libstdc++/4.4.3/libs/armeabi/libgnustl_static.a(stdexcept.o)
 .bss           0x0001dfa4        0x0 /Users/Max/android-ndk-r8e/sources/cxx-stl/gnu-libstdc++/4.4.3/libs/armeabi/libgnustl_static.a(system_error.o)
 .bss._ZN12_GLOBAL__N_1L24system_category_instanceE
                0x0001dfa4        0x4 /Users/Max/android-ndk-r8e/sources/cxx-stl/gnu-libstdc++/4.4.3/libs/armeabi/libgnustl_static.a(system_error.o)
 .bss._ZN12_GLOBAL__N_1L25generic_category_instanceE
                0x0001dfa8        0x4 /Users/Max/android-ndk-r8e/sources/cxx-stl/gnu-libstdc++/4.4.3/libs/armeabi/libgnustl_static.a(system_error.o)
 .bss           0x0001dfac        0x0 /Users/Max/android-ndk-r8e/sources/cxx-stl/gnu-libstdc++/4.4.3/libs/armeabi/libgnustl_static.a(bad_cast.o)
 .bss           0x0001dfac        0x0 /Users/Max/android-ndk-r8e/sources/cxx-stl/gnu-libstdc++/4.4.3/libs/armeabi/libgnustl_static.a(bad_typeid.o)
 .bss           0x0001dfac        0x0 /Users/Max/android-ndk-r8e/sources/cxx-stl/gnu-libstdc++/4.4.3/libs/armeabi/libgnustl_static.a(class_type_info.o)
 .bss           0x0001dfac        0x0 /Users/Max/android-ndk-r8e/sources/cxx-stl/gnu-libstdc++/4.4.3/libs/armeabi/libgnustl_static.a(eh_term_handler.o)
 .bss           0x0001dfac        0x0 /Users/Max/android-ndk-r8e/sources/cxx-stl/gnu-libstdc++/4.4.3/libs/armeabi/libgnustl_static.a(new_handler.o)
 .bss.__new_handler
                0x0001dfac        0x4 /Users/Max/android-ndk-r8e/sources/cxx-stl/gnu-libstdc++/4.4.3/libs/armeabi/libgnustl_static.a(new_handler.o)
                0x0001dfac                __new_handler
 .bss           0x0001dfb0        0x0 /Users/Max/android-ndk-r8e/sources/cxx-stl/gnu-libstdc++/4.4.3/libs/armeabi/libgnustl_static.a(pbase_type_info.o)
 .bss           0x0001dfb0        0x0 /Users/Max/android-ndk-r8e/sources/cxx-stl/gnu-libstdc++/4.4.3/libs/armeabi/libgnustl_static.a(vterminate.o)
 .bss._ZZN9__gnu_cxx27__verbose_terminate_handlerEvE11terminating
                0x0001dfb0        0x1 /Users/Max/android-ndk-r8e/sources/cxx-stl/gnu-libstdc++/4.4.3/libs/armeabi/libgnustl_static.a(vterminate.o)
 .bss           0x0001dfb1        0x0 /Users/Max/android-ndk-r8e/sources/cxx-stl/gnu-libstdc++/4.4.3/libs/armeabi/libgnustl_static.a(cp-demangle.o)
 .bss           0x0001dfb1        0x0 /Users/Max/android-ndk-r8e/sources/cxx-stl/gnu-libstdc++/4.4.3/libs/armeabi/libgnustl_static.a(eh_type.o)
 .bss           0x0001dfb1        0x0 /Users/Max/android-ndk-r8e/toolchains/arm-linux-androideabi-4.4.3/prebuilt/darwin-x86/bin/../lib/gcc/arm-linux-androideabi/4.4.3/libgcc.a(unwind-arm.o)
 .bss           0x0001dfb1        0x0 /Users/Max/android-ndk-r8e/toolchains/arm-linux-androideabi-4.4.3/prebuilt/darwin-x86/bin/../lib/gcc/arm-linux-androideabi/4.4.3/libgcc.a(libunwind.o)
 .bss           0x0001dfb1        0x0 /Users/Max/android-ndk-r8e/toolchains/arm-linux-androideabi-4.4.3/prebuilt/darwin-x86/bin/../lib/gcc/arm-linux-androideabi/4.4.3/libgcc.a(pr-support.o)
 .bss           0x0001dfb1        0x0 /Users/Max/android-ndk-r8e/platforms/android-9/arch-arm/usr/lib/crtend_so.o
 *(COMMON)
                0x0001dfb4                . = ALIGN ((. != 0x0)?0x4:0x1)
 *fill*         0x0001dfb1        0x3 00
                0x0001dfb4                _bss_end__ = .
                0x0001dfb4                __bss_end__ = .
                0x0001dfb4                . = ALIGN (0x4)
                0x0001dfb4                . = ALIGN (0x4)
                0x0001dfb4                __end__ = .
                0x0001dfb4                _end = .
                0x0001dfb4                PROVIDE (end, .)
                0x0001dfb4                . = DATA_SEGMENT_END (.)

.stab
 *(.stab)

.stabstr
 *(.stabstr)

.stab.excl
 *(.stab.excl)

.stab.exclstr
 *(.stab.exclstr)

.stab.index
 *(.stab.index)

.stab.indexstr
 *(.stab.indexstr)

.comment        0x00000000      0x307
 *(.comment)
 .comment       0x00000000       0x25 /Users/Max/android-ndk-r8e/platforms/android-9/arch-arm/usr/lib/crtbegin_so.o
                                 0x26 (size before relaxing)
 .comment       0x00000025       0x12 release/s3ePushWoosh_platform.os
 .comment       0x00000037       0x12 release/s3ePushWoosh.os
 .comment       0x00000049       0x12 release/s3ePushWoosh_register.os
 .comment       0x0000005b       0x12 /Applications/Marmalade.app/Contents/s3e/edk/lib/android/libedk.a(edk_helpers.o)
 .comment       0x0000006d       0x12 /Users/Max/android-ndk-r8e/sources/cxx-stl/gnu-libstdc++/4.4.3/libs/armeabi/libgnustl_static.a(string-inst.o)
 .comment       0x0000007f       0x12 /Users/Max/android-ndk-r8e/sources/cxx-stl/gnu-libstdc++/4.4.3/libs/armeabi/libgnustl_static.a(atomicity.o)
 .comment       0x00000091       0x12 /Users/Max/android-ndk-r8e/sources/cxx-stl/gnu-libstdc++/4.4.3/libs/armeabi/libgnustl_static.a(atexit_arm.o)
 .comment       0x000000a3       0x12 /Users/Max/android-ndk-r8e/sources/cxx-stl/gnu-libstdc++/4.4.3/libs/armeabi/libgnustl_static.a(del_op.o)
 .comment       0x000000b5       0x12 /Users/Max/android-ndk-r8e/sources/cxx-stl/gnu-libstdc++/4.4.3/libs/armeabi/libgnustl_static.a(eh_alloc.o)
 .comment       0x000000c7       0x12 /Users/Max/android-ndk-r8e/sources/cxx-stl/gnu-libstdc++/4.4.3/libs/armeabi/libgnustl_static.a(eh_arm.o)
 .comment       0x000000d9       0x12 /Users/Max/android-ndk-r8e/sources/cxx-stl/gnu-libstdc++/4.4.3/libs/armeabi/libgnustl_static.a(eh_aux_runtime.o)
 .comment       0x000000eb       0x12 /Users/Max/android-ndk-r8e/sources/cxx-stl/gnu-libstdc++/4.4.3/libs/armeabi/libgnustl_static.a(eh_call.o)
 .comment       0x000000fd       0x12 /Users/Max/android-ndk-r8e/sources/cxx-stl/gnu-libstdc++/4.4.3/libs/armeabi/libgnustl_static.a(eh_catch.o)
 .comment       0x0000010f       0x12 /Users/Max/android-ndk-r8e/sources/cxx-stl/gnu-libstdc++/4.4.3/libs/armeabi/libgnustl_static.a(eh_exception.o)
 .comment       0x00000121       0x12 /Users/Max/android-ndk-r8e/sources/cxx-stl/gnu-libstdc++/4.4.3/libs/armeabi/libgnustl_static.a(eh_globals.o)
 .comment       0x00000133       0x12 /Users/Max/android-ndk-r8e/sources/cxx-stl/gnu-libstdc++/4.4.3/libs/armeabi/libgnustl_static.a(eh_personality.o)
 .comment       0x00000145       0x12 /Users/Max/android-ndk-r8e/sources/cxx-stl/gnu-libstdc++/4.4.3/libs/armeabi/libgnustl_static.a(eh_terminate.o)
 .comment       0x00000157       0x12 /Users/Max/android-ndk-r8e/sources/cxx-stl/gnu-libstdc++/4.4.3/libs/armeabi/libgnustl_static.a(eh_throw.o)
 .comment       0x00000169       0x12 /Users/Max/android-ndk-r8e/sources/cxx-stl/gnu-libstdc++/4.4.3/libs/armeabi/libgnustl_static.a(eh_unex_handler.o)
 .comment       0x0000017b       0x12 /Users/Max/android-ndk-r8e/sources/cxx-stl/gnu-libstdc++/4.4.3/libs/armeabi/libgnustl_static.a(fundamental_type_info.o)
 .comment       0x0000018d       0x12 /Users/Max/android-ndk-r8e/sources/cxx-stl/gnu-libstdc++/4.4.3/libs/armeabi/libgnustl_static.a(guard.o)
 .comment       0x0000019f       0x12 /Users/Max/android-ndk-r8e/sources/cxx-stl/gnu-libstdc++/4.4.3/libs/armeabi/libgnustl_static.a(new_op.o)
 .comment       0x000001b1       0x12 /Users/Max/android-ndk-r8e/sources/cxx-stl/gnu-libstdc++/4.4.3/libs/armeabi/libgnustl_static.a(pointer_type_info.o)
 .comment       0x000001c3       0x12 /Users/Max/android-ndk-r8e/sources/cxx-stl/gnu-libstdc++/4.4.3/libs/armeabi/libgnustl_static.a(pure.o)
 .comment       0x000001d5       0x12 /Users/Max/android-ndk-r8e/sources/cxx-stl/gnu-libstdc++/4.4.3/libs/armeabi/libgnustl_static.a(si_class_type_info.o)
 .comment       0x000001e7       0x12 /Users/Max/android-ndk-r8e/sources/cxx-stl/gnu-libstdc++/4.4.3/libs/armeabi/libgnustl_static.a(tinfo.o)
 .comment       0x000001f9       0x12 /Users/Max/android-ndk-r8e/sources/cxx-stl/gnu-libstdc++/4.4.3/libs/armeabi/libgnustl_static.a(functexcept.o)
 .comment       0x0000020b       0x12 /Users/Max/android-ndk-r8e/sources/cxx-stl/gnu-libstdc++/4.4.3/libs/armeabi/libgnustl_static.a(ios_failure.o)
 .comment       0x0000021d       0x12 /Users/Max/android-ndk-r8e/sources/cxx-stl/gnu-libstdc++/4.4.3/libs/armeabi/libgnustl_static.a(stdexcept.o)
 .comment       0x0000022f       0x12 /Users/Max/android-ndk-r8e/sources/cxx-stl/gnu-libstdc++/4.4.3/libs/armeabi/libgnustl_static.a(system_error.o)
 .comment       0x00000241       0x12 /Users/Max/android-ndk-r8e/sources/cxx-stl/gnu-libstdc++/4.4.3/libs/armeabi/libgnustl_static.a(bad_cast.o)
 .comment       0x00000253       0x12 /Users/Max/android-ndk-r8e/sources/cxx-stl/gnu-libstdc++/4.4.3/libs/armeabi/libgnustl_static.a(bad_typeid.o)
 .comment       0x00000265       0x12 /Users/Max/android-ndk-r8e/sources/cxx-stl/gnu-libstdc++/4.4.3/libs/armeabi/libgnustl_static.a(class_type_info.o)
 .comment       0x00000277       0x12 /Users/Max/android-ndk-r8e/sources/cxx-stl/gnu-libstdc++/4.4.3/libs/armeabi/libgnustl_static.a(eh_term_handler.o)
 .comment       0x00000289       0x12 /Users/Max/android-ndk-r8e/sources/cxx-stl/gnu-libstdc++/4.4.3/libs/armeabi/libgnustl_static.a(new_handler.o)
 .comment       0x0000029b       0x12 /Users/Max/android-ndk-r8e/sources/cxx-stl/gnu-libstdc++/4.4.3/libs/armeabi/libgnustl_static.a(pbase_type_info.o)
 .comment       0x000002ad       0x12 /Users/Max/android-ndk-r8e/sources/cxx-stl/gnu-libstdc++/4.4.3/libs/armeabi/libgnustl_static.a(vterminate.o)
 .comment       0x000002bf       0x12 /Users/Max/android-ndk-r8e/sources/cxx-stl/gnu-libstdc++/4.4.3/libs/armeabi/libgnustl_static.a(cp-demangle.o)
 .comment       0x000002d1       0x12 /Users/Max/android-ndk-r8e/sources/cxx-stl/gnu-libstdc++/4.4.3/libs/armeabi/libgnustl_static.a(eh_type.o)
 .comment       0x000002e3       0x12 /Users/Max/android-ndk-r8e/toolchains/arm-linux-androideabi-4.4.3/prebuilt/darwin-x86/bin/../lib/gcc/arm-linux-androideabi/4.4.3/libgcc.a(unwind-arm.o)
 .comment       0x000002f5       0x12 /Users/Max/android-ndk-r8e/toolchains/arm-linux-androideabi-4.4.3/prebuilt/darwin-x86/bin/../lib/gcc/arm-linux-androideabi/4.4.3/libgcc.a(pr-support.o)

.debug
 *(.debug)

.line
 *(.line)

.debug_srcinfo
 *(.debug_srcinfo)

.debug_sfnames
 *(.debug_sfnames)

.debug_aranges  0x00000000       0x60
 *(.debug_aranges)
 .debug_aranges
                0x00000000       0x20 /Users/Max/android-ndk-r8e/toolchains/arm-linux-androideabi-4.4.3/prebuilt/darwin-x86/bin/../lib/gcc/arm-linux-androideabi/4.4.3/libgcc.a(unwind-arm.o)
 .debug_aranges
                0x00000020       0x20 /Users/Max/android-ndk-r8e/toolchains/arm-linux-androideabi-4.4.3/prebuilt/darwin-x86/bin/../lib/gcc/arm-linux-androideabi/4.4.3/libgcc.a(libunwind.o)
 .debug_aranges
                0x00000040       0x20 /Users/Max/android-ndk-r8e/toolchains/arm-linux-androideabi-4.4.3/prebuilt/darwin-x86/bin/../lib/gcc/arm-linux-androideabi/4.4.3/libgcc.a(pr-support.o)

.debug_pubnames
                0x00000000      0x22e
 *(.debug_pubnames)
 .debug_pubnames
                0x00000000      0x177 /Users/Max/android-ndk-r8e/toolchains/arm-linux-androideabi-4.4.3/prebuilt/darwin-x86/bin/../lib/gcc/arm-linux-androideabi/4.4.3/libgcc.a(unwind-arm.o)
 .debug_pubnames
                0x00000177       0xb7 /Users/Max/android-ndk-r8e/toolchains/arm-linux-androideabi-4.4.3/prebuilt/darwin-x86/bin/../lib/gcc/arm-linux-androideabi/4.4.3/libgcc.a(pr-support.o)

.debug_info     0x00000000     0x1b23
 *(.debug_info .gnu.linkonce.wi.*)
 .debug_info    0x00000000     0x1424 /Users/Max/android-ndk-r8e/toolchains/arm-linux-androideabi-4.4.3/prebuilt/darwin-x86/bin/../lib/gcc/arm-linux-androideabi/4.4.3/libgcc.a(unwind-arm.o)
 .debug_info    0x00001424       0xc9 /Users/Max/android-ndk-r8e/toolchains/arm-linux-androideabi-4.4.3/prebuilt/darwin-x86/bin/../lib/gcc/arm-linux-androideabi/4.4.3/libgcc.a(libunwind.o)
 .debug_info    0x000014ed      0x636 /Users/Max/android-ndk-r8e/toolchains/arm-linux-androideabi-4.4.3/prebuilt/darwin-x86/bin/../lib/gcc/arm-linux-androideabi/4.4.3/libgcc.a(pr-support.o)

.debug_abbrev   0x00000000      0x5ef
 *(.debug_abbrev)
 .debug_abbrev  0x00000000      0x3bb /Users/Max/android-ndk-r8e/toolchains/arm-linux-androideabi-4.4.3/prebuilt/darwin-x86/bin/../lib/gcc/arm-linux-androideabi/4.4.3/libgcc.a(unwind-arm.o)
 .debug_abbrev  0x000003bb       0x14 /Users/Max/android-ndk-r8e/toolchains/arm-linux-androideabi-4.4.3/prebuilt/darwin-x86/bin/../lib/gcc/arm-linux-androideabi/4.4.3/libgcc.a(libunwind.o)
 .debug_abbrev  0x000003cf      0x220 /Users/Max/android-ndk-r8e/toolchains/arm-linux-androideabi-4.4.3/prebuilt/darwin-x86/bin/../lib/gcc/arm-linux-androideabi/4.4.3/libgcc.a(pr-support.o)

.debug_line     0x00000000      0x713
 *(.debug_line)
 .debug_line    0x00000000      0x4a2 /Users/Max/android-ndk-r8e/toolchains/arm-linux-androideabi-4.4.3/prebuilt/darwin-x86/bin/../lib/gcc/arm-linux-androideabi/4.4.3/libgcc.a(unwind-arm.o)
 .debug_line    0x000004a2       0xcf /Users/Max/android-ndk-r8e/toolchains/arm-linux-androideabi-4.4.3/prebuilt/darwin-x86/bin/../lib/gcc/arm-linux-androideabi/4.4.3/libgcc.a(libunwind.o)
 .debug_line    0x00000571      0x1a2 /Users/Max/android-ndk-r8e/toolchains/arm-linux-androideabi-4.4.3/prebuilt/darwin-x86/bin/../lib/gcc/arm-linux-androideabi/4.4.3/libgcc.a(pr-support.o)

.debug_frame    0x00000000      0x350
 *(.debug_frame)
 .debug_frame   0x00000000      0x248 /Users/Max/android-ndk-r8e/toolchains/arm-linux-androideabi-4.4.3/prebuilt/darwin-x86/bin/../lib/gcc/arm-linux-androideabi/4.4.3/libgcc.a(unwind-arm.o)
 .debug_frame   0x00000248      0x108 /Users/Max/android-ndk-r8e/toolchains/arm-linux-androideabi-4.4.3/prebuilt/darwin-x86/bin/../lib/gcc/arm-linux-androideabi/4.4.3/libgcc.a(pr-support.o)

.debug_str      0x00000000      0x983
 *(.debug_str)
 .debug_str     0x00000000      0x862 /Users/Max/android-ndk-r8e/toolchains/arm-linux-androideabi-4.4.3/prebuilt/darwin-x86/bin/../lib/gcc/arm-linux-androideabi/4.4.3/libgcc.a(unwind-arm.o)
                                0x8d2 (size before relaxing)
 .debug_str     0x00000862      0x121 /Users/Max/android-ndk-r8e/toolchains/arm-linux-androideabi-4.4.3/prebuilt/darwin-x86/bin/../lib/gcc/arm-linux-androideabi/4.4.3/libgcc.a(pr-support.o)
                                0x438 (size before relaxing)

.debug_loc      0x00000000     0x12e8
 *(.debug_loc)
 .debug_loc     0x00000000      0xfef /Users/Max/android-ndk-r8e/toolchains/arm-linux-androideabi-4.4.3/prebuilt/darwin-x86/bin/../lib/gcc/arm-linux-androideabi/4.4.3/libgcc.a(unwind-arm.o)
 .debug_loc     0x00000fef      0x2f9 /Users/Max/android-ndk-r8e/toolchains/arm-linux-androideabi-4.4.3/prebuilt/darwin-x86/bin/../lib/gcc/arm-linux-androideabi/4.4.3/libgcc.a(pr-support.o)

.debug_macinfo
 *(.debug_macinfo)

.debug_weaknames
 *(.debug_weaknames)

.debug_funcnames
 *(.debug_funcnames)

.debug_typenames
 *(.debug_typenames)

.debug_varnames
 *(.debug_varnames)

.debug_pubtypes
 *(.debug_pubtypes)

.debug_ranges   0x00000000      0x228
 *(.debug_ranges)
 .debug_ranges  0x00000000      0x1f8 /Users/Max/android-ndk-r8e/toolchains/arm-linux-androideabi-4.4.3/prebuilt/darwin-x86/bin/../lib/gcc/arm-linux-androideabi/4.4.3/libgcc.a(unwind-arm.o)
 .debug_ranges  0x000001f8       0x30 /Users/Max/android-ndk-r8e/toolchains/arm-linux-androideabi-4.4.3/prebuilt/darwin-x86/bin/../lib/gcc/arm-linux-androideabi/4.4.3/libgcc.a(pr-support.o)

.gnu.attributes
 *(.gnu.attributes)

.note.gnu.arm.ident
 *(.note.gnu.arm.ident)

/DISCARD/
 *(.note.GNU-stack)
 *(.gnu_debuglink)
OUTPUT(/Users/Max/Desktop/Projects/Pushwoosh/Sources/SDKSamples/Marmalade/s3ePushWoosh/lib/android/libs3ePushWoosh.so elf32-littlearm)

.ARM.attributes
                0x00000000       0x31
 .ARM.attributes
                0x00000000       0x2d /Users/Max/android-ndk-r8e/platforms/android-9/arch-arm/usr/lib/crtbegin_so.o
 .ARM.attributes
                0x0000002d       0x2b release/s3ePushWoosh_platform.os
 .ARM.attributes
                0x00000058       0x2b release/s3ePushWoosh.os
 .ARM.attributes
                0x00000083       0x2b release/s3ePushWoosh_register.os
 .ARM.attributes
                0x000000ae       0x2b /Applications/Marmalade.app/Contents/s3e/edk/lib/android/libedk.a(edk_helpers.o)
 .ARM.attributes
                0x000000d9       0x29 /Users/Max/android-ndk-r8e/sources/cxx-stl/gnu-libstdc++/4.4.3/libs/armeabi/libgnustl_static.a(string-inst.o)
 .ARM.attributes
                0x00000102       0x29 /Users/Max/android-ndk-r8e/sources/cxx-stl/gnu-libstdc++/4.4.3/libs/armeabi/libgnustl_static.a(atomicity.o)
 .ARM.attributes
                0x0000012b       0x29 /Users/Max/android-ndk-r8e/sources/cxx-stl/gnu-libstdc++/4.4.3/libs/armeabi/libgnustl_static.a(atexit_arm.o)
 .ARM.attributes
                0x00000154       0x29 /Users/Max/android-ndk-r8e/sources/cxx-stl/gnu-libstdc++/4.4.3/libs/armeabi/libgnustl_static.a(del_op.o)
 .ARM.attributes
                0x0000017d       0x29 /Users/Max/android-ndk-r8e/sources/cxx-stl/gnu-libstdc++/4.4.3/libs/armeabi/libgnustl_static.a(eh_alloc.o)
 .ARM.attributes
                0x000001a6       0x29 /Users/Max/android-ndk-r8e/sources/cxx-stl/gnu-libstdc++/4.4.3/libs/armeabi/libgnustl_static.a(eh_arm.o)
 .ARM.attributes
                0x000001cf       0x29 /Users/Max/android-ndk-r8e/sources/cxx-stl/gnu-libstdc++/4.4.3/libs/armeabi/libgnustl_static.a(eh_aux_runtime.o)
 .ARM.attributes
                0x000001f8       0x29 /Users/Max/android-ndk-r8e/sources/cxx-stl/gnu-libstdc++/4.4.3/libs/armeabi/libgnustl_static.a(eh_call.o)
 .ARM.attributes
                0x00000221       0x29 /Users/Max/android-ndk-r8e/sources/cxx-stl/gnu-libstdc++/4.4.3/libs/armeabi/libgnustl_static.a(eh_catch.o)
 .ARM.attributes
                0x0000024a       0x29 /Users/Max/android-ndk-r8e/sources/cxx-stl/gnu-libstdc++/4.4.3/libs/armeabi/libgnustl_static.a(eh_exception.o)
 .ARM.attributes
                0x00000273       0x29 /Users/Max/android-ndk-r8e/sources/cxx-stl/gnu-libstdc++/4.4.3/libs/armeabi/libgnustl_static.a(eh_globals.o)
 .ARM.attributes
                0x0000029c       0x29 /Users/Max/android-ndk-r8e/sources/cxx-stl/gnu-libstdc++/4.4.3/libs/armeabi/libgnustl_static.a(eh_personality.o)
 .ARM.attributes
                0x000002c5       0x29 /Users/Max/android-ndk-r8e/sources/cxx-stl/gnu-libstdc++/4.4.3/libs/armeabi/libgnustl_static.a(eh_terminate.o)
 .ARM.attributes
                0x000002ee       0x29 /Users/Max/android-ndk-r8e/sources/cxx-stl/gnu-libstdc++/4.4.3/libs/armeabi/libgnustl_static.a(eh_throw.o)
 .ARM.attributes
                0x00000317       0x27 /Users/Max/android-ndk-r8e/sources/cxx-stl/gnu-libstdc++/4.4.3/libs/armeabi/libgnustl_static.a(eh_unex_handler.o)
 .ARM.attributes
                0x0000033e       0x29 /Users/Max/android-ndk-r8e/sources/cxx-stl/gnu-libstdc++/4.4.3/libs/armeabi/libgnustl_static.a(fundamental_type_info.o)
 .ARM.attributes
                0x00000367       0x29 /Users/Max/android-ndk-r8e/sources/cxx-stl/gnu-libstdc++/4.4.3/libs/armeabi/libgnustl_static.a(guard.o)
 .ARM.attributes
                0x00000390       0x29 /Users/Max/android-ndk-r8e/sources/cxx-stl/gnu-libstdc++/4.4.3/libs/armeabi/libgnustl_static.a(new_op.o)
 .ARM.attributes
                0x000003b9       0x29 /Users/Max/android-ndk-r8e/sources/cxx-stl/gnu-libstdc++/4.4.3/libs/armeabi/libgnustl_static.a(pointer_type_info.o)
 .ARM.attributes
                0x000003e2       0x29 /Users/Max/android-ndk-r8e/sources/cxx-stl/gnu-libstdc++/4.4.3/libs/armeabi/libgnustl_static.a(pure.o)
 .ARM.attributes
                0x0000040b       0x29 /Users/Max/android-ndk-r8e/sources/cxx-stl/gnu-libstdc++/4.4.3/libs/armeabi/libgnustl_static.a(si_class_type_info.o)
 .ARM.attributes
                0x00000434       0x29 /Users/Max/android-ndk-r8e/sources/cxx-stl/gnu-libstdc++/4.4.3/libs/armeabi/libgnustl_static.a(tinfo.o)
 .ARM.attributes
                0x0000045d       0x29 /Users/Max/android-ndk-r8e/sources/cxx-stl/gnu-libstdc++/4.4.3/libs/armeabi/libgnustl_static.a(functexcept.o)
 .ARM.attributes
                0x00000486       0x29 /Users/Max/android-ndk-r8e/sources/cxx-stl/gnu-libstdc++/4.4.3/libs/armeabi/libgnustl_static.a(ios_failure.o)
 .ARM.attributes
                0x000004af       0x29 /Users/Max/android-ndk-r8e/sources/cxx-stl/gnu-libstdc++/4.4.3/libs/armeabi/libgnustl_static.a(stdexcept.o)
 .ARM.attributes
                0x000004d8       0x29 /Users/Max/android-ndk-r8e/sources/cxx-stl/gnu-libstdc++/4.4.3/libs/armeabi/libgnustl_static.a(system_error.o)
 .ARM.attributes
                0x00000501       0x29 /Users/Max/android-ndk-r8e/sources/cxx-stl/gnu-libstdc++/4.4.3/libs/armeabi/libgnustl_static.a(bad_cast.o)
 .ARM.attributes
                0x0000052a       0x29 /Users/Max/android-ndk-r8e/sources/cxx-stl/gnu-libstdc++/4.4.3/libs/armeabi/libgnustl_static.a(bad_typeid.o)
 .ARM.attributes
                0x00000553       0x29 /Users/Max/android-ndk-r8e/sources/cxx-stl/gnu-libstdc++/4.4.3/libs/armeabi/libgnustl_static.a(class_type_info.o)
 .ARM.attributes
                0x0000057c       0x27 /Users/Max/android-ndk-r8e/sources/cxx-stl/gnu-libstdc++/4.4.3/libs/armeabi/libgnustl_static.a(eh_term_handler.o)
 .ARM.attributes
                0x000005a3       0x29 /Users/Max/android-ndk-r8e/sources/cxx-stl/gnu-libstdc++/4.4.3/libs/armeabi/libgnustl_static.a(new_handler.o)
 .ARM.attributes
                0x000005cc       0x29 /Users/Max/android-ndk-r8e/sources/cxx-stl/gnu-libstdc++/4.4.3/libs/armeabi/libgnustl_static.a(pbase_type_info.o)
 .ARM.attributes
                0x000005f5       0x29 /Users/Max/android-ndk-r8e/sources/cxx-stl/gnu-libstdc++/4.4.3/libs/armeabi/libgnustl_static.a(vterminate.o)
 .ARM.attributes
                0x0000061e       0x29 /Users/Max/android-ndk-r8e/sources/cxx-stl/gnu-libstdc++/4.4.3/libs/armeabi/libgnustl_static.a(cp-demangle.o)
 .ARM.attributes
                0x00000647       0x29 /Users/Max/android-ndk-r8e/sources/cxx-stl/gnu-libstdc++/4.4.3/libs/armeabi/libgnustl_static.a(eh_type.o)
 .ARM.attributes
                0x00000670       0x29 /Users/Max/android-ndk-r8e/toolchains/arm-linux-androideabi-4.4.3/prebuilt/darwin-x86/bin/../lib/gcc/arm-linux-androideabi/4.4.3/libgcc.a(unwind-arm.o)
 .ARM.attributes
                0x00000699       0x19 /Users/Max/android-ndk-r8e/toolchains/arm-linux-androideabi-4.4.3/prebuilt/darwin-x86/bin/../lib/gcc/arm-linux-androideabi/4.4.3/libgcc.a(libunwind.o)
 .ARM.attributes
                0x000006b2       0x29 /Users/Max/android-ndk-r8e/toolchains/arm-linux-androideabi-4.4.3/prebuilt/darwin-x86/bin/../lib/gcc/arm-linux-androideabi/4.4.3/libgcc.a(pr-support.o)
 .ARM.attributes
                0x000006db       0x1f /Users/Max/android-ndk-r8e/platforms/android-9/arch-arm/usr/lib/crtend_so.o
